 zoomsdk_render

 Timestamp is 696f793d (Tue Jan 20 07:46:53 2026)

 Preferred load address is 0000000180000000

 Start         Length     Name                   Class
 0001:00000000 000013b0H .text$di                CODE
 0001:000013b0 00050d20H .text$mn                CODE
 0001:000520d0 00000040H .text$mn$00             CODE
 0001:00052110 00000810H .text$x                 CODE
 0001:00052920 000014efH .text$yd                CODE
 0002:00000000 00000478H .idata$5                DATA
 0002:00000478 00000038H .00cfg                  DATA
 0002:000004b0 00000008H .CRT$XCA                DATA
 0002:000004b8 000008e8H .CRT$XCL                DATA
 0002:00000da0 00000080H .CRT$XCU                DATA
 0002:00000e20 00000008H .CRT$XCZ                DATA
 0002:00000e28 00000008H .CRT$XDA                DATA
 0002:00000e30 00000008H .CRT$XDU                DATA
 0002:00000e38 00000008H .CRT$XDZ                DATA
 0002:00000e40 00000008H .CRT$XIA                DATA
 0002:00000e48 00000008H .CRT$XIC                DATA
 0002:00000e50 00000008H .CRT$XIZ                DATA
 0002:00000e58 00000008H .CRT$XLA                DATA
 0002:00000e60 00000008H .CRT$XLC                DATA
 0002:00000e68 00000008H .CRT$XLD                DATA
 0002:00000e70 00000008H .CRT$XLZ                DATA
 0002:00000e78 00000008H .CRT$XPA                DATA
 0002:00000e80 00000008H .CRT$XPZ                DATA
 0002:00000e88 00000008H .CRT$XTA                DATA
 0002:00000e90 00000010H .CRT$XTZ                DATA
 0002:00000e98 00000000H .gehcont$y              DATA
 0002:00000e98 00000000H .gfids$y                DATA
 0002:00000e98 00000000H .giats$y                DATA
 0002:00000ea0 00011560H .rdata                  DATA
 0002:00012400 00000000H .rdata$CastGuardVftablesA DATA
 0002:00012400 00000000H .rdata$CastGuardVftablesC DATA
 0002:00012400 00000030H .rdata$T                DATA
 0002:00012430 00000a0cH .rdata$r                DATA
 0002:00012e3c 00000490H .rdata$voltmd           DATA
 0002:000132cc 000004dcH .rdata$zzzdbg           DATA
 0002:000137a8 00000008H .rtc$IAA                DATA
 0002:000137b0 00000008H .rtc$IZZ                DATA
 0002:000137b8 00000008H .rtc$TAA                DATA
 0002:000137c0 00000040H .rtc$TZZ                DATA
 0002:00013800 00000040H .tls                    DATA
 0002:00013840 00000190H .tls$                   DATA
 0002:000139d0 00000008H .tls$ZZZ                DATA
 0002:000139d8 00003ba0H .xdata                  DATA
 0002:00017578 0000017cH .xdata$x                DATA
 0002:000176f4 00000020H .didat$2                DATA
 0002:00017714 00000024H .didat$3                DATA
 0002:00017738 00000190H .didat$4                DATA
 0002:000178c8 00000a28H .didat$6                DATA
 0002:000182f0 00000190H .didat$7                DATA
 0002:00018480 00000060H .edata                  DATA
 0002:000184e0 000000c8H .idata$2                DATA
 0002:000185a8 00000018H .idata$3                DATA
 0002:000185c0 00000478H .idata$4                DATA
 0002:00018a38 000011a2H .idata$6                DATA
 0003:00000000 00002900H .data                   DATA
 0003:00002900 000000d0H .data$r                 DATA
 0003:000029d0 00000468H .data$rs                DATA
 0003:00002e38 000001c8H .didat$5                DATA
 0003:00003000 00003730H .bss                    DATA
 0004:00000000 00006414H .pdata                  DATA
 0005:00000000 00000390H .rsrc$01                DATA
 0005:00000390 00038f60H .rsrc$02                DATA

  Address         Publics by Value              Rva+Base               Lib:Object

 0000:00000000       __AbsoluteZero             0000000000000000     <absolute>
 0000:00000000       ___safe_se_handler_count   0000000000000000     <absolute>
 0000:00000000       ___safe_se_handler_table   0000000000000000     <absolute>
 0000:00000000       __arm64x_extra_rfe_table   0000000000000000     <absolute>
 0000:00000000       __arm64x_extra_rfe_table_size 0000000000000000     <absolute>
 0000:00000000       __arm64x_native_entrypoint 0000000000000000     <absolute>
 0000:00000000       __arm64x_redirection_metadata 0000000000000000     <absolute>
 0000:00000000       __arm64x_redirection_metadata_count 0000000000000000     <absolute>
 0000:00000000       __dynamic_value_reloc_table 0000000000000000     <absolute>
 0000:00000000       __enclave_config           0000000000000000     <absolute>
 0000:00000000       __guard_check_icall_a64n_fptr 0000000000000000     <absolute>
 0000:00000000       __guard_eh_cont_count      0000000000000000     <absolute>
 0000:00000000       __guard_eh_cont_table      0000000000000000     <absolute>
 0000:00000000       __guard_fids_count         0000000000000000     <absolute>
 0000:00000000       __guard_fids_table         0000000000000000     <absolute>
 0000:00000000       __guard_iat_count          0000000000000000     <absolute>
 0000:00000000       __guard_iat_table          0000000000000000     <absolute>
 0000:00000000       __guard_longjmp_count      0000000000000000     <absolute>
 0000:00000000       __guard_longjmp_table      0000000000000000     <absolute>
 0000:00000000       __hybrid_auxiliary_iat     0000000000000000     <absolute>
 0000:00000000       __hybrid_auxiliary_iat_copy 0000000000000000     <absolute>
 0000:00000000       __hybrid_code_map          0000000000000000     <absolute>
 0000:00000000       __hybrid_code_map_count    0000000000000000     <absolute>
 0000:00000000       __x64_code_ranges_to_entry_points 0000000000000000     <absolute>
 0000:00000000       __x64_code_ranges_to_entry_points_count 0000000000000000     <absolute>
 0000:00000100       __guard_flags              0000000000000100     <absolute>
 0000:00000000       __ImageBase                0000000180000000     <linker-defined>
 0001:000013f0       ?what@exception@stdext@@UEBAPEBDXZ 00000001800023f0 f i electron_sdk.pb.obj
 0001:00001410       ?_Raise@exception@stdext@@QEBAXXZ 0000000180002410 f i electron_sdk.pb.obj
 0001:00001450       ?OnDemandRegisterArenaDtor@MessageLite@protobuf@google@@UEAAXPEAVArena@23@@Z 0000000180002450 f i electron_sdk.pb.obj
 0001:00001450       ?_Doraise@exception@stdext@@MEBAXXZ 0000000180002450 f i electron_sdk.pb.obj
 0001:00001450       ?onConnect@UVIPCClientSink@@UEAAXXZ 0000000180002450 f i zoom_node_render_addon.obj
 0001:00001450       ?onDisconnect@UVIPCClientSink@@UEAAXXZ 0000000180002450 f i zoom_node_render_addon.obj
 0001:00001450       ?onIdle@UVIPCClientSink@@UEAAXXZ 0000000180002450 f i zoom_node_render_addon.obj
 0001:00001450       _guard_check_icall_nop     0000000180002450 f i MSVCRT:guard_support.obj
 0001:00001460       ??_Ebad_array_new_length@stdext@@UEAAPEAXI@Z 0000000180002460 f i * CIL library *:* CIL module *
 0001:00001460       ??_Eexception@stdext@@UEAAPEAXI@Z 0000000180002460 f i * CIL library *:* CIL module *
 0001:00001460       ??_Gbad_array_new_length@stdext@@UEAAPEAXI@Z 0000000180002460 f i electron_sdk.pb.obj
 0001:00001460       ??_Gexception@stdext@@UEAAPEAXI@Z 0000000180002460 f i electron_sdk.pb.obj
 0001:00001490       ?_Doraise@bad_alloc@stdext@@MEBAXXZ 0000000180002490 f i electron_sdk.pb.obj
 0001:000014b0       ??0bad_array_new_length@stdext@@QEAA@XZ 00000001800024b0 f i electron_sdk.pb.obj
 0001:000014d0       ?_Throw_bad_array_new_length@std@@YAXXZ 00000001800024d0 f i electron_sdk.pb.obj
 0001:000014f0       ?_Xlen_string@std@@YAXXZ   00000001800024f0 f i electron_sdk.pb.obj
 0001:00001510       ?WriteRaw@EpsCopyOutputStream@io@protobuf@google@@QEAAPEAEPEBXHPEAE@Z 0000000180002510 f i electron_sdk.pb.obj
 0001:00001560       ?WriteStringMaybeAliased@EpsCopyOutputStream@io@protobuf@google@@QEAAPEAEIAEBV?$basic_string@DU?$char_traits@D@std@@V?$allocator@D@2@@std@@PEAE@Z 0000000180002560 f i electron_sdk.pb.obj
 0001:00001650       ?Done@ParseContext@internal@protobuf@google@@QEAA_NPEAPEBD@Z 0000000180002650 f i electron_sdk.pb.obj
 0001:000017a0       ?New@InitSDKParams@proto@sdk@electron@com@@UEBAPEAV12345@PEAVArena@protobuf@google@@@Z 00000001800027a0 f i electron_sdk.pb.obj
 0001:000017b0       ?GetCachedSize@AICompanionQueryFeedbackParams@proto@sdk@electron@com@@UEBAHXZ 00000001800027b0 f i electron_sdk.pb.obj
 0001:000017b0       ?GetCachedSize@ActionConfirmEnableSmartRecordingParams@proto@sdk@electron@com@@UEBAHXZ 00000001800027b0 f i electron_sdk.pb.obj
 0001:000017b0       ?GetCachedSize@AddBGImageParams@proto@sdk@electron@com@@UEBAHXZ 00000001800027b0 f i electron_sdk.pb.obj
 0001:000017b0       ?GetCachedSize@AddBGVideoParams@proto@sdk@electron@com@@UEBAHXZ 00000001800027b0 f i electron_sdk.pb.obj
 0001:000017b0       ?GetCachedSize@AddCustomizedPictureResourceParams@proto@sdk@electron@com@@UEBAHXZ 00000001800027b0 f i electron_sdk.pb.obj
 0001:000017b0       ?GetCachedSize@AddCustomizedStringResourceParams@proto@sdk@electron@com@@UEBAHXZ 00000001800027b0 f i electron_sdk.pb.obj
 0001:000017b0       ?GetCachedSize@AddCustomizedURLResourceParams@proto@sdk@electron@com@@UEBAHXZ 00000001800027b0 f i electron_sdk.pb.obj
 0001:000017b0       ?GetCachedSize@AdmitToMeetingParams@proto@sdk@electron@com@@UEBAHXZ 00000001800027b0 f i electron_sdk.pb.obj
 0001:000017b0       ?GetCachedSize@AgreeAICompanionFeatureSwitchParams@proto@sdk@electron@com@@UEBAHXZ 00000001800027b0 f i electron_sdk.pb.obj
 0001:000017b0       ?GetCachedSize@AgreeToEnableAndStartSmartRecordingParams@proto@sdk@electron@com@@UEBAHXZ 00000001800027b0 f i electron_sdk.pb.obj
 0001:000017b0       ?GetCachedSize@AllowLocalRecordingParams@proto@sdk@electron@com@@UEBAHXZ 00000001800027b0 f i electron_sdk.pb.obj
 0001:000017b0       ?GetCachedSize@AllowParticipantsToRequestCloudRecordingParams@proto@sdk@electron@com@@UEBAHXZ 00000001800027b0 f i electron_sdk.pb.obj
 0001:000017b0       ?GetCachedSize@AlwaysShowIconOnTaskBarParams@proto@sdk@electron@com@@UEBAHXZ 00000001800027b0 f i electron_sdk.pb.obj
 0001:000017b0       ?GetCachedSize@AnswerIDParams@proto@sdk@electron@com@@UEBAHXZ 00000001800027b0 f i electron_sdk.pb.obj
 0001:000017b0       ?GetCachedSize@AnswerQuestionParams@proto@sdk@electron@com@@UEBAHXZ 00000001800027b0 f i electron_sdk.pb.obj
 0001:000017b0       ?GetCachedSize@AuthWithJwtTokenParams@proto@sdk@electron@com@@UEBAHXZ 00000001800027b0 f i electron_sdk.pb.obj
 0001:000017b0       ?GetCachedSize@CallOutH323Params@proto@sdk@electron@com@@UEBAHXZ 00000001800027b0 f i electron_sdk.pb.obj
 0001:000017b0       ?GetCachedSize@CanStartRecordingParams@proto@sdk@electron@com@@UEBAHXZ 00000001800027b0 f i electron_sdk.pb.obj
 0001:000017b0       ?GetCachedSize@ChangeFloatToActiveSpkVideoSizeParams@proto@sdk@electron@com@@UEBAHXZ 00000001800027b0 f i electron_sdk.pb.obj
 0001:000017b0       ?GetCachedSize@ChangeQuerySettingsParams@proto@sdk@electron@com@@UEBAHXZ 00000001800027b0 f i electron_sdk.pb.obj
 0001:000017b0       ?GetCachedSize@ChatMessageIDParams@proto@sdk@electron@com@@UEBAHXZ 00000001800027b0 f i electron_sdk.pb.obj
 0001:000017b0       ?GetCachedSize@ClearAnnotationParams@proto@sdk@electron@com@@UEBAHXZ 00000001800027b0 f i electron_sdk.pb.obj
 0001:000017b0       ?GetCachedSize@ConfSettingDialogShownTabPageParams@proto@sdk@electron@com@@UEBAHXZ 00000001800027b0 f i electron_sdk.pb.obj
 0001:000017b0       ?GetCachedSize@ConfigDSCPParams@proto@sdk@electron@com@@UEBAHXZ 00000001800027b0 f i electron_sdk.pb.obj
 0001:000017b0       ?GetCachedSize@ConfigToShowUrlLinksInSettingParams@proto@sdk@electron@com@@UEBAHXZ 00000001800027b0 f i electron_sdk.pb.obj
 0001:000017b0       ?GetCachedSize@CreateRendererParams@proto@sdk@electron@com@@UEBAHXZ 00000001800027b0 f i electron_sdk.pb.obj
 0001:000017b0       ?GetCachedSize@DeclineEnableAndStartSmartRecordingParams@proto@sdk@electron@com@@UEBAHXZ 00000001800027b0 f i electron_sdk.pb.obj
 0001:000017b0       ?GetCachedSize@DeclineEnableParams@proto@sdk@electron@com@@UEBAHXZ 00000001800027b0 f i electron_sdk.pb.obj
 0001:000017b0       ?GetCachedSize@DeclineSendQueryParams@proto@sdk@electron@com@@UEBAHXZ 00000001800027b0 f i electron_sdk.pb.obj
 0001:000017b0       ?GetCachedSize@DeleteMeetingParams@proto@sdk@electron@com@@UEBAHXZ 00000001800027b0 f i electron_sdk.pb.obj
 0001:000017b0       ?GetCachedSize@DenyRequestStartCloudRecordingParams@proto@sdk@electron@com@@UEBAHXZ 00000001800027b0 f i electron_sdk.pb.obj
 0001:000017b0       ?GetCachedSize@DestroyRendererParams@proto@sdk@electron@com@@UEBAHXZ 00000001800027b0 f i electron_sdk.pb.obj
 0001:000017b0       ?GetCachedSize@DisAllowLocalRecordingParams@proto@sdk@electron@com@@UEBAHXZ 00000001800027b0 f i electron_sdk.pb.obj
 0001:000017b0       ?GetCachedSize@DisableAccountSettingTabPageParams@proto@sdk@electron@com@@UEBAHXZ 00000001800027b0 f i electron_sdk.pb.obj
 0001:000017b0       ?GetCachedSize@DisableAdvancedFeatures4GeneralSettingParams@proto@sdk@electron@com@@UEBAHXZ 00000001800027b0 f i electron_sdk.pb.obj
 0001:000017b0       ?GetCachedSize@DisableAutoShowSelectJoinAudioDlgWhenJoinMeetingParams@proto@sdk@electron@com@@UEBAHXZ 00000001800027b0 f i electron_sdk.pb.obj
 0001:000017b0       ?GetCachedSize@DisableFreeMeetingRemainTimeNotifyParams@proto@sdk@electron@com@@UEBAHXZ 00000001800027b0 f i electron_sdk.pb.obj
 0001:000017b0       ?GetCachedSize@DisablePopupMeetingWrongPSWDlgParams@proto@sdk@electron@com@@UEBAHXZ 00000001800027b0 f i electron_sdk.pb.obj
 0001:000017b0       ?GetCachedSize@DisableShowJoinMeetingWndParams@proto@sdk@electron@com@@UEBAHXZ 00000001800027b0 f i electron_sdk.pb.obj
 0001:000017b0       ?GetCachedSize@DisableSplitScreenModeUIElementsParams@proto@sdk@electron@com@@UEBAHXZ 00000001800027b0 f i electron_sdk.pb.obj
 0001:000017b0       ?GetCachedSize@DisableToolbarInviteButtonClickOriginActionParams@proto@sdk@electron@com@@UEBAHXZ 00000001800027b0 f i electron_sdk.pb.obj
 0001:000017b0       ?GetCachedSize@DisableTopMostAttr4SettingDialogParams@proto@sdk@electron@com@@UEBAHXZ 00000001800027b0 f i electron_sdk.pb.obj
 0001:000017b0       ?GetCachedSize@DisableWaitingForHostDialogParams@proto@sdk@electron@com@@UEBAHXZ 00000001800027b0 f i electron_sdk.pb.obj
 0001:000017b0       ?GetCachedSize@EditMeetingParams@proto@sdk@electron@com@@UEBAHXZ 00000001800027b0 f i electron_sdk.pb.obj
 0001:000017b0       ?GetCachedSize@EditMeetingWithWndParams@proto@sdk@electron@com@@UEBAHXZ 00000001800027b0 f i electron_sdk.pb.obj
 0001:000017b0       ?GetCachedSize@Enable49VideoesInGallaryViewParams@proto@sdk@electron@com@@UEBAHXZ 00000001800027b0 f i electron_sdk.pb.obj
 0001:000017b0       ?GetCachedSize@EnableAccelerateGPUWhenShareParams@proto@sdk@electron@com@@UEBAHXZ 00000001800027b0 f i electron_sdk.pb.obj
 0001:000017b0       ?GetCachedSize@EnableAddTimestampWatermarkParams@proto@sdk@electron@com@@UEBAHXZ 00000001800027b0 f i electron_sdk.pb.obj
 0001:000017b0       ?GetCachedSize@EnableAirplayInstructionWindowParams@proto@sdk@electron@com@@UEBAHXZ 00000001800027b0 f i electron_sdk.pb.obj
 0001:000017b0       ?GetCachedSize@EnableAlwaysMuteMicWhenJoinVoipParams@proto@sdk@electron@com@@UEBAHXZ 00000001800027b0 f i electron_sdk.pb.obj
 0001:000017b0       ?GetCachedSize@EnableAlwaysShowMeetingControlsParams@proto@sdk@electron@com@@UEBAHXZ 00000001800027b0 f i electron_sdk.pb.obj
 0001:000017b0       ?GetCachedSize@EnableAlwaysShowNameOnVideoParams@proto@sdk@electron@com@@UEBAHXZ 00000001800027b0 f i electron_sdk.pb.obj
 0001:000017b0       ?GetCachedSize@EnableApproveRemoteControlDlgParams@proto@sdk@electron@com@@UEBAHXZ 00000001800027b0 f i electron_sdk.pb.obj
 0001:000017b0       ?GetCachedSize@EnableAudioButtonOnMeetingUIParams@proto@sdk@electron@com@@UEBAHXZ 00000001800027b0 f i electron_sdk.pb.obj
 0001:000017b0       ?GetCachedSize@EnableAutoAdjustMicParams@proto@sdk@electron@com@@UEBAHXZ 00000001800027b0 f i electron_sdk.pb.obj
 0001:000017b0       ?GetCachedSize@EnableAutoAdjustMicVolumeWhenJoinAudioParams@proto@sdk@electron@com@@UEBAHXZ 00000001800027b0 f i electron_sdk.pb.obj
 0001:000017b0       ?GetCachedSize@EnableAutoAdjustSpeakerVolumeWhenJoinAudioParams@proto@sdk@electron@com@@UEBAHXZ 00000001800027b0 f i electron_sdk.pb.obj
 0001:000017b0       ?GetCachedSize@EnableAutoEndOtherMeetingWhenStartMeetingParams@proto@sdk@electron@com@@UEBAHXZ 00000001800027b0 f i electron_sdk.pb.obj
 0001:000017b0       ?GetCachedSize@EnableAutoFitToWindowWhenViewSharingParams@proto@sdk@electron@com@@UEBAHXZ 00000001800027b0 f i electron_sdk.pb.obj
 0001:000017b0       ?GetCachedSize@EnableAutoFullScreenVideoWhenJoinMeetingParams@proto@sdk@electron@com@@UEBAHXZ 00000001800027b0 f i electron_sdk.pb.obj
 0001:000017b0       ?GetCachedSize@EnableAutoFullScreenVideoWhenViewShareParams@proto@sdk@electron@com@@UEBAHXZ 00000001800027b0 f i electron_sdk.pb.obj
 0001:000017b0       ?GetCachedSize@EnableAutoHideJoinAudioDialogParams@proto@sdk@electron@com@@UEBAHXZ 00000001800027b0 f i electron_sdk.pb.obj
 0001:000017b0       ?GetCachedSize@EnableAutoJoinAudioParams@proto@sdk@electron@com@@UEBAHXZ 00000001800027b0 f i electron_sdk.pb.obj
 0001:000017b0       ?GetCachedSize@EnableAutoTurnOffVideoWhenJoinMeetingParams@proto@sdk@electron@com@@UEBAHXZ 00000001800027b0 f i electron_sdk.pb.obj
 0001:000017b0       ?GetCachedSize@EnableClaimHostFeatureParams@proto@sdk@electron@com@@UEBAHXZ 00000001800027b0 f i electron_sdk.pb.obj
 0001:000017b0       ?GetCachedSize@EnableDeclineRemoteControlResponseDlgParams@proto@sdk@electron@com@@UEBAHXZ 00000001800027b0 f i electron_sdk.pb.obj
 0001:000017b0       ?GetCachedSize@EnableDisplayReminderWindowWhenExitParams@proto@sdk@electron@com@@UEBAHXZ 00000001800027b0 f i electron_sdk.pb.obj
 0001:000017b0       ?GetCachedSize@EnableDualScreenModeParams@proto@sdk@electron@com@@UEBAHXZ 00000001800027b0 f i electron_sdk.pb.obj
 0001:000017b0       ?GetCachedSize@EnableEnterAndExitFullScreenButtonOnMeetingUIParams@proto@sdk@electron@com@@UEBAHXZ 00000001800027b0 f i electron_sdk.pb.obj
 0001:000017b0       ?GetCachedSize@EnableFaceBeautyEffectParams@proto@sdk@electron@com@@UEBAHXZ 00000001800027b0 f i electron_sdk.pb.obj
 0001:000017b0       ?GetCachedSize@EnableForceAutoStartMyVideoWhenJoinMeetingParams@proto@sdk@electron@com@@UEBAHXZ 00000001800027b0 f i electron_sdk.pb.obj
 0001:000017b0       ?GetCachedSize@EnableForceAutoStopMyVideoWhenJoinMeetingParams@proto@sdk@electron@com@@UEBAHXZ 00000001800027b0 f i electron_sdk.pb.obj
 0001:000017b0       ?GetCachedSize@EnableGrabShareWithoutReminderParams@proto@sdk@electron@com@@UEBAHXZ 00000001800027b0 f i electron_sdk.pb.obj
 0001:000017b0       ?GetCachedSize@EnableHDVideoParams@proto@sdk@electron@com@@UEBAHXZ 00000001800027b0 f i electron_sdk.pb.obj
 0001:000017b0       ?GetCachedSize@EnableHIdeFullPhoneNumber4PureCallinUserParams@proto@sdk@electron@com@@UEBAHXZ 00000001800027b0 f i electron_sdk.pb.obj
 0001:000017b0       ?GetCachedSize@EnableHardwareEncodeParams@proto@sdk@electron@com@@UEBAHXZ 00000001800027b0 f i electron_sdk.pb.obj
 0001:000017b0       ?GetCachedSize@EnableHideNoVideoUsersOnWallViewParams@proto@sdk@electron@com@@UEBAHXZ 00000001800027b0 f i electron_sdk.pb.obj
 0001:000017b0       ?GetCachedSize@EnableHoldSpaceKeyToSpeakParams@proto@sdk@electron@com@@UEBAHXZ 00000001800027b0 f i electron_sdk.pb.obj
 0001:000017b0       ?GetCachedSize@EnableInputMeetingPasswordDlgParams@proto@sdk@electron@com@@UEBAHXZ 00000001800027b0 f i electron_sdk.pb.obj
 0001:000017b0       ?GetCachedSize@EnableInputMeetingScreenNameDlgParams@proto@sdk@electron@com@@UEBAHXZ 00000001800027b0 f i electron_sdk.pb.obj
 0001:000017b0       ?GetCachedSize@EnableInviteButtonOnMeetingUIParams@proto@sdk@electron@com@@UEBAHXZ 00000001800027b0 f i electron_sdk.pb.obj
 0001:000017b0       ?GetCachedSize@EnableInviteLinkOnMeetingUIParams@proto@sdk@electron@com@@UEBAHXZ 00000001800027b0 f i electron_sdk.pb.obj
 0001:000017b0       ?GetCachedSize@EnableLButtonDBClick4SwitchFullScreenModeParams@proto@sdk@electron@com@@UEBAHXZ 00000001800027b0 f i electron_sdk.pb.obj
 0001:000017b0       ?GetCachedSize@EnableLeaveMeetingOptionForHostParams@proto@sdk@electron@com@@UEBAHXZ 00000001800027b0 f i electron_sdk.pb.obj
 0001:000017b0       ?GetCachedSize@EnableLengthLimitationOfMeetingNumberParams@proto@sdk@electron@com@@UEBAHXZ 00000001800027b0 f i electron_sdk.pb.obj
 0001:000017b0       ?GetCachedSize@EnableLiveStreamReminderParams@proto@sdk@electron@com@@UEBAHXZ 00000001800027b0 f i electron_sdk.pb.obj
 0001:000017b0       ?GetCachedSize@EnableLocalRecordingConverProgressBarDialogParams@proto@sdk@electron@com@@UEBAHXZ 00000001800027b0 f i electron_sdk.pb.obj
 0001:000017b0       ?GetCachedSize@EnableMicOriginalInputParams@proto@sdk@electron@com@@UEBAHXZ 00000001800027b0 f i electron_sdk.pb.obj
 0001:000017b0       ?GetCachedSize@EnableMultiAudioStreamRecordParams@proto@sdk@electron@com@@UEBAHXZ 00000001800027b0 f i electron_sdk.pb.obj
 0001:000017b0       ?GetCachedSize@EnableMuteOnEntryParams@proto@sdk@electron@com@@UEBAHXZ 00000001800027b0 f i electron_sdk.pb.obj
 0001:000017b0       ?GetCachedSize@EnableOptimizeFor3rdPartyVideoEditorParams@proto@sdk@electron@com@@UEBAHXZ 00000001800027b0 f i electron_sdk.pb.obj
 0001:000017b0       ?GetCachedSize@EnableParticipantsCreateWithoutHostParams@proto@sdk@electron@com@@UEBAHXZ 00000001800027b0 f i electron_sdk.pb.obj
 0001:000017b0       ?GetCachedSize@EnablePlaceVideoNextToShareInRecordParams@proto@sdk@electron@com@@UEBAHXZ 00000001800027b0 f i electron_sdk.pb.obj
 0001:000017b0       ?GetCachedSize@EnablePlayChimeWhenEnterOrExitParams@proto@sdk@electron@com@@UEBAHXZ 00000001800027b0 f i electron_sdk.pb.obj
 0001:000017b0       ?GetCachedSize@EnablePlayMeetingAudioParams@proto@sdk@electron@com@@UEBAHXZ 00000001800027b0 f i electron_sdk.pb.obj
 0001:000017b0       ?GetCachedSize@EnableRemoteControlAllApplicationsParams@proto@sdk@electron@com@@UEBAHXZ 00000001800027b0 f i electron_sdk.pb.obj
 0001:000017b0       ?GetCachedSize@EnableSelectRecordFileLocationAfterMeetingParams@proto@sdk@electron@com@@UEBAHXZ 00000001800027b0 f i electron_sdk.pb.obj
 0001:000017b0       ?GetCachedSize@EnableShareIOSDeviceParams@proto@sdk@electron@com@@UEBAHXZ 00000001800027b0 f i electron_sdk.pb.obj
 0001:000017b0       ?GetCachedSize@EnableShareWhiteBoardParams@proto@sdk@electron@com@@UEBAHXZ 00000001800027b0 f i electron_sdk.pb.obj
 0001:000017b0       ?GetCachedSize@EnableShowMyMeetingElapseTimeParams@proto@sdk@electron@com@@UEBAHXZ 00000001800027b0 f i electron_sdk.pb.obj
 0001:000017b0       ?GetCachedSize@EnableShowShareSwitchMultiToSingleConfirmDlgParams@proto@sdk@electron@com@@UEBAHXZ 00000001800027b0 f i electron_sdk.pb.obj
 0001:000017b0       ?GetCachedSize@EnableShowVideoThumbnailWhenShareParams@proto@sdk@electron@com@@UEBAHXZ 00000001800027b0 f i electron_sdk.pb.obj
 0001:000017b0       ?GetCachedSize@EnableSplitScreenModeParams@proto@sdk@electron@com@@UEBAHXZ 00000001800027b0 f i electron_sdk.pb.obj
 0001:000017b0       ?GetCachedSize@EnableSpotlightSelfParams@proto@sdk@electron@com@@UEBAHXZ 00000001800027b0 f i electron_sdk.pb.obj
 0001:000017b0       ?GetCachedSize@EnableStereoAudioParams@proto@sdk@electron@com@@UEBAHXZ 00000001800027b0 f i electron_sdk.pb.obj
 0001:000017b0       ?GetCachedSize@EnableSuppressAudioNotifyParams@proto@sdk@electron@com@@UEBAHXZ 00000001800027b0 f i electron_sdk.pb.obj
 0001:000017b0       ?GetCachedSize@EnableToolTipsShowParams@proto@sdk@electron@com@@UEBAHXZ 00000001800027b0 f i electron_sdk.pb.obj
 0001:000017b0       ?GetCachedSize@EnableVideoButtonOnMeetingUIParams@proto@sdk@electron@com@@UEBAHXZ 00000001800027b0 f i electron_sdk.pb.obj
 0001:000017b0       ?GetCachedSize@EnableVideoMirrorEffectParams@proto@sdk@electron@com@@UEBAHXZ 00000001800027b0 f i electron_sdk.pb.obj
 0001:000017b0       ?GetCachedSize@EnableVideoPreviewDialogParams@proto@sdk@electron@com@@UEBAHXZ 00000001800027b0 f i electron_sdk.pb.obj
 0001:000017b0       ?GetCachedSize@EnableWaitingRoomOnEntryParams@proto@sdk@electron@com@@UEBAHXZ 00000001800027b0 f i electron_sdk.pb.obj
 0001:000017b0       ?GetCachedSize@EnableZoomAuthRealNameMeetingUIShownParams@proto@sdk@electron@com@@UEBAHXZ 00000001800027b0 f i electron_sdk.pb.obj
 0001:000017b0       ?GetCachedSize@EnableZoomDocsParams@proto@sdk@electron@com@@UEBAHXZ 00000001800027b0 f i electron_sdk.pb.obj
 0001:000017b0       ?GetCachedSize@EnterFullScreenParams@proto@sdk@electron@com@@UEBAHXZ 00000001800027b0 f i electron_sdk.pb.obj
 0001:000017b0       ?GetCachedSize@ExitFullScreenParams@proto@sdk@electron@com@@UEBAHXZ 00000001800027b0 f i electron_sdk.pb.obj
 0001:000017b0       ?GetCachedSize@ExpelUserParams@proto@sdk@electron@com@@UEBAHXZ 00000001800027b0 f i electron_sdk.pb.obj
 0001:000017b0       ?GetCachedSize@ForceDisableMultiShareParams@proto@sdk@electron@com@@UEBAHXZ 00000001800027b0 f i electron_sdk.pb.obj
 0001:000017b0       ?GetCachedSize@GenerateSSOLoginWebURLParams@proto@sdk@electron@com@@UEBAHXZ 00000001800027b0 f i electron_sdk.pb.obj
 0001:000017b0       ?GetCachedSize@GetAuthorizedBotListByUserIDParams@proto@sdk@electron@com@@UEBAHXZ 00000001800027b0 f i electron_sdk.pb.obj
 0001:000017b0       ?GetCachedSize@GetBotAuthorizedUserInfoByUserIDParams@proto@sdk@electron@com@@UEBAHXZ 00000001800027b0 f i electron_sdk.pb.obj
 0001:000017b0       ?GetCachedSize@GetDocsSharingSourceInfoListParams@proto@sdk@electron@com@@UEBAHXZ 00000001800027b0 f i electron_sdk.pb.obj
 0001:000017b0       ?GetCachedSize@GetLiveStreamItemInfoParams@proto@sdk@electron@com@@UEBAHXZ 00000001800027b0 f i electron_sdk.pb.obj
 0001:000017b0       ?GetCachedSize@GetRawDataTypeParams@proto@sdk@electron@com@@UEBAHXZ 00000001800027b0 f i electron_sdk.pb.obj
 0001:000017b0       ?GetCachedSize@GetResolutionParams@proto@sdk@electron@com@@UEBAHXZ 00000001800027b0 f i electron_sdk.pb.obj
 0001:000017b0       ?GetCachedSize@GetSubscribeIdParams@proto@sdk@electron@com@@UEBAHXZ 00000001800027b0 f i electron_sdk.pb.obj
 0001:000017b0       ?GetCachedSize@GetUserInfoByUserIDParams@proto@sdk@electron@com@@UEBAHXZ 00000001800027b0 f i electron_sdk.pb.obj
 0001:000017b0       ?GetCachedSize@GetWaitingRoomUserInfoByIDParams@proto@sdk@electron@com@@UEBAHXZ 00000001800027b0 f i electron_sdk.pb.obj
 0001:000017b0       ?GetCachedSize@GetWallpaperItemByIDParams@proto@sdk@electron@com@@UEBAHXZ 00000001800027b0 f i electron_sdk.pb.obj
 0001:000017b0       ?GetCachedSize@HandleZoomWebUriProtocolActionParams@proto@sdk@electron@com@@UEBAHXZ 00000001800027b0 f i electron_sdk.pb.obj
 0001:000017b0       ?GetCachedSize@HideAutoCopyInviteLinkCheckBoxParams@proto@sdk@electron@com@@UEBAHXZ 00000001800027b0 f i electron_sdk.pb.obj
 0001:000017b0       ?GetCachedSize@HideChatItemOnMeetingUIParams@proto@sdk@electron@com@@UEBAHXZ 00000001800027b0 f i electron_sdk.pb.obj
 0001:000017b0       ?GetCachedSize@HideCopyInvitationOnInviteWindowParams@proto@sdk@electron@com@@UEBAHXZ 00000001800027b0 f i electron_sdk.pb.obj
 0001:000017b0       ?GetCachedSize@HideCopyUrlOnInviteWindowParams@proto@sdk@electron@com@@UEBAHXZ 00000001800027b0 f i electron_sdk.pb.obj
 0001:000017b0       ?GetCachedSize@HideKeypadButtonOnMeetingWindowParams@proto@sdk@electron@com@@UEBAHXZ 00000001800027b0 f i electron_sdk.pb.obj
 0001:000017b0       ?GetCachedSize@HideOrShowNoVideoUserOnVideoWallParams@proto@sdk@electron@com@@UEBAHXZ 00000001800027b0 f i electron_sdk.pb.obj
 0001:000017b0       ?GetCachedSize@HidePollOnMeetingUIParams@proto@sdk@electron@com@@UEBAHXZ 00000001800027b0 f i electron_sdk.pb.obj
 0001:000017b0       ?GetCachedSize@HideQAOnMeetingUIParams@proto@sdk@electron@com@@UEBAHXZ 00000001800027b0 f i electron_sdk.pb.obj
 0001:000017b0       ?GetCachedSize@HideRecordItemOnMeetingUIParams@proto@sdk@electron@com@@UEBAHXZ 00000001800027b0 f i electron_sdk.pb.obj
 0001:000017b0       ?GetCachedSize@HideRemoteControlOnMeetingUIParams@proto@sdk@electron@com@@UEBAHXZ 00000001800027b0 f i electron_sdk.pb.obj
 0001:000017b0       ?GetCachedSize@HideSwitchCameraButtonParams@proto@sdk@electron@com@@UEBAHXZ 00000001800027b0 f i electron_sdk.pb.obj
 0001:000017b0       ?GetCachedSize@HideUpgradeFreeMeetingButtonParams@proto@sdk@electron@com@@UEBAHXZ 00000001800027b0 f i electron_sdk.pb.obj
 0001:000017b0       ?GetCachedSize@InitSDKParams@proto@sdk@electron@com@@UEBAHXZ 00000001800027b0 f i electron_sdk.pb.obj
 0001:000017b0       ?GetCachedSize@InputMeetingIDAndScreenNameParams@proto@sdk@electron@com@@UEBAHXZ 00000001800027b0 f i electron_sdk.pb.obj
 0001:000017b0       ?GetCachedSize@InputMeetingPasswordAndScreenNameParams@proto@sdk@electron@com@@UEBAHXZ 00000001800027b0 f i electron_sdk.pb.obj
 0001:000017b0       ?GetCachedSize@InputMeetingScreenNameParams@proto@sdk@electron@com@@UEBAHXZ 00000001800027b0 f i electron_sdk.pb.obj
 0001:000017b0       ?GetCachedSize@InputScreenNameParams@proto@sdk@electron@com@@UEBAHXZ 00000001800027b0 f i electron_sdk.pb.obj
 0001:000017b0       ?GetCachedSize@InputUserInfoParams@proto@sdk@electron@com@@UEBAHXZ 00000001800027b0 f i electron_sdk.pb.obj
 0001:000017b0       ?GetCachedSize@InputWebinarRegisterEmailAndScreenNameParams@proto@sdk@electron@com@@UEBAHXZ 00000001800027b0 f i electron_sdk.pb.obj
 0001:000017b0       ?GetCachedSize@IsHardwareEncodeEnabledParams@proto@sdk@electron@com@@UEBAHXZ 00000001800027b0 f i electron_sdk.pb.obj
 0001:000017b0       ?GetCachedSize@IsSupportLocalRecordingParams@proto@sdk@electron@com@@UEBAHXZ 00000001800027b0 f i electron_sdk.pb.obj
 0001:000017b0       ?GetCachedSize@IsValidEmailParams@proto@sdk@electron@com@@UEBAHXZ 00000001800027b0 f i electron_sdk.pb.obj
 0001:000017b0       ?GetCachedSize@JoinMeetingParams@proto@sdk@electron@com@@UEBAHXZ 00000001800027b0 f i electron_sdk.pb.obj
 0001:000017b0       ?GetCachedSize@JoinWithArchiveParams@proto@sdk@electron@com@@UEBAHXZ 00000001800027b0 f i electron_sdk.pb.obj
 0001:000017b0       ?GetCachedSize@JoinWithoutLoginParams@proto@sdk@electron@com@@UEBAHXZ 00000001800027b0 f i electron_sdk.pb.obj
 0001:000017b0       ?GetCachedSize@LeaveMeetingParams@proto@sdk@electron@com@@UEBAHXZ 00000001800027b0 f i electron_sdk.pb.obj
 0001:000017b0       ?GetCachedSize@LoginWithSSOTokenParams@proto@sdk@electron@com@@UEBAHXZ 00000001800027b0 f i electron_sdk.pb.obj
 0001:000017b0       ?GetCachedSize@MoveFloatVideoWndParams@proto@sdk@electron@com@@UEBAHXZ 00000001800027b0 f i electron_sdk.pb.obj
 0001:000017b0       ?GetCachedSize@MuteAudioParams@proto@sdk@electron@com@@UEBAHXZ 00000001800027b0 f i electron_sdk.pb.obj
 0001:000017b0       ?GetCachedSize@MuteVideoParams@proto@sdk@electron@com@@UEBAHXZ 00000001800027b0 f i electron_sdk.pb.obj
 0001:000017b0       ?GetCachedSize@PinVideoToFirstViewParams@proto@sdk@electron@com@@UEBAHXZ 00000001800027b0 f i electron_sdk.pb.obj
 0001:000017b0       ?GetCachedSize@PollingIDParams@proto@sdk@electron@com@@UEBAHXZ 00000001800027b0 f i electron_sdk.pb.obj
 0001:000017b0       ?GetCachedSize@PrePopulateWebinarRegistrationInfoParams@proto@sdk@electron@com@@UEBAHXZ 00000001800027b0 f i electron_sdk.pb.obj
 0001:000017b0       ?GetCachedSize@PutInWaitingRoomParams@proto@sdk@electron@com@@UEBAHXZ 00000001800027b0 f i electron_sdk.pb.obj
 0001:000017b0       ?GetCachedSize@QuestionCaseSensitiveParams@proto@sdk@electron@com@@UEBAHXZ 00000001800027b0 f i electron_sdk.pb.obj
 0001:000017b0       ?GetCachedSize@QuestionIDParams@proto@sdk@electron@com@@UEBAHXZ 00000001800027b0 f i electron_sdk.pb.obj
 0001:000017b0       ?GetCachedSize@QuestionImagePathParams@proto@sdk@electron@com@@UEBAHXZ 00000001800027b0 f i electron_sdk.pb.obj
 0001:000017b0       ?GetCachedSize@RedirectClickAudioBTNEventParams@proto@sdk@electron@com@@UEBAHXZ 00000001800027b0 f i electron_sdk.pb.obj
 0001:000017b0       ?GetCachedSize@RedirectClickAudioMenuBTNEventParams@proto@sdk@electron@com@@UEBAHXZ 00000001800027b0 f i electron_sdk.pb.obj
 0001:000017b0       ?GetCachedSize@RedirectClickCCBTNEventParams@proto@sdk@electron@com@@UEBAHXZ 00000001800027b0 f i electron_sdk.pb.obj
 0001:000017b0       ?GetCachedSize@RedirectClickCustomLiveStreamMenuEventParams@proto@sdk@electron@com@@UEBAHXZ 00000001800027b0 f i electron_sdk.pb.obj
 0001:000017b0       ?GetCachedSize@RedirectClickEndMeetingBTNEventParams@proto@sdk@electron@com@@UEBAHXZ 00000001800027b0 f i electron_sdk.pb.obj
 0001:000017b0       ?GetCachedSize@RedirectClickParticipantListBTNEventParams@proto@sdk@electron@com@@UEBAHXZ 00000001800027b0 f i electron_sdk.pb.obj
 0001:000017b0       ?GetCachedSize@RedirectClickShareBTNEventParams@proto@sdk@electron@com@@UEBAHXZ 00000001800027b0 f i electron_sdk.pb.obj
 0001:000017b0       ?GetCachedSize@RedirectConfirmStartArchiveDialogParams@proto@sdk@electron@com@@UEBAHXZ 00000001800027b0 f i electron_sdk.pb.obj
 0001:000017b0       ?GetCachedSize@RedirectEndOtherMeetingParams@proto@sdk@electron@com@@UEBAHXZ 00000001800027b0 f i electron_sdk.pb.obj
 0001:000017b0       ?GetCachedSize@RedirectFreeMeetingEndingReminderDlgParams@proto@sdk@electron@com@@UEBAHXZ 00000001800027b0 f i electron_sdk.pb.obj
 0001:000017b0       ?GetCachedSize@RedirectMeetingInputUserInfoDialogParams@proto@sdk@electron@com@@UEBAHXZ 00000001800027b0 f i electron_sdk.pb.obj
 0001:000017b0       ?GetCachedSize@RedirectMeetingWarningMsgParams@proto@sdk@electron@com@@UEBAHXZ 00000001800027b0 f i electron_sdk.pb.obj
 0001:000017b0       ?GetCachedSize@RedirectWebinarNeedRegisterParams@proto@sdk@electron@com@@UEBAHXZ 00000001800027b0 f i electron_sdk.pb.obj
 0001:000017b0       ?GetCachedSize@RedoParams@proto@sdk@electron@com@@UEBAHXZ 00000001800027b0 f i electron_sdk.pb.obj
 0001:000017b0       ?GetCachedSize@RemoveBGImageParams@proto@sdk@electron@com@@UEBAHXZ 00000001800027b0 f i electron_sdk.pb.obj
 0001:000017b0       ?GetCachedSize@RemoveBGVideoParams@proto@sdk@electron@com@@UEBAHXZ 00000001800027b0 f i electron_sdk.pb.obj
 0001:000017b0       ?GetCachedSize@RemoveRawLiveStreamPrivilegeParams@proto@sdk@electron@com@@UEBAHXZ 00000001800027b0 f i electron_sdk.pb.obj
 0001:000017b0       ?GetCachedSize@RenameUserParams@proto@sdk@electron@com@@UEBAHXZ 00000001800027b0 f i electron_sdk.pb.obj
 0001:000017b0       ?GetCachedSize@RequestRawLiveStreamParams@proto@sdk@electron@com@@UEBAHXZ 00000001800027b0 f i electron_sdk.pb.obj
 0001:000017b0       ?GetCachedSize@RetrieveParams@proto@sdk@electron@com@@UEBAHXZ 00000001800027b0 f i electron_sdk.pb.obj
 0001:000017b0       ?GetCachedSize@SSOLoginWithWebUriProtocolParams@proto@sdk@electron@com@@UEBAHXZ 00000001800027b0 f i electron_sdk.pb.obj
 0001:000017b0       ?GetCachedSize@ScheduleMeetingWithWndParams@proto@sdk@electron@com@@UEBAHXZ 00000001800027b0 f i electron_sdk.pb.obj
 0001:000017b0       ?GetCachedSize@SelectMicParams@proto@sdk@electron@com@@UEBAHXZ 00000001800027b0 f i electron_sdk.pb.obj
 0001:000017b0       ?GetCachedSize@SelectSpeakerParams@proto@sdk@electron@com@@UEBAHXZ 00000001800027b0 f i electron_sdk.pb.obj
 0001:000017b0       ?GetCachedSize@SelectVideoCameraParams@proto@sdk@electron@com@@UEBAHXZ 00000001800027b0 f i electron_sdk.pb.obj
 0001:000017b0       ?GetCachedSize@SendQueryQuestionParams@proto@sdk@electron@com@@UEBAHXZ 00000001800027b0 f i electron_sdk.pb.obj
 0001:000017b0       ?GetCachedSize@SetAttendeeViewModeParams@proto@sdk@electron@com@@UEBAHXZ 00000001800027b0 f i electron_sdk.pb.obj
 0001:000017b0       ?GetCachedSize@SetAudioShareModeParams@proto@sdk@electron@com@@UEBAHXZ 00000001800027b0 f i electron_sdk.pb.obj
 0001:000017b0       ?GetCachedSize@SetBottomFloatToolBarWndVisibilityParams@proto@sdk@electron@com@@UEBAHXZ 00000001800027b0 f i electron_sdk.pb.obj
 0001:000017b0       ?GetCachedSize@SetChatMessageBuilderParams@proto@sdk@electron@com@@UEBAHXZ 00000001800027b0 f i electron_sdk.pb.obj
 0001:000017b0       ?GetCachedSize@SetColorParams@proto@sdk@electron@com@@UEBAHXZ 00000001800027b0 f i electron_sdk.pb.obj
 0001:000017b0       ?GetCachedSize@SetCustomizedCloudRecordingMgrUrlParams@proto@sdk@electron@com@@UEBAHXZ 00000001800027b0 f i electron_sdk.pb.obj
 0001:000017b0       ?GetCachedSize@SetCustomizedInvitationDomainParams@proto@sdk@electron@com@@UEBAHXZ 00000001800027b0 f i electron_sdk.pb.obj
 0001:000017b0       ?GetCachedSize@SetCustomizedPollingUrlParams@proto@sdk@electron@com@@UEBAHXZ 00000001800027b0 f i electron_sdk.pb.obj
 0001:000017b0       ?GetCachedSize@SetDashboardViewSizeParams@proto@sdk@electron@com@@UEBAHXZ 00000001800027b0 f i electron_sdk.pb.obj
 0001:000017b0       ?GetCachedSize@SetDefaultCellPhoneInfoParams@proto@sdk@electron@com@@UEBAHXZ 00000001800027b0 f i electron_sdk.pb.obj
 0001:000017b0       ?GetCachedSize@SetDirectShareMonitorIDParams@proto@sdk@electron@com@@UEBAHXZ 00000001800027b0 f i electron_sdk.pb.obj
 0001:000017b0       ?GetCachedSize@SetDocDashboardSizeParams@proto@sdk@electron@com@@UEBAHXZ 00000001800027b0 f i electron_sdk.pb.obj
 0001:000017b0       ?GetCachedSize@SetDocsCreateOptionParams@proto@sdk@electron@com@@UEBAHXZ 00000001800027b0 f i electron_sdk.pb.obj
 0001:000017b0       ?GetCachedSize@SetDocsShareOptionParams@proto@sdk@electron@com@@UEBAHXZ 00000001800027b0 f i electron_sdk.pb.obj
 0001:000017b0       ?GetCachedSize@SetDocsViewPosParams@proto@sdk@electron@com@@UEBAHXZ 00000001800027b0 f i electron_sdk.pb.obj
 0001:000017b0       ?GetCachedSize@SetDocsViewSizeParams@proto@sdk@electron@com@@UEBAHXZ 00000001800027b0 f i electron_sdk.pb.obj
 0001:000017b0       ?GetCachedSize@SetEchoCancellationLevelParams@proto@sdk@electron@com@@UEBAHXZ 00000001800027b0 f i electron_sdk.pb.obj
 0001:000017b0       ?GetCachedSize@SetEnableOptionParams@proto@sdk@electron@com@@UEBAHXZ 00000001800027b0 f i electron_sdk.pb.obj
 0001:000017b0       ?GetCachedSize@SetFloatVideoPosParams@proto@sdk@electron@com@@UEBAHXZ 00000001800027b0 f i electron_sdk.pb.obj
 0001:000017b0       ?GetCachedSize@SetFloatVideoWndVisibilityParams@proto@sdk@electron@com@@UEBAHXZ 00000001800027b0 f i electron_sdk.pb.obj
 0001:000017b0       ?GetCachedSize@SetLineWidthParams@proto@sdk@electron@com@@UEBAHXZ 00000001800027b0 f i electron_sdk.pb.obj
 0001:000017b0       ?GetCachedSize@SetMaxDurationForOnlyHostInMeetingParams@proto@sdk@electron@com@@UEBAHXZ 00000001800027b0 f i electron_sdk.pb.obj
 0001:000017b0       ?GetCachedSize@SetMeetingTopicParam@proto@sdk@electron@com@@UEBAHXZ 00000001800027b0 f i electron_sdk.pb.obj
 0001:000017b0       ?GetCachedSize@SetMeetingTopicParams@proto@sdk@electron@com@@UEBAHXZ 00000001800027b0 f i electron_sdk.pb.obj
 0001:000017b0       ?GetCachedSize@SetMeetingUIPosParams@proto@sdk@electron@com@@UEBAHXZ 00000001800027b0 f i electron_sdk.pb.obj
 0001:000017b0       ?GetCachedSize@SetMicVolParams@proto@sdk@electron@com@@UEBAHXZ 00000001800027b0 f i electron_sdk.pb.obj
 0001:000017b0       ?GetCachedSize@SetOwnerWindowParams@proto@sdk@electron@com@@UEBAHXZ 00000001800027b0 f i electron_sdk.pb.obj
 0001:000017b0       ?GetCachedSize@SetPanelistChatPrivilegeParams@proto@sdk@electron@com@@UEBAHXZ 00000001800027b0 f i electron_sdk.pb.obj
 0001:000017b0       ?GetCachedSize@SetParticipantsChatPrivilegeParams@proto@sdk@electron@com@@UEBAHXZ 00000001800027b0 f i electron_sdk.pb.obj
 0001:000017b0       ?GetCachedSize@SetPipeInitParams@proto@sdk@electron@com@@UEBAHXZ 00000001800027b0 f i electron_sdk.pb.obj
 0001:000017b0       ?GetCachedSize@SetRawDataResolutionParams@proto@sdk@electron@com@@UEBAHXZ 00000001800027b0 f i electron_sdk.pb.obj
 0001:000017b0       ?GetCachedSize@SetRecordingPathParams@proto@sdk@electron@com@@UEBAHXZ 00000001800027b0 f i electron_sdk.pb.obj
 0001:000017b0       ?GetCachedSize@SetSharingToolBarVisibilityParams@proto@sdk@electron@com@@UEBAHXZ 00000001800027b0 f i electron_sdk.pb.obj
 0001:000017b0       ?GetCachedSize@SetShowAudioUseComputerSoundChkboxParams@proto@sdk@electron@com@@UEBAHXZ 00000001800027b0 f i electron_sdk.pb.obj
 0001:000017b0       ?GetCachedSize@SetShowCallInTabParams@proto@sdk@electron@com@@UEBAHXZ 00000001800027b0 f i electron_sdk.pb.obj
 0001:000017b0       ?GetCachedSize@SetShowCallMeTabParams@proto@sdk@electron@com@@UEBAHXZ 00000001800027b0 f i electron_sdk.pb.obj
 0001:000017b0       ?GetCachedSize@SetShowH323SubTabPageParams@proto@sdk@electron@com@@UEBAHXZ 00000001800027b0 f i electron_sdk.pb.obj
 0001:000017b0       ?GetCachedSize@SetShowInviteDlgTabPageParams@proto@sdk@electron@com@@UEBAHXZ 00000001800027b0 f i electron_sdk.pb.obj
 0001:000017b0       ?GetCachedSize@SetShowVideoOptimizeChkboxParams@proto@sdk@electron@com@@UEBAHXZ 00000001800027b0 f i electron_sdk.pb.obj
 0001:000017b0       ?GetCachedSize@SetSpeakerVolParams@proto@sdk@electron@com@@UEBAHXZ 00000001800027b0 f i electron_sdk.pb.obj
 0001:000017b0       ?GetCachedSize@SetToolParams@proto@sdk@electron@com@@UEBAHXZ 00000001800027b0 f i electron_sdk.pb.obj
 0001:000017b0       ?GetCachedSize@SetUsingGreenScreenParams@proto@sdk@electron@com@@UEBAHXZ 00000001800027b0 f i electron_sdk.pb.obj
 0001:000017b0       ?GetCachedSize@SetVideoQualityPreferenceParams@proto@sdk@electron@com@@UEBAHXZ 00000001800027b0 f i electron_sdk.pb.obj
 0001:000017b0       ?GetCachedSize@SetWallpaperParams@proto@sdk@electron@com@@UEBAHXZ 00000001800027b0 f i electron_sdk.pb.obj
 0001:000017b0       ?GetCachedSize@SetWhiteboardCreateOptionParams@proto@sdk@electron@com@@UEBAHXZ 00000001800027b0 f i electron_sdk.pb.obj
 0001:000017b0       ?GetCachedSize@SetWhiteboardShareOptionParams@proto@sdk@electron@com@@UEBAHXZ 00000001800027b0 f i electron_sdk.pb.obj
 0001:000017b0       ?GetCachedSize@SetWhiteboardViewPosParams@proto@sdk@electron@com@@UEBAHXZ 00000001800027b0 f i electron_sdk.pb.obj
 0001:000017b0       ?GetCachedSize@SetWhiteboardViewSizeParams@proto@sdk@electron@com@@UEBAHXZ 00000001800027b0 f i electron_sdk.pb.obj
 0001:000017b0       ?GetCachedSize@ShowAANPanelParams@proto@sdk@electron@com@@UEBAHXZ 00000001800027b0 f i electron_sdk.pb.obj
 0001:000017b0       ?GetCachedSize@ShowBottomFloatToolbarWndParams@proto@sdk@electron@com@@UEBAHXZ 00000001800027b0 f i electron_sdk.pb.obj
 0001:000017b0       ?GetCachedSize@ShowChatDlgParams@proto@sdk@electron@com@@UEBAHXZ 00000001800027b0 f i electron_sdk.pb.obj
 0001:000017b0       ?GetCachedSize@ShowDashboardViewParams@proto@sdk@electron@com@@UEBAHXZ 00000001800027b0 f i electron_sdk.pb.obj
 0001:000017b0       ?GetCachedSize@ShowDocsDashboardParams@proto@sdk@electron@com@@UEBAHXZ 00000001800027b0 f i electron_sdk.pb.obj
 0001:000017b0       ?GetCachedSize@ShowDocsViewWindowParams@proto@sdk@electron@com@@UEBAHXZ 00000001800027b0 f i electron_sdk.pb.obj
 0001:000017b0       ?GetCachedSize@ShowIndicatorPanelParams@proto@sdk@electron@com@@UEBAHXZ 00000001800027b0 f i electron_sdk.pb.obj
 0001:000017b0       ?GetCachedSize@ShowPanelParams@proto@sdk@electron@com@@UEBAHXZ 00000001800027b0 f i electron_sdk.pb.obj
 0001:000017b0       ?GetCachedSize@ShowParticipantsListWndParams@proto@sdk@electron@com@@UEBAHXZ 00000001800027b0 f i electron_sdk.pb.obj
 0001:000017b0       ?GetCachedSize@ShowPreOrNextPageVideoParams@proto@sdk@electron@com@@UEBAHXZ 00000001800027b0 f i electron_sdk.pb.obj
 0001:000017b0       ?GetCachedSize@ShowSettingDlgParams@proto@sdk@electron@com@@UEBAHXZ 00000001800027b0 f i electron_sdk.pb.obj
 0001:000017b0       ?GetCachedSize@ShowSharingFrameWindowsParams@proto@sdk@electron@com@@UEBAHXZ 00000001800027b0 f i electron_sdk.pb.obj
 0001:000017b0       ?GetCachedSize@ShowSharingToolbarParams@proto@sdk@electron@com@@UEBAHXZ 00000001800027b0 f i electron_sdk.pb.obj
 0001:000017b0       ?GetCachedSize@SpotlightVideoParams@proto@sdk@electron@com@@UEBAHXZ 00000001800027b0 f i electron_sdk.pb.obj
 0001:000017b0       ?GetCachedSize@StartAnnotationParams@proto@sdk@electron@com@@UEBAHXZ 00000001800027b0 f i electron_sdk.pb.obj
 0001:000017b0       ?GetCachedSize@StartAppShareParams@proto@sdk@electron@com@@UEBAHXZ 00000001800027b0 f i electron_sdk.pb.obj
 0001:000017b0       ?GetCachedSize@StartLiveStreamParams@proto@sdk@electron@com@@UEBAHXZ 00000001800027b0 f i electron_sdk.pb.obj
 0001:000017b0       ?GetCachedSize@StartLiveStreamWithSteamingURLParams@proto@sdk@electron@com@@UEBAHXZ 00000001800027b0 f i electron_sdk.pb.obj
 0001:000017b0       ?GetCachedSize@StartMeetingParams@proto@sdk@electron@com@@UEBAHXZ 00000001800027b0 f i electron_sdk.pb.obj
 0001:000017b0       ?GetCachedSize@StartMonitorShareParams@proto@sdk@electron@com@@UEBAHXZ 00000001800027b0 f i electron_sdk.pb.obj
 0001:000017b0       ?GetCachedSize@StartRawLiveStreamParams@proto@sdk@electron@com@@UEBAHXZ 00000001800027b0 f i electron_sdk.pb.obj
 0001:000017b0       ?GetCachedSize@StartReceiveParams@proto@sdk@electron@com@@UEBAHXZ 00000001800027b0 f i electron_sdk.pb.obj
 0001:000017b0       ?GetCachedSize@StartWithoutLoginParams@proto@sdk@electron@com@@UEBAHXZ 00000001800027b0 f i electron_sdk.pb.obj
 0001:000017b0       ?GetCachedSize@StopAnnotationParams@proto@sdk@electron@com@@UEBAHXZ 00000001800027b0 f i electron_sdk.pb.obj
 0001:000017b0       ?GetCachedSize@SubscribeParams@proto@sdk@electron@com@@UEBAHXZ 00000001800027b0 f i electron_sdk.pb.obj
 0001:000017b0       ?GetCachedSize@SwapToShowShareViewOrVideoParams@proto@sdk@electron@com@@UEBAHXZ 00000001800027b0 f i electron_sdk.pb.obj
 0001:000017b0       ?GetCachedSize@SwitchMinimizeUIMode4FirstScreenMeetingUIWndParams@proto@sdk@electron@com@@UEBAHXZ 00000001800027b0 f i electron_sdk.pb.obj
 0001:000017b0       ?GetCachedSize@SwitchSplitScreenModeParams@proto@sdk@electron@com@@UEBAHXZ 00000001800027b0 f i electron_sdk.pb.obj
 0001:000017b0       ?GetCachedSize@TransferFileParams@proto@sdk@electron@com@@UEBAHXZ 00000001800027b0 f i electron_sdk.pb.obj
 0001:000017b0       ?GetCachedSize@TryWithMeetingNumberParams@proto@sdk@electron@com@@UEBAHXZ 00000001800027b0 f i electron_sdk.pb.obj
 0001:000017b0       ?GetCachedSize@TryWithPairingCodeParams@proto@sdk@electron@com@@UEBAHXZ 00000001800027b0 f i electron_sdk.pb.obj
 0001:000017b0       ?GetCachedSize@TurnOffAeroModeInSharingParams@proto@sdk@electron@com@@UEBAHXZ 00000001800027b0 f i electron_sdk.pb.obj
 0001:000017b0       ?GetCachedSize@TurnOffAllAICompanionsParams@proto@sdk@electron@com@@UEBAHXZ 00000001800027b0 f i electron_sdk.pb.obj
 0001:000017b0       ?GetCachedSize@UnMuteVideoParams@proto@sdk@electron@com@@UEBAHXZ 00000001800027b0 f i electron_sdk.pb.obj
 0001:000017b0       ?GetCachedSize@UnSubscribeParams@proto@sdk@electron@com@@UEBAHXZ 00000001800027b0 f i electron_sdk.pb.obj
 0001:000017b0       ?GetCachedSize@UndoParams@proto@sdk@electron@com@@UEBAHXZ 00000001800027b0 f i electron_sdk.pb.obj
 0001:000017b0       ?GetCachedSize@UnmuteAudioParams@proto@sdk@electron@com@@UEBAHXZ 00000001800027b0 f i electron_sdk.pb.obj
 0001:000017b0       ?GetCachedSize@UseBGImageParams@proto@sdk@electron@com@@UEBAHXZ 00000001800027b0 f i electron_sdk.pb.obj
 0001:000017b0       ?GetCachedSize@UseBGVideoParams@proto@sdk@electron@com@@UEBAHXZ 00000001800027b0 f i electron_sdk.pb.obj
 0001:000017b0       ?GetCachedSize@VerifyParams@proto@sdk@electron@com@@UEBAHXZ 00000001800027b0 f i electron_sdk.pb.obj
 0001:000017b0       ?GetCachedSize@VoteQuestionParams@proto@sdk@electron@com@@UEBAHXZ 00000001800027b0 f i electron_sdk.pb.obj
 0001:000017b0       ?GetCachedSize@WebinarAttendeeParams@proto@sdk@electron@com@@UEBAHXZ 00000001800027b0 f i electron_sdk.pb.obj
 0001:000017c0       ?New@AuthWithJwtTokenParams@proto@sdk@electron@com@@UEBAPEAV12345@PEAVArena@protobuf@google@@@Z 00000001800027c0 f i electron_sdk.pb.obj
 0001:000017d0       ?New@LoginWithSSOTokenParams@proto@sdk@electron@com@@UEBAPEAV12345@PEAVArena@protobuf@google@@@Z 00000001800027d0 f i electron_sdk.pb.obj
 0001:000017e0       ?New@StartMeetingParams@proto@sdk@electron@com@@UEBAPEAV12345@PEAVArena@protobuf@google@@@Z 00000001800027e0 f i electron_sdk.pb.obj
 0001:000017f0       ?New@StartWithoutLoginParams@proto@sdk@electron@com@@UEBAPEAV12345@PEAVArena@protobuf@google@@@Z 00000001800027f0 f i electron_sdk.pb.obj
 0001:00001800       ?New@JoinMeetingParams@proto@sdk@electron@com@@UEBAPEAV12345@PEAVArena@protobuf@google@@@Z 0000000180002800 f i electron_sdk.pb.obj
 0001:00001810       ?New@JoinWithoutLoginParams@proto@sdk@electron@com@@UEBAPEAV12345@PEAVArena@protobuf@google@@@Z 0000000180002810 f i electron_sdk.pb.obj
 0001:00001820       ?New@LeaveMeetingParams@proto@sdk@electron@com@@UEBAPEAV12345@PEAVArena@protobuf@google@@@Z 0000000180002820 f i electron_sdk.pb.obj
 0001:00001830       ?New@SetMeetingTopicParam@proto@sdk@electron@com@@UEBAPEAV12345@PEAVArena@protobuf@google@@@Z 0000000180002830 f i electron_sdk.pb.obj
 0001:00001840       ?New@HandleZoomWebUriProtocolActionParams@proto@sdk@electron@com@@UEBAPEAV12345@PEAVArena@protobuf@google@@@Z 0000000180002840 f i electron_sdk.pb.obj
 0001:00001850       ?New@ShowChatDlgParams@proto@sdk@electron@com@@UEBAPEAV12345@PEAVArena@protobuf@google@@@Z 0000000180002850 f i electron_sdk.pb.obj
 0001:00001860       ?New@EnterFullScreenParams@proto@sdk@electron@com@@UEBAPEAV12345@PEAVArena@protobuf@google@@@Z 0000000180002860 f i electron_sdk.pb.obj
 0001:00001870       ?New@ExitFullScreenParams@proto@sdk@electron@com@@UEBAPEAV12345@PEAVArena@protobuf@google@@@Z 0000000180002870 f i electron_sdk.pb.obj
 0001:00001880       ?New@MoveFloatVideoWndParams@proto@sdk@electron@com@@UEBAPEAV12345@PEAVArena@protobuf@google@@@Z 0000000180002880 f i electron_sdk.pb.obj
 0001:00001890       ?New@ShowSharingToolbarParams@proto@sdk@electron@com@@UEBAPEAV12345@PEAVArena@protobuf@google@@@Z 0000000180002890 f i electron_sdk.pb.obj
 0001:000018a0       ?New@ChangeFloatToActiveSpkVideoSizeParams@proto@sdk@electron@com@@UEBAPEAV12345@PEAVArena@protobuf@google@@@Z 00000001800028a0 f i electron_sdk.pb.obj
 0001:000018b0       ?New@ShowParticipantsListWndParams@proto@sdk@electron@com@@UEBAPEAV12345@PEAVArena@protobuf@google@@@Z 00000001800028b0 f i electron_sdk.pb.obj
 0001:000018c0       ?New@ShowBottomFloatToolbarWndParams@proto@sdk@electron@com@@UEBAPEAV12345@PEAVArena@protobuf@google@@@Z 00000001800028c0 f i electron_sdk.pb.obj
 0001:000018d0       ?New@ShowPreOrNextPageVideoParams@proto@sdk@electron@com@@UEBAPEAV12345@PEAVArena@protobuf@google@@@Z 00000001800028d0 f i electron_sdk.pb.obj
 0001:000018e0       ?New@ShowSharingFrameWindowsParams@proto@sdk@electron@com@@UEBAPEAV12345@PEAVArena@protobuf@google@@@Z 00000001800028e0 f i electron_sdk.pb.obj
 0001:000018f0       ?New@SwitchSplitScreenModeParams@proto@sdk@electron@com@@UEBAPEAV12345@PEAVArena@protobuf@google@@@Z 00000001800028f0 f i electron_sdk.pb.obj
 0001:00001900       ?New@SwitchMinimizeUIMode4FirstScreenMeetingUIWndParams@proto@sdk@electron@com@@UEBAPEAV12345@PEAVArena@protobuf@google@@@Z 0000000180002900 f i electron_sdk.pb.obj
 0001:00001910       ?New@SwapToShowShareViewOrVideoParams@proto@sdk@electron@com@@UEBAPEAV12345@PEAVArena@protobuf@google@@@Z 0000000180002910 f i electron_sdk.pb.obj
 0001:00001920       ?New@ShowSettingDlgParams@proto@sdk@electron@com@@UEBAPEAV12345@PEAVArena@protobuf@google@@@Z 0000000180002920 f i electron_sdk.pb.obj
 0001:00001930       ?New@ScheduleMeetingWithWndParams@proto@sdk@electron@com@@UEBAPEAV12345@PEAVArena@protobuf@google@@@Z 0000000180002930 f i electron_sdk.pb.obj
 0001:00001940       ?New@EditMeetingParams@proto@sdk@electron@com@@UEBAPEAV12345@PEAVArena@protobuf@google@@@Z 0000000180002940 f i electron_sdk.pb.obj
 0001:00001950       ?New@EditMeetingWithWndParams@proto@sdk@electron@com@@UEBAPEAV12345@PEAVArena@protobuf@google@@@Z 0000000180002950 f i electron_sdk.pb.obj
 0001:00001960       ?New@DeleteMeetingParams@proto@sdk@electron@com@@UEBAPEAV12345@PEAVArena@protobuf@google@@@Z 0000000180002960 f i electron_sdk.pb.obj
 0001:00001970       ?New@AddCustomizedPictureResourceParams@proto@sdk@electron@com@@UEBAPEAV12345@PEAVArena@protobuf@google@@@Z 0000000180002970 f i electron_sdk.pb.obj
 0001:00001980       ?New@AddCustomizedStringResourceParams@proto@sdk@electron@com@@UEBAPEAV12345@PEAVArena@protobuf@google@@@Z 0000000180002980 f i electron_sdk.pb.obj
 0001:00001990       ?New@AddCustomizedURLResourceParams@proto@sdk@electron@com@@UEBAPEAV12345@PEAVArena@protobuf@google@@@Z 0000000180002990 f i electron_sdk.pb.obj
 0001:000019a0       ?New@TryWithMeetingNumberParams@proto@sdk@electron@com@@UEBAPEAV12345@PEAVArena@protobuf@google@@@Z 00000001800029a0 f i electron_sdk.pb.obj
 0001:000019b0       ?New@TryWithPairingCodeParams@proto@sdk@electron@com@@UEBAPEAV12345@PEAVArena@protobuf@google@@@Z 00000001800029b0 f i electron_sdk.pb.obj
 0001:000019c0       ?New@ShowPanelParams@proto@sdk@electron@com@@UEBAPEAV12345@PEAVArena@protobuf@google@@@Z 00000001800029c0 f i electron_sdk.pb.obj
 0001:000019d0       ?New@StartAnnotationParams@proto@sdk@electron@com@@UEBAPEAV12345@PEAVArena@protobuf@google@@@Z 00000001800029d0 f i electron_sdk.pb.obj
 0001:000019e0       ?New@StopAnnotationParams@proto@sdk@electron@com@@UEBAPEAV12345@PEAVArena@protobuf@google@@@Z 00000001800029e0 f i electron_sdk.pb.obj
 0001:000019f0       ?New@SetToolParams@proto@sdk@electron@com@@UEBAPEAV12345@PEAVArena@protobuf@google@@@Z 00000001800029f0 f i electron_sdk.pb.obj
 0001:00001a00       ?New@ClearAnnotationParams@proto@sdk@electron@com@@UEBAPEAV12345@PEAVArena@protobuf@google@@@Z 0000000180002a00 f i electron_sdk.pb.obj
 0001:00001a10       ?New@SetColorParams@proto@sdk@electron@com@@UEBAPEAV12345@PEAVArena@protobuf@google@@@Z 0000000180002a10 f i electron_sdk.pb.obj
 0001:00001a20       ?New@SetLineWidthParams@proto@sdk@electron@com@@UEBAPEAV12345@PEAVArena@protobuf@google@@@Z 0000000180002a20 f i electron_sdk.pb.obj
 0001:00001a30       ?New@UndoParams@proto@sdk@electron@com@@UEBAPEAV12345@PEAVArena@protobuf@google@@@Z 0000000180002a30 f i electron_sdk.pb.obj
 0001:00001a40       ?New@RedoParams@proto@sdk@electron@com@@UEBAPEAV12345@PEAVArena@protobuf@google@@@Z 0000000180002a40 f i electron_sdk.pb.obj
 0001:00001a50       ?New@MuteAudioParams@proto@sdk@electron@com@@UEBAPEAV12345@PEAVArena@protobuf@google@@@Z 0000000180002a50 f i electron_sdk.pb.obj
 0001:00001a60       ?New@UnmuteAudioParams@proto@sdk@electron@com@@UEBAPEAV12345@PEAVArena@protobuf@google@@@Z 0000000180002a60 f i electron_sdk.pb.obj
 0001:00001a70       ?New@EnablePlayChimeWhenEnterOrExitParams@proto@sdk@electron@com@@UEBAPEAV12345@PEAVArena@protobuf@google@@@Z 0000000180002a70 f i electron_sdk.pb.obj
 0001:00001a80       ?New@EnableMuteOnEntryParams@proto@sdk@electron@com@@UEBAPEAV12345@PEAVArena@protobuf@google@@@Z 0000000180002a80 f i electron_sdk.pb.obj
 0001:00001a90       ?New@EnablePlayMeetingAudioParams@proto@sdk@electron@com@@UEBAPEAV12345@PEAVArena@protobuf@google@@@Z 0000000180002a90 f i electron_sdk.pb.obj
 0001:00001aa0       ?New@EnableInviteButtonOnMeetingUIParams@proto@sdk@electron@com@@UEBAPEAV12345@PEAVArena@protobuf@google@@@Z 0000000180002aa0 f i electron_sdk.pb.obj
 0001:00001ab0       ?New@SetFloatVideoPosParams@proto@sdk@electron@com@@UEBAPEAV12345@PEAVArena@protobuf@google@@@Z 0000000180002ab0 f i electron_sdk.pb.obj
 0001:00001ac0       ?New@SetBottomFloatToolBarWndVisibilityParams@proto@sdk@electron@com@@UEBAPEAV12345@PEAVArena@protobuf@google@@@Z 0000000180002ac0 f i electron_sdk.pb.obj
 0001:00001ad0       ?New@SetSharingToolBarVisibilityParams@proto@sdk@electron@com@@UEBAPEAV12345@PEAVArena@protobuf@google@@@Z 0000000180002ad0 f i electron_sdk.pb.obj
 0001:00001ae0       ?New@SetDirectShareMonitorIDParams@proto@sdk@electron@com@@UEBAPEAV12345@PEAVArena@protobuf@google@@@Z 0000000180002ae0 f i electron_sdk.pb.obj
 0001:00001af0       ?New@SetMeetingUIPosParams@proto@sdk@electron@com@@UEBAPEAV12345@PEAVArena@protobuf@google@@@Z 0000000180002af0 f i electron_sdk.pb.obj
 0001:00001b00       ?New@DisableWaitingForHostDialogParams@proto@sdk@electron@com@@UEBAPEAV12345@PEAVArena@protobuf@google@@@Z 0000000180002b00 f i electron_sdk.pb.obj
 0001:00001b10       ?New@DisablePopupMeetingWrongPSWDlgParams@proto@sdk@electron@com@@UEBAPEAV12345@PEAVArena@protobuf@google@@@Z 0000000180002b10 f i electron_sdk.pb.obj
 0001:00001b20       ?New@EnableAutoEndOtherMeetingWhenStartMeetingParams@proto@sdk@electron@com@@UEBAPEAV12345@PEAVArena@protobuf@google@@@Z 0000000180002b20 f i electron_sdk.pb.obj
 0001:00001b30       ?New@EnableLButtonDBClick4SwitchFullScreenModeParams@proto@sdk@electron@com@@UEBAPEAV12345@PEAVArena@protobuf@google@@@Z 0000000180002b30 f i electron_sdk.pb.obj
 0001:00001b40       ?New@SetFloatVideoWndVisibilityParams@proto@sdk@electron@com@@UEBAPEAV12345@PEAVArena@protobuf@google@@@Z 0000000180002b40 f i electron_sdk.pb.obj
 0001:00001b50       ?New@PrePopulateWebinarRegistrationInfoParams@proto@sdk@electron@com@@UEBAPEAV12345@PEAVArena@protobuf@google@@@Z 0000000180002b50 f i electron_sdk.pb.obj
 0001:00001b60       ?New@EnableAutoAdjustSpeakerVolumeWhenJoinAudioParams@proto@sdk@electron@com@@UEBAPEAV12345@PEAVArena@protobuf@google@@@Z 0000000180002b60 f i electron_sdk.pb.obj
 0001:00001b70       ?New@EnableAutoAdjustMicVolumeWhenJoinAudioParams@proto@sdk@electron@com@@UEBAPEAV12345@PEAVArena@protobuf@google@@@Z 0000000180002b70 f i electron_sdk.pb.obj
 0001:00001b80       ?New@ConfigDSCPParams@proto@sdk@electron@com@@UEBAPEAV12345@PEAVArena@protobuf@google@@@Z 0000000180002b80 f i electron_sdk.pb.obj
 0001:00001b90       ?New@EnableHIdeFullPhoneNumber4PureCallinUserParams@proto@sdk@electron@com@@UEBAPEAV12345@PEAVArena@protobuf@google@@@Z 0000000180002b90 f i electron_sdk.pb.obj
 0001:00001ba0       ?New@EnableShareIOSDeviceParams@proto@sdk@electron@com@@UEBAPEAV12345@PEAVArena@protobuf@google@@@Z 0000000180002ba0 f i electron_sdk.pb.obj
 0001:00001bb0       ?New@EnableShareWhiteBoardParams@proto@sdk@electron@com@@UEBAPEAV12345@PEAVArena@protobuf@google@@@Z 0000000180002bb0 f i electron_sdk.pb.obj
 0001:00001bc0       ?New@EnableLengthLimitationOfMeetingNumberParams@proto@sdk@electron@com@@UEBAPEAV12345@PEAVArena@protobuf@google@@@Z 0000000180002bc0 f i electron_sdk.pb.obj
 0001:00001bd0       ?New@ForceDisableMultiShareParams@proto@sdk@electron@com@@UEBAPEAV12345@PEAVArena@protobuf@google@@@Z 0000000180002bd0 f i electron_sdk.pb.obj
 0001:00001be0       ?New@EnableZoomDocsParams@proto@sdk@electron@com@@UEBAPEAV12345@PEAVArena@protobuf@google@@@Z 0000000180002be0 f i electron_sdk.pb.obj
 0001:00001bf0       ?New@EnableLocalRecordingConverProgressBarDialogParams@proto@sdk@electron@com@@UEBAPEAV12345@PEAVArena@protobuf@google@@@Z 0000000180002bf0 f i electron_sdk.pb.obj
 0001:00001c00       ?New@SetMaxDurationForOnlyHostInMeetingParams@proto@sdk@electron@com@@UEBAPEAV12345@PEAVArena@protobuf@google@@@Z 0000000180002c00 f i electron_sdk.pb.obj
 0001:00001c10       ?New@EnableApproveRemoteControlDlgParams@proto@sdk@electron@com@@UEBAPEAV12345@PEAVArena@protobuf@google@@@Z 0000000180002c10 f i electron_sdk.pb.obj
 0001:00001c20       ?New@EnableDeclineRemoteControlResponseDlgParams@proto@sdk@electron@com@@UEBAPEAV12345@PEAVArena@protobuf@google@@@Z 0000000180002c20 f i electron_sdk.pb.obj
 0001:00001c30       ?New@EnableLeaveMeetingOptionForHostParams@proto@sdk@electron@com@@UEBAPEAV12345@PEAVArena@protobuf@google@@@Z 0000000180002c30 f i electron_sdk.pb.obj
 0001:00001c40       ?New@EnableVideoButtonOnMeetingUIParams@proto@sdk@electron@com@@UEBAPEAV12345@PEAVArena@protobuf@google@@@Z 0000000180002c40 f i electron_sdk.pb.obj
 0001:00001c50       ?New@EnableAudioButtonOnMeetingUIParams@proto@sdk@electron@com@@UEBAPEAV12345@PEAVArena@protobuf@google@@@Z 0000000180002c50 f i electron_sdk.pb.obj
 0001:00001c60       ?New@EnableEnterAndExitFullScreenButtonOnMeetingUIParams@proto@sdk@electron@com@@UEBAPEAV12345@PEAVArena@protobuf@google@@@Z 0000000180002c60 f i electron_sdk.pb.obj
 0001:00001c70       ?New@RedirectClickShareBTNEventParams@proto@sdk@electron@com@@UEBAPEAV12345@PEAVArena@protobuf@google@@@Z 0000000180002c70 f i electron_sdk.pb.obj
 0001:00001c80       ?New@RedirectClickEndMeetingBTNEventParams@proto@sdk@electron@com@@UEBAPEAV12345@PEAVArena@protobuf@google@@@Z 0000000180002c80 f i electron_sdk.pb.obj
 0001:00001c90       ?New@RedirectFreeMeetingEndingReminderDlgParams@proto@sdk@electron@com@@UEBAPEAV12345@PEAVArena@protobuf@google@@@Z 0000000180002c90 f i electron_sdk.pb.obj
 0001:00001ca0       ?New@RedirectClickCustomLiveStreamMenuEventParams@proto@sdk@electron@com@@UEBAPEAV12345@PEAVArena@protobuf@google@@@Z 0000000180002ca0 f i electron_sdk.pb.obj
 0001:00001cb0       ?New@RedirectClickParticipantListBTNEventParams@proto@sdk@electron@com@@UEBAPEAV12345@PEAVArena@protobuf@google@@@Z 0000000180002cb0 f i electron_sdk.pb.obj
 0001:00001cc0       ?New@RedirectClickCCBTNEventParams@proto@sdk@electron@com@@UEBAPEAV12345@PEAVArena@protobuf@google@@@Z 0000000180002cc0 f i electron_sdk.pb.obj
 0001:00001cd0       ?New@RedirectClickAudioBTNEventParams@proto@sdk@electron@com@@UEBAPEAV12345@PEAVArena@protobuf@google@@@Z 0000000180002cd0 f i electron_sdk.pb.obj
 0001:00001ce0       ?New@RedirectClickAudioMenuBTNEventParams@proto@sdk@electron@com@@UEBAPEAV12345@PEAVArena@protobuf@google@@@Z 0000000180002ce0 f i electron_sdk.pb.obj
 0001:00001cf0       ?New@RedirectMeetingWarningMsgParams@proto@sdk@electron@com@@UEBAPEAV12345@PEAVArena@protobuf@google@@@Z 0000000180002cf0 f i electron_sdk.pb.obj
 0001:00001d00       ?New@EnableToolTipsShowParams@proto@sdk@electron@com@@UEBAPEAV12345@PEAVArena@protobuf@google@@@Z 0000000180002d00 f i electron_sdk.pb.obj
 0001:00001d10       ?New@EnableAirplayInstructionWindowParams@proto@sdk@electron@com@@UEBAPEAV12345@PEAVArena@protobuf@google@@@Z 0000000180002d10 f i electron_sdk.pb.obj
 0001:00001d20       ?New@EnableClaimHostFeatureParams@proto@sdk@electron@com@@UEBAPEAV12345@PEAVArena@protobuf@google@@@Z 0000000180002d20 f i electron_sdk.pb.obj
 0001:00001d30       ?New@EnableAutoHideJoinAudioDialogParams@proto@sdk@electron@com@@UEBAPEAV12345@PEAVArena@protobuf@google@@@Z 0000000180002d30 f i electron_sdk.pb.obj
 0001:00001d40       ?New@AlwaysShowIconOnTaskBarParams@proto@sdk@electron@com@@UEBAPEAV12345@PEAVArena@protobuf@google@@@Z 0000000180002d40 f i electron_sdk.pb.obj
 0001:00001d50       ?New@DisableSplitScreenModeUIElementsParams@proto@sdk@electron@com@@UEBAPEAV12345@PEAVArena@protobuf@google@@@Z 0000000180002d50 f i electron_sdk.pb.obj
 0001:00001d60       ?New@SetShowAudioUseComputerSoundChkboxParams@proto@sdk@electron@com@@UEBAPEAV12345@PEAVArena@protobuf@google@@@Z 0000000180002d60 f i electron_sdk.pb.obj
 0001:00001d70       ?New@SetShowCallInTabParams@proto@sdk@electron@com@@UEBAPEAV12345@PEAVArena@protobuf@google@@@Z 0000000180002d70 f i electron_sdk.pb.obj
 0001:00001d80       ?New@SetShowCallMeTabParams@proto@sdk@electron@com@@UEBAPEAV12345@PEAVArena@protobuf@google@@@Z 0000000180002d80 f i electron_sdk.pb.obj
 0001:00001d90       ?New@DisableTopMostAttr4SettingDialogParams@proto@sdk@electron@com@@UEBAPEAV12345@PEAVArena@protobuf@google@@@Z 0000000180002d90 f i electron_sdk.pb.obj
 0001:00001da0       ?New@EnableGrabShareWithoutReminderParams@proto@sdk@electron@com@@UEBAPEAV12345@PEAVArena@protobuf@google@@@Z 0000000180002da0 f i electron_sdk.pb.obj
 0001:00001db0       ?New@EnableShowShareSwitchMultiToSingleConfirmDlgParams@proto@sdk@electron@com@@UEBAPEAV12345@PEAVArena@protobuf@google@@@Z 0000000180002db0 f i electron_sdk.pb.obj
 0001:00001dc0       ?New@DisableFreeMeetingRemainTimeNotifyParams@proto@sdk@electron@com@@UEBAPEAV12345@PEAVArena@protobuf@google@@@Z 0000000180002dc0 f i electron_sdk.pb.obj
 0001:00001dd0       ?New@HideChatItemOnMeetingUIParams@proto@sdk@electron@com@@UEBAPEAV12345@PEAVArena@protobuf@google@@@Z 0000000180002dd0 f i electron_sdk.pb.obj
 0001:00001de0       ?New@HideRecordItemOnMeetingUIParams@proto@sdk@electron@com@@UEBAPEAV12345@PEAVArena@protobuf@google@@@Z 0000000180002de0 f i electron_sdk.pb.obj
 0001:00001df0       ?New@HideUpgradeFreeMeetingButtonParams@proto@sdk@electron@com@@UEBAPEAV12345@PEAVArena@protobuf@google@@@Z 0000000180002df0 f i electron_sdk.pb.obj
 0001:00001e00       ?New@SetShowInviteDlgTabPageParams@proto@sdk@electron@com@@UEBAPEAV12345@PEAVArena@protobuf@google@@@Z 0000000180002e00 f i electron_sdk.pb.obj
 0001:00001e10       ?New@SetShowH323SubTabPageParams@proto@sdk@electron@com@@UEBAPEAV12345@PEAVArena@protobuf@google@@@Z 0000000180002e10 f i electron_sdk.pb.obj
 0001:00001e20       ?New@HideSwitchCameraButtonParams@proto@sdk@electron@com@@UEBAPEAV12345@PEAVArena@protobuf@google@@@Z 0000000180002e20 f i electron_sdk.pb.obj
 0001:00001e30       ?New@HideCopyUrlOnInviteWindowParams@proto@sdk@electron@com@@UEBAPEAV12345@PEAVArena@protobuf@google@@@Z 0000000180002e30 f i electron_sdk.pb.obj
 0001:00001e40       ?New@HideCopyInvitationOnInviteWindowParams@proto@sdk@electron@com@@UEBAPEAV12345@PEAVArena@protobuf@google@@@Z 0000000180002e40 f i electron_sdk.pb.obj
 0001:00001e50       ?New@HideKeypadButtonOnMeetingWindowParams@proto@sdk@electron@com@@UEBAPEAV12345@PEAVArena@protobuf@google@@@Z 0000000180002e50 f i electron_sdk.pb.obj
 0001:00001e60       ?New@HideRemoteControlOnMeetingUIParams@proto@sdk@electron@com@@UEBAPEAV12345@PEAVArena@protobuf@google@@@Z 0000000180002e60 f i electron_sdk.pb.obj
 0001:00001e70       ?New@HideQAOnMeetingUIParams@proto@sdk@electron@com@@UEBAPEAV12345@PEAVArena@protobuf@google@@@Z 0000000180002e70 f i electron_sdk.pb.obj
 0001:00001e80       ?New@HidePollOnMeetingUIParams@proto@sdk@electron@com@@UEBAPEAV12345@PEAVArena@protobuf@google@@@Z 0000000180002e80 f i electron_sdk.pb.obj
 0001:00001e90       ?New@EnableInputMeetingPasswordDlgParams@proto@sdk@electron@com@@UEBAPEAV12345@PEAVArena@protobuf@google@@@Z 0000000180002e90 f i electron_sdk.pb.obj
 0001:00001ea0       ?New@EnableInputMeetingScreenNameDlgParams@proto@sdk@electron@com@@UEBAPEAV12345@PEAVArena@protobuf@google@@@Z 0000000180002ea0 f i electron_sdk.pb.obj
 0001:00001eb0       ?New@RedirectWebinarNeedRegisterParams@proto@sdk@electron@com@@UEBAPEAV12345@PEAVArena@protobuf@google@@@Z 0000000180002eb0 f i electron_sdk.pb.obj
 0001:00001ec0       ?New@RedirectEndOtherMeetingParams@proto@sdk@electron@com@@UEBAPEAV12345@PEAVArena@protobuf@google@@@Z 0000000180002ec0 f i electron_sdk.pb.obj
 0001:00001ed0       ?New@EnableForceAutoStartMyVideoWhenJoinMeetingParams@proto@sdk@electron@com@@UEBAPEAV12345@PEAVArena@protobuf@google@@@Z 0000000180002ed0 f i electron_sdk.pb.obj
 0001:00001ee0       ?New@EnableForceAutoStopMyVideoWhenJoinMeetingParams@proto@sdk@electron@com@@UEBAPEAV12345@PEAVArena@protobuf@google@@@Z 0000000180002ee0 f i electron_sdk.pb.obj
 0001:00001ef0       ?New@DisableAutoShowSelectJoinAudioDlgWhenJoinMeetingParams@proto@sdk@electron@com@@UEBAPEAV12345@PEAVArena@protobuf@google@@@Z 0000000180002ef0 f i electron_sdk.pb.obj
 0001:00001f00       ?New@DisableShowJoinMeetingWndParams@proto@sdk@electron@com@@UEBAPEAV12345@PEAVArena@protobuf@google@@@Z 0000000180002f00 f i electron_sdk.pb.obj
 0001:00001f10       ?New@DisableToolbarInviteButtonClickOriginActionParams@proto@sdk@electron@com@@UEBAPEAV12345@PEAVArena@protobuf@google@@@Z 0000000180002f10 f i electron_sdk.pb.obj
 0001:00001f20       ?New@SetShowVideoOptimizeChkboxParams@proto@sdk@electron@com@@UEBAPEAV12345@PEAVArena@protobuf@google@@@Z 0000000180002f20 f i electron_sdk.pb.obj
 0001:00001f30       ?New@InputMeetingPasswordAndScreenNameParams@proto@sdk@electron@com@@UEBAPEAV12345@PEAVArena@protobuf@google@@@Z 0000000180002f30 f i electron_sdk.pb.obj
 0001:00001f40       ?New@InputMeetingIDAndScreenNameParams@proto@sdk@electron@com@@UEBAPEAV12345@PEAVArena@protobuf@google@@@Z 0000000180002f40 f i electron_sdk.pb.obj
 0001:00001f50       ?New@InputMeetingScreenNameParams@proto@sdk@electron@com@@UEBAPEAV12345@PEAVArena@protobuf@google@@@Z 0000000180002f50 f i electron_sdk.pb.obj
 0001:00001f60       ?New@InputWebinarRegisterEmailAndScreenNameParams@proto@sdk@electron@com@@UEBAPEAV12345@PEAVArena@protobuf@google@@@Z 0000000180002f60 f i electron_sdk.pb.obj
 0001:00001f70       ?New@CallOutH323Params@proto@sdk@electron@com@@UEBAPEAV12345@PEAVArena@protobuf@google@@@Z 0000000180002f70 f i electron_sdk.pb.obj
 0001:00001f80       ?New@GetUserInfoByUserIDParams@proto@sdk@electron@com@@UEBAPEAV12345@PEAVArena@protobuf@google@@@Z 0000000180002f80 f i electron_sdk.pb.obj
 0001:00001f90       ?New@GetBotAuthorizedUserInfoByUserIDParams@proto@sdk@electron@com@@UEBAPEAV12345@PEAVArena@protobuf@google@@@Z 0000000180002f90 f i electron_sdk.pb.obj
 0001:00001fa0       ?New@GetAuthorizedBotListByUserIDParams@proto@sdk@electron@com@@UEBAPEAV12345@PEAVArena@protobuf@google@@@Z 0000000180002fa0 f i electron_sdk.pb.obj
 0001:00001fb0       ?New@CanStartRecordingParams@proto@sdk@electron@com@@UEBAPEAV12345@PEAVArena@protobuf@google@@@Z 0000000180002fb0 f i electron_sdk.pb.obj
 0001:00001fc0       ?New@IsSupportLocalRecordingParams@proto@sdk@electron@com@@UEBAPEAV12345@PEAVArena@protobuf@google@@@Z 0000000180002fc0 f i electron_sdk.pb.obj
 0001:00001fd0       ?New@AllowLocalRecordingParams@proto@sdk@electron@com@@UEBAPEAV12345@PEAVArena@protobuf@google@@@Z 0000000180002fd0 f i electron_sdk.pb.obj
 0001:00001fe0       ?New@DisAllowLocalRecordingParams@proto@sdk@electron@com@@UEBAPEAV12345@PEAVArena@protobuf@google@@@Z 0000000180002fe0 f i electron_sdk.pb.obj
 0001:00001ff0       ?New@StartAppShareParams@proto@sdk@electron@com@@UEBAPEAV12345@PEAVArena@protobuf@google@@@Z 0000000180002ff0 f i electron_sdk.pb.obj
 0001:00002000       ?New@StartMonitorShareParams@proto@sdk@electron@com@@UEBAPEAV12345@PEAVArena@protobuf@google@@@Z 0000000180003000 f i electron_sdk.pb.obj
 0001:00002010       ?New@MuteVideoParams@proto@sdk@electron@com@@UEBAPEAV12345@PEAVArena@protobuf@google@@@Z 0000000180003010 f i electron_sdk.pb.obj
 0001:00002020       ?New@UnMuteVideoParams@proto@sdk@electron@com@@UEBAPEAV12345@PEAVArena@protobuf@google@@@Z 0000000180003020 f i electron_sdk.pb.obj
 0001:00002030       ?New@PinVideoToFirstViewParams@proto@sdk@electron@com@@UEBAPEAV12345@PEAVArena@protobuf@google@@@Z 0000000180003030 f i electron_sdk.pb.obj
 0001:00002040       ?New@SpotlightVideoParams@proto@sdk@electron@com@@UEBAPEAV12345@PEAVArena@protobuf@google@@@Z 0000000180003040 f i electron_sdk.pb.obj
 0001:00002050       ?New@HideOrShowNoVideoUserOnVideoWallParams@proto@sdk@electron@com@@UEBAPEAV12345@PEAVArena@protobuf@google@@@Z 0000000180003050 f i electron_sdk.pb.obj
 0001:00002060       ?New@CreateRendererParams@proto@sdk@electron@com@@UEBAPEAV12345@PEAVArena@protobuf@google@@@Z 0000000180003060 f i electron_sdk.pb.obj
 0001:00002070       ?New@DestroyRendererParams@proto@sdk@electron@com@@UEBAPEAV12345@PEAVArena@protobuf@google@@@Z 0000000180003070 f i electron_sdk.pb.obj
 0001:00002080       ?New@SubscribeParams@proto@sdk@electron@com@@UEBAPEAV12345@PEAVArena@protobuf@google@@@Z 0000000180003080 f i electron_sdk.pb.obj
 0001:00002090       ?New@UnSubscribeParams@proto@sdk@electron@com@@UEBAPEAV12345@PEAVArena@protobuf@google@@@Z 0000000180003090 f i electron_sdk.pb.obj
 0001:000020a0       ?New@SetRawDataResolutionParams@proto@sdk@electron@com@@UEBAPEAV12345@PEAVArena@protobuf@google@@@Z 00000001800030a0 f i electron_sdk.pb.obj
 0001:000020b0       ?New@GetResolutionParams@proto@sdk@electron@com@@UEBAPEAV12345@PEAVArena@protobuf@google@@@Z 00000001800030b0 f i electron_sdk.pb.obj
 0001:000020c0       ?New@GetRawDataTypeParams@proto@sdk@electron@com@@UEBAPEAV12345@PEAVArena@protobuf@google@@@Z 00000001800030c0 f i electron_sdk.pb.obj
 0001:000020d0       ?New@GetSubscribeIdParams@proto@sdk@electron@com@@UEBAPEAV12345@PEAVArena@protobuf@google@@@Z 00000001800030d0 f i electron_sdk.pb.obj
 0001:000020e0       ?New@EnableZoomAuthRealNameMeetingUIShownParams@proto@sdk@electron@com@@UEBAPEAV12345@PEAVArena@protobuf@google@@@Z 00000001800030e0 f i electron_sdk.pb.obj
 0001:000020f0       ?New@RetrieveParams@proto@sdk@electron@com@@UEBAPEAV12345@PEAVArena@protobuf@google@@@Z 00000001800030f0 f i electron_sdk.pb.obj
 0001:00002100       ?New@VerifyParams@proto@sdk@electron@com@@UEBAPEAV12345@PEAVArena@protobuf@google@@@Z 0000000180003100 f i electron_sdk.pb.obj
 0001:00002110       ?New@SetDefaultCellPhoneInfoParams@proto@sdk@electron@com@@UEBAPEAV12345@PEAVArena@protobuf@google@@@Z 0000000180003110 f i electron_sdk.pb.obj
 0001:00002120       ?New@EnableAlwaysShowMeetingControlsParams@proto@sdk@electron@com@@UEBAPEAV12345@PEAVArena@protobuf@google@@@Z 0000000180003120 f i electron_sdk.pb.obj
 0001:00002130       ?New@SelectMicParams@proto@sdk@electron@com@@UEBAPEAV12345@PEAVArena@protobuf@google@@@Z 0000000180003130 f i electron_sdk.pb.obj
 0001:00002140       ?New@SelectSpeakerParams@proto@sdk@electron@com@@UEBAPEAV12345@PEAVArena@protobuf@google@@@Z 0000000180003140 f i electron_sdk.pb.obj
 0001:00002150       ?New@EnableAutoJoinAudioParams@proto@sdk@electron@com@@UEBAPEAV12345@PEAVArena@protobuf@google@@@Z 0000000180003150 f i electron_sdk.pb.obj
 0001:00002160       ?New@EnableAutoAdjustMicParams@proto@sdk@electron@com@@UEBAPEAV12345@PEAVArena@protobuf@google@@@Z 0000000180003160 f i electron_sdk.pb.obj
 0001:00002170       ?New@EnableStereoAudioParams@proto@sdk@electron@com@@UEBAPEAV12345@PEAVArena@protobuf@google@@@Z 0000000180003170 f i electron_sdk.pb.obj
 0001:00002180       ?New@EnableMicOriginalInputParams@proto@sdk@electron@com@@UEBAPEAV12345@PEAVArena@protobuf@google@@@Z 0000000180003180 f i electron_sdk.pb.obj
 0001:00002190       ?New@EnableHoldSpaceKeyToSpeakParams@proto@sdk@electron@com@@UEBAPEAV12345@PEAVArena@protobuf@google@@@Z 0000000180003190 f i electron_sdk.pb.obj
 0001:000021a0       ?New@EnableAlwaysMuteMicWhenJoinVoipParams@proto@sdk@electron@com@@UEBAPEAV12345@PEAVArena@protobuf@google@@@Z 00000001800031a0 f i electron_sdk.pb.obj
 0001:000021b0       ?New@EnableSuppressAudioNotifyParams@proto@sdk@electron@com@@UEBAPEAV12345@PEAVArena@protobuf@google@@@Z 00000001800031b0 f i electron_sdk.pb.obj
 0001:000021c0       ?New@SetEchoCancellationLevelParams@proto@sdk@electron@com@@UEBAPEAV12345@PEAVArena@protobuf@google@@@Z 00000001800031c0 f i electron_sdk.pb.obj
 0001:000021d0       ?New@SetMicVolParams@proto@sdk@electron@com@@UEBAPEAV12345@PEAVArena@protobuf@google@@@Z 00000001800031d0 f i electron_sdk.pb.obj
 0001:000021e0       ?New@SetSpeakerVolParams@proto@sdk@electron@com@@UEBAPEAV12345@PEAVArena@protobuf@google@@@Z 00000001800031e0 f i electron_sdk.pb.obj
 0001:000021f0       ?New@EnableDualScreenModeParams@proto@sdk@electron@com@@UEBAPEAV12345@PEAVArena@protobuf@google@@@Z 00000001800031f0 f i electron_sdk.pb.obj
 0001:00002200       ?New@TurnOffAeroModeInSharingParams@proto@sdk@electron@com@@UEBAPEAV12345@PEAVArena@protobuf@google@@@Z 0000000180003200 f i electron_sdk.pb.obj
 0001:00002210       ?New@EnableAutoFitToWindowWhenViewSharingParams@proto@sdk@electron@com@@UEBAPEAV12345@PEAVArena@protobuf@google@@@Z 0000000180003210 f i electron_sdk.pb.obj
 0001:00002220       ?New@EnableAutoFullScreenVideoWhenJoinMeetingParams@proto@sdk@electron@com@@UEBAPEAV12345@PEAVArena@protobuf@google@@@Z 0000000180003220 f i electron_sdk.pb.obj
 0001:00002230       ?New@EnableSplitScreenModeParams@proto@sdk@electron@com@@UEBAPEAV12345@PEAVArena@protobuf@google@@@Z 0000000180003230 f i electron_sdk.pb.obj
 0001:00002240       ?New@EnableAutoFullScreenVideoWhenViewShareParams@proto@sdk@electron@com@@UEBAPEAV12345@PEAVArena@protobuf@google@@@Z 0000000180003240 f i electron_sdk.pb.obj
 0001:00002250       ?New@EnableDisplayReminderWindowWhenExitParams@proto@sdk@electron@com@@UEBAPEAV12345@PEAVArena@protobuf@google@@@Z 0000000180003250 f i electron_sdk.pb.obj
 0001:00002260       ?New@EnableShowMyMeetingElapseTimeParams@proto@sdk@electron@com@@UEBAPEAV12345@PEAVArena@protobuf@google@@@Z 0000000180003260 f i electron_sdk.pb.obj
 0001:00002270       ?New@EnableAccelerateGPUWhenShareParams@proto@sdk@electron@com@@UEBAPEAV12345@PEAVArena@protobuf@google@@@Z 0000000180003270 f i electron_sdk.pb.obj
 0001:00002280       ?New@EnableRemoteControlAllApplicationsParams@proto@sdk@electron@com@@UEBAPEAV12345@PEAVArena@protobuf@google@@@Z 0000000180003280 f i electron_sdk.pb.obj
 0001:00002290       ?New@SetRecordingPathParams@proto@sdk@electron@com@@UEBAPEAV12345@PEAVArena@protobuf@google@@@Z 0000000180003290 f i electron_sdk.pb.obj
 0001:000022a0       ?New@EnableSelectRecordFileLocationAfterMeetingParams@proto@sdk@electron@com@@UEBAPEAV12345@PEAVArena@protobuf@google@@@Z 00000001800032a0 f i electron_sdk.pb.obj
 0001:000022b0       ?New@EnableMultiAudioStreamRecordParams@proto@sdk@electron@com@@UEBAPEAV12345@PEAVArena@protobuf@google@@@Z 00000001800032b0 f i electron_sdk.pb.obj
 0001:000022c0       ?New@EnableAddTimestampWatermarkParams@proto@sdk@electron@com@@UEBAPEAV12345@PEAVArena@protobuf@google@@@Z 00000001800032c0 f i electron_sdk.pb.obj
 0001:000022d0       ?New@EnableOptimizeFor3rdPartyVideoEditorParams@proto@sdk@electron@com@@UEBAPEAV12345@PEAVArena@protobuf@google@@@Z 00000001800032d0 f i electron_sdk.pb.obj
 0001:000022e0       ?New@EnableShowVideoThumbnailWhenShareParams@proto@sdk@electron@com@@UEBAPEAV12345@PEAVArena@protobuf@google@@@Z 00000001800032e0 f i electron_sdk.pb.obj
 0001:000022f0       ?New@EnablePlaceVideoNextToShareInRecordParams@proto@sdk@electron@com@@UEBAPEAV12345@PEAVArena@protobuf@google@@@Z 00000001800032f0 f i electron_sdk.pb.obj
 0001:00002300       ?New@DisableAdvancedFeatures4GeneralSettingParams@proto@sdk@electron@com@@UEBAPEAV12345@PEAVArena@protobuf@google@@@Z 0000000180003300 f i electron_sdk.pb.obj
 0001:00002310       ?New@DisableAccountSettingTabPageParams@proto@sdk@electron@com@@UEBAPEAV12345@PEAVArena@protobuf@google@@@Z 0000000180003310 f i electron_sdk.pb.obj
 0001:00002320       ?New@HideAutoCopyInviteLinkCheckBoxParams@proto@sdk@electron@com@@UEBAPEAV12345@PEAVArena@protobuf@google@@@Z 0000000180003320 f i electron_sdk.pb.obj
 0001:00002330       ?New@ConfigToShowUrlLinksInSettingParams@proto@sdk@electron@com@@UEBAPEAV12345@PEAVArena@protobuf@google@@@Z 0000000180003330 f i electron_sdk.pb.obj
 0001:00002340       ?New@ConfSettingDialogShownTabPageParams@proto@sdk@electron@com@@UEBAPEAV12345@PEAVArena@protobuf@google@@@Z 0000000180003340 f i electron_sdk.pb.obj
 0001:00002350       ?New@SelectVideoCameraParams@proto@sdk@electron@com@@UEBAPEAV12345@PEAVArena@protobuf@google@@@Z 0000000180003350 f i electron_sdk.pb.obj
 0001:00002360       ?New@EnableVideoMirrorEffectParams@proto@sdk@electron@com@@UEBAPEAV12345@PEAVArena@protobuf@google@@@Z 0000000180003360 f i electron_sdk.pb.obj
 0001:00002370       ?New@EnableFaceBeautyEffectParams@proto@sdk@electron@com@@UEBAPEAV12345@PEAVArena@protobuf@google@@@Z 0000000180003370 f i electron_sdk.pb.obj
 0001:00002380       ?New@EnableHDVideoParams@proto@sdk@electron@com@@UEBAPEAV12345@PEAVArena@protobuf@google@@@Z 0000000180003380 f i electron_sdk.pb.obj
 0001:00002390       ?New@EnableAlwaysShowNameOnVideoParams@proto@sdk@electron@com@@UEBAPEAV12345@PEAVArena@protobuf@google@@@Z 0000000180003390 f i electron_sdk.pb.obj
 0001:000023a0       ?New@EnableVideoPreviewDialogParams@proto@sdk@electron@com@@UEBAPEAV12345@PEAVArena@protobuf@google@@@Z 00000001800033a0 f i electron_sdk.pb.obj
 0001:000023b0       ?New@EnableAutoTurnOffVideoWhenJoinMeetingParams@proto@sdk@electron@com@@UEBAPEAV12345@PEAVArena@protobuf@google@@@Z 00000001800033b0 f i electron_sdk.pb.obj
 0001:000023c0       ?New@EnableSpotlightSelfParams@proto@sdk@electron@com@@UEBAPEAV12345@PEAVArena@protobuf@google@@@Z 00000001800033c0 f i electron_sdk.pb.obj
 0001:000023d0       ?New@EnableHardwareEncodeParams@proto@sdk@electron@com@@UEBAPEAV12345@PEAVArena@protobuf@google@@@Z 00000001800033d0 f i electron_sdk.pb.obj
 0001:000023e0       ?New@IsHardwareEncodeEnabledParams@proto@sdk@electron@com@@UEBAPEAV12345@PEAVArena@protobuf@google@@@Z 00000001800033e0 f i electron_sdk.pb.obj
 0001:000023f0       ?New@Enable49VideoesInGallaryViewParams@proto@sdk@electron@com@@UEBAPEAV12345@PEAVArena@protobuf@google@@@Z 00000001800033f0 f i electron_sdk.pb.obj
 0001:00002400       ?New@EnableHideNoVideoUsersOnWallViewParams@proto@sdk@electron@com@@UEBAPEAV12345@PEAVArena@protobuf@google@@@Z 0000000180003400 f i electron_sdk.pb.obj
 0001:00002410       ?New@GenerateSSOLoginWebURLParams@proto@sdk@electron@com@@UEBAPEAV12345@PEAVArena@protobuf@google@@@Z 0000000180003410 f i electron_sdk.pb.obj
 0001:00002420       ?New@SSOLoginWithWebUriProtocolParams@proto@sdk@electron@com@@UEBAPEAV12345@PEAVArena@protobuf@google@@@Z 0000000180003420 f i electron_sdk.pb.obj
 0001:00002430       ?New@ShowAANPanelParams@proto@sdk@electron@com@@UEBAPEAV12345@PEAVArena@protobuf@google@@@Z 0000000180003430 f i electron_sdk.pb.obj
 0001:00002440       ?New@EnableInviteLinkOnMeetingUIParams@proto@sdk@electron@com@@UEBAPEAV12345@PEAVArena@protobuf@google@@@Z 0000000180003440 f i electron_sdk.pb.obj
 0001:00002450       ?New@SetMeetingTopicParams@proto@sdk@electron@com@@UEBAPEAV12345@PEAVArena@protobuf@google@@@Z 0000000180003450 f i electron_sdk.pb.obj
 0001:00002460       ?New@SetCustomizedCloudRecordingMgrUrlParams@proto@sdk@electron@com@@UEBAPEAV12345@PEAVArena@protobuf@google@@@Z 0000000180003460 f i electron_sdk.pb.obj
 0001:00002470       ?New@SetCustomizedInvitationDomainParams@proto@sdk@electron@com@@UEBAPEAV12345@PEAVArena@protobuf@google@@@Z 0000000180003470 f i electron_sdk.pb.obj
 0001:00002480       ?New@SetCustomizedPollingUrlParams@proto@sdk@electron@com@@UEBAPEAV12345@PEAVArena@protobuf@google@@@Z 0000000180003480 f i electron_sdk.pb.obj
 0001:00002490       ?New@SetAudioShareModeParams@proto@sdk@electron@com@@UEBAPEAV12345@PEAVArena@protobuf@google@@@Z 0000000180003490 f i electron_sdk.pb.obj
 0001:000024a0       ?New@StartLiveStreamParams@proto@sdk@electron@com@@UEBAPEAV12345@PEAVArena@protobuf@google@@@Z 00000001800034a0 f i electron_sdk.pb.obj
 0001:000024b0       ?New@StartLiveStreamWithSteamingURLParams@proto@sdk@electron@com@@UEBAPEAV12345@PEAVArena@protobuf@google@@@Z 00000001800034b0 f i electron_sdk.pb.obj
 0001:000024c0       ?New@StartRawLiveStreamParams@proto@sdk@electron@com@@UEBAPEAV12345@PEAVArena@protobuf@google@@@Z 00000001800034c0 f i electron_sdk.pb.obj
 0001:000024d0       ?New@GetLiveStreamItemInfoParams@proto@sdk@electron@com@@UEBAPEAV12345@PEAVArena@protobuf@google@@@Z 00000001800034d0 f i electron_sdk.pb.obj
 0001:000024e0       ?New@RequestRawLiveStreamParams@proto@sdk@electron@com@@UEBAPEAV12345@PEAVArena@protobuf@google@@@Z 00000001800034e0 f i electron_sdk.pb.obj
 0001:000024f0       ?New@RemoveRawLiveStreamPrivilegeParams@proto@sdk@electron@com@@UEBAPEAV12345@PEAVArena@protobuf@google@@@Z 00000001800034f0 f i electron_sdk.pb.obj
 0001:00002500       ?New@EnableLiveStreamReminderParams@proto@sdk@electron@com@@UEBAPEAV12345@PEAVArena@protobuf@google@@@Z 0000000180003500 f i electron_sdk.pb.obj
 0001:00002510       ?New@SetPipeInitParams@proto@sdk@electron@com@@UEBAPEAV12345@PEAVArena@protobuf@google@@@Z 0000000180003510 f i electron_sdk.pb.obj
 0001:00002520       ?New@SetParticipantsChatPrivilegeParams@proto@sdk@electron@com@@UEBAPEAV12345@PEAVArena@protobuf@google@@@Z 0000000180003520 f i electron_sdk.pb.obj
 0001:00002530       ?New@ChatMessageIDParams@proto@sdk@electron@com@@UEBAPEAV12345@PEAVArena@protobuf@google@@@Z 0000000180003530 f i electron_sdk.pb.obj
 0001:00002540       ?New@SetChatMessageBuilderParams@proto@sdk@electron@com@@UEBAPEAV12345@PEAVArena@protobuf@google@@@Z 0000000180003540 f i electron_sdk.pb.obj
 0001:00002550       ?New@TransferFileParams@proto@sdk@electron@com@@UEBAPEAV12345@PEAVArena@protobuf@google@@@Z 0000000180003550 f i electron_sdk.pb.obj
 0001:00002560       ?New@StartReceiveParams@proto@sdk@electron@com@@UEBAPEAV12345@PEAVArena@protobuf@google@@@Z 0000000180003560 f i electron_sdk.pb.obj
 0001:00002570       ?New@EnableWaitingRoomOnEntryParams@proto@sdk@electron@com@@UEBAPEAV12345@PEAVArena@protobuf@google@@@Z 0000000180003570 f i electron_sdk.pb.obj
 0001:00002580       ?New@GetWaitingRoomUserInfoByIDParams@proto@sdk@electron@com@@UEBAPEAV12345@PEAVArena@protobuf@google@@@Z 0000000180003580 f i electron_sdk.pb.obj
 0001:00002590       ?New@AdmitToMeetingParams@proto@sdk@electron@com@@UEBAPEAV12345@PEAVArena@protobuf@google@@@Z 0000000180003590 f i electron_sdk.pb.obj
 0001:000025a0       ?New@PutInWaitingRoomParams@proto@sdk@electron@com@@UEBAPEAV12345@PEAVArena@protobuf@google@@@Z 00000001800035a0 f i electron_sdk.pb.obj
 0001:000025b0       ?New@RenameUserParams@proto@sdk@electron@com@@UEBAPEAV12345@PEAVArena@protobuf@google@@@Z 00000001800035b0 f i electron_sdk.pb.obj
 0001:000025c0       ?New@ExpelUserParams@proto@sdk@electron@com@@UEBAPEAV12345@PEAVArena@protobuf@google@@@Z 00000001800035c0 f i electron_sdk.pb.obj
 0001:000025d0       ?New@AllowParticipantsToRequestCloudRecordingParams@proto@sdk@electron@com@@UEBAPEAV12345@PEAVArena@protobuf@google@@@Z 00000001800035d0 f i electron_sdk.pb.obj
 0001:000025e0       ?New@DenyRequestStartCloudRecordingParams@proto@sdk@electron@com@@UEBAPEAV12345@PEAVArena@protobuf@google@@@Z 00000001800035e0 f i electron_sdk.pb.obj
 0001:000025f0       ?New@SetEnableOptionParams@proto@sdk@electron@com@@UEBAPEAV12345@PEAVArena@protobuf@google@@@Z 00000001800035f0 f i electron_sdk.pb.obj
 0001:00002600       ?New@DeclineEnableParams@proto@sdk@electron@com@@UEBAPEAV12345@PEAVArena@protobuf@google@@@Z 0000000180003600 f i electron_sdk.pb.obj
 0001:00002610       ?New@InputScreenNameParams@proto@sdk@electron@com@@UEBAPEAV12345@PEAVArena@protobuf@google@@@Z 0000000180003610 f i electron_sdk.pb.obj
 0001:00002620       ?New@AgreeToEnableAndStartSmartRecordingParams@proto@sdk@electron@com@@UEBAPEAV12345@PEAVArena@protobuf@google@@@Z 0000000180003620 f i electron_sdk.pb.obj
 0001:00002630       ?New@DeclineEnableAndStartSmartRecordingParams@proto@sdk@electron@com@@UEBAPEAV12345@PEAVArena@protobuf@google@@@Z 0000000180003630 f i electron_sdk.pb.obj
 0001:00002640       ?New@ActionConfirmEnableSmartRecordingParams@proto@sdk@electron@com@@UEBAPEAV12345@PEAVArena@protobuf@google@@@Z 0000000180003640 f i electron_sdk.pb.obj
 0001:00002650       ?New@IsValidEmailParams@proto@sdk@electron@com@@UEBAPEAV12345@PEAVArena@protobuf@google@@@Z 0000000180003650 f i electron_sdk.pb.obj
 0001:00002660       ?New@InputUserInfoParams@proto@sdk@electron@com@@UEBAPEAV12345@PEAVArena@protobuf@google@@@Z 0000000180003660 f i electron_sdk.pb.obj
 0001:00002670       ?New@RedirectMeetingInputUserInfoDialogParams@proto@sdk@electron@com@@UEBAPEAV12345@PEAVArena@protobuf@google@@@Z 0000000180003670 f i electron_sdk.pb.obj
 0001:00002680       ?New@JoinWithArchiveParams@proto@sdk@electron@com@@UEBAPEAV12345@PEAVArena@protobuf@google@@@Z 0000000180003680 f i electron_sdk.pb.obj
 0001:00002690       ?New@RedirectConfirmStartArchiveDialogParams@proto@sdk@electron@com@@UEBAPEAV12345@PEAVArena@protobuf@google@@@Z 0000000180003690 f i electron_sdk.pb.obj
 0001:000026a0       ?New@ShowIndicatorPanelParams@proto@sdk@electron@com@@UEBAPEAV12345@PEAVArena@protobuf@google@@@Z 00000001800036a0 f i electron_sdk.pb.obj
 0001:000026b0       ?New@WebinarAttendeeParams@proto@sdk@electron@com@@UEBAPEAV12345@PEAVArena@protobuf@google@@@Z 00000001800036b0 f i electron_sdk.pb.obj
 0001:000026c0       ?New@SetPanelistChatPrivilegeParams@proto@sdk@electron@com@@UEBAPEAV12345@PEAVArena@protobuf@google@@@Z 00000001800036c0 f i electron_sdk.pb.obj
 0001:000026d0       ?New@SetAttendeeViewModeParams@proto@sdk@electron@com@@UEBAPEAV12345@PEAVArena@protobuf@google@@@Z 00000001800036d0 f i electron_sdk.pb.obj
 0001:000026e0       ?New@SetWallpaperParams@proto@sdk@electron@com@@UEBAPEAV12345@PEAVArena@protobuf@google@@@Z 00000001800036e0 f i electron_sdk.pb.obj
 0001:000026f0       ?New@GetWallpaperItemByIDParams@proto@sdk@electron@com@@UEBAPEAV12345@PEAVArena@protobuf@google@@@Z 00000001800036f0 f i electron_sdk.pb.obj
 0001:00002700       ?New@SetUsingGreenScreenParams@proto@sdk@electron@com@@UEBAPEAV12345@PEAVArena@protobuf@google@@@Z 0000000180003700 f i electron_sdk.pb.obj
 0001:00002710       ?New@AddBGImageParams@proto@sdk@electron@com@@UEBAPEAV12345@PEAVArena@protobuf@google@@@Z 0000000180003710 f i electron_sdk.pb.obj
 0001:00002720       ?New@RemoveBGImageParams@proto@sdk@electron@com@@UEBAPEAV12345@PEAVArena@protobuf@google@@@Z 0000000180003720 f i electron_sdk.pb.obj
 0001:00002730       ?New@UseBGImageParams@proto@sdk@electron@com@@UEBAPEAV12345@PEAVArena@protobuf@google@@@Z 0000000180003730 f i electron_sdk.pb.obj
 0001:00002740       ?New@AddBGVideoParams@proto@sdk@electron@com@@UEBAPEAV12345@PEAVArena@protobuf@google@@@Z 0000000180003740 f i electron_sdk.pb.obj
 0001:00002750       ?New@RemoveBGVideoParams@proto@sdk@electron@com@@UEBAPEAV12345@PEAVArena@protobuf@google@@@Z 0000000180003750 f i electron_sdk.pb.obj
 0001:00002760       ?New@UseBGVideoParams@proto@sdk@electron@com@@UEBAPEAV12345@PEAVArena@protobuf@google@@@Z 0000000180003760 f i electron_sdk.pb.obj
 0001:00002770       ?New@ChangeQuerySettingsParams@proto@sdk@electron@com@@UEBAPEAV12345@PEAVArena@protobuf@google@@@Z 0000000180003770 f i electron_sdk.pb.obj
 0001:00002780       ?New@SendQueryQuestionParams@proto@sdk@electron@com@@UEBAPEAV12345@PEAVArena@protobuf@google@@@Z 0000000180003780 f i electron_sdk.pb.obj
 0001:00002790       ?New@AICompanionQueryFeedbackParams@proto@sdk@electron@com@@UEBAPEAV12345@PEAVArena@protobuf@google@@@Z 0000000180003790 f i electron_sdk.pb.obj
 0001:000027a0       ?New@SetVideoQualityPreferenceParams@proto@sdk@electron@com@@UEBAPEAV12345@PEAVArena@protobuf@google@@@Z 00000001800037a0 f i electron_sdk.pb.obj
 0001:000027b0       ?New@TurnOffAllAICompanionsParams@proto@sdk@electron@com@@UEBAPEAV12345@PEAVArena@protobuf@google@@@Z 00000001800037b0 f i electron_sdk.pb.obj
 0001:000027c0       ?New@AgreeAICompanionFeatureSwitchParams@proto@sdk@electron@com@@UEBAPEAV12345@PEAVArena@protobuf@google@@@Z 00000001800037c0 f i electron_sdk.pb.obj
 0001:000027d0       ?New@DeclineSendQueryParams@proto@sdk@electron@com@@UEBAPEAV12345@PEAVArena@protobuf@google@@@Z 00000001800037d0 f i electron_sdk.pb.obj
 0001:000027e0       ?New@QuestionIDParams@proto@sdk@electron@com@@UEBAPEAV12345@PEAVArena@protobuf@google@@@Z 00000001800037e0 f i electron_sdk.pb.obj
 0001:000027f0       ?New@VoteQuestionParams@proto@sdk@electron@com@@UEBAPEAV12345@PEAVArena@protobuf@google@@@Z 00000001800037f0 f i electron_sdk.pb.obj
 0001:00002800       ?New@AnswerIDParams@proto@sdk@electron@com@@UEBAPEAV12345@PEAVArena@protobuf@google@@@Z 0000000180003800 f i electron_sdk.pb.obj
 0001:00002810       ?New@AnswerQuestionParams@proto@sdk@electron@com@@UEBAPEAV12345@PEAVArena@protobuf@google@@@Z 0000000180003810 f i electron_sdk.pb.obj
 0001:00002820       ?New@PollingIDParams@proto@sdk@electron@com@@UEBAPEAV12345@PEAVArena@protobuf@google@@@Z 0000000180003820 f i electron_sdk.pb.obj
 0001:00002830       ?New@QuestionCaseSensitiveParams@proto@sdk@electron@com@@UEBAPEAV12345@PEAVArena@protobuf@google@@@Z 0000000180003830 f i electron_sdk.pb.obj
 0001:00002840       ?New@QuestionImagePathParams@proto@sdk@electron@com@@UEBAPEAV12345@PEAVArena@protobuf@google@@@Z 0000000180003840 f i electron_sdk.pb.obj
 0001:00002850       ?New@SetOwnerWindowParams@proto@sdk@electron@com@@UEBAPEAV12345@PEAVArena@protobuf@google@@@Z 0000000180003850 f i electron_sdk.pb.obj
 0001:00002860       ?New@ShowDashboardViewParams@proto@sdk@electron@com@@UEBAPEAV12345@PEAVArena@protobuf@google@@@Z 0000000180003860 f i electron_sdk.pb.obj
 0001:00002870       ?New@SetDashboardViewSizeParams@proto@sdk@electron@com@@UEBAPEAV12345@PEAVArena@protobuf@google@@@Z 0000000180003870 f i electron_sdk.pb.obj
 0001:00002880       ?New@SetWhiteboardViewPosParams@proto@sdk@electron@com@@UEBAPEAV12345@PEAVArena@protobuf@google@@@Z 0000000180003880 f i electron_sdk.pb.obj
 0001:00002890       ?New@SetWhiteboardViewSizeParams@proto@sdk@electron@com@@UEBAPEAV12345@PEAVArena@protobuf@google@@@Z 0000000180003890 f i electron_sdk.pb.obj
 0001:000028a0       ?New@SetWhiteboardShareOptionParams@proto@sdk@electron@com@@UEBAPEAV12345@PEAVArena@protobuf@google@@@Z 00000001800038a0 f i electron_sdk.pb.obj
 0001:000028b0       ?New@SetWhiteboardCreateOptionParams@proto@sdk@electron@com@@UEBAPEAV12345@PEAVArena@protobuf@google@@@Z 00000001800038b0 f i electron_sdk.pb.obj
 0001:000028c0       ?New@EnableParticipantsCreateWithoutHostParams@proto@sdk@electron@com@@UEBAPEAV12345@PEAVArena@protobuf@google@@@Z 00000001800038c0 f i electron_sdk.pb.obj
 0001:000028d0       ?New@SetDocsShareOptionParams@proto@sdk@electron@com@@UEBAPEAV12345@PEAVArena@protobuf@google@@@Z 00000001800038d0 f i electron_sdk.pb.obj
 0001:000028e0       ?New@SetDocsCreateOptionParams@proto@sdk@electron@com@@UEBAPEAV12345@PEAVArena@protobuf@google@@@Z 00000001800038e0 f i electron_sdk.pb.obj
 0001:000028f0       ?New@ShowDocsDashboardParams@proto@sdk@electron@com@@UEBAPEAV12345@PEAVArena@protobuf@google@@@Z 00000001800038f0 f i electron_sdk.pb.obj
 0001:00002900       ?New@SetDocDashboardSizeParams@proto@sdk@electron@com@@UEBAPEAV12345@PEAVArena@protobuf@google@@@Z 0000000180003900 f i electron_sdk.pb.obj
 0001:00002910       ?New@SetDocsViewPosParams@proto@sdk@electron@com@@UEBAPEAV12345@PEAVArena@protobuf@google@@@Z 0000000180003910 f i electron_sdk.pb.obj
 0001:00002920       ?New@SetDocsViewSizeParams@proto@sdk@electron@com@@UEBAPEAV12345@PEAVArena@protobuf@google@@@Z 0000000180003920 f i electron_sdk.pb.obj
 0001:00002930       ?New@ShowDocsViewWindowParams@proto@sdk@electron@com@@UEBAPEAV12345@PEAVArena@protobuf@google@@@Z 0000000180003930 f i electron_sdk.pb.obj
 0001:00002940       ?New@GetDocsSharingSourceInfoListParams@proto@sdk@electron@com@@UEBAPEAV12345@PEAVArena@protobuf@google@@@Z 0000000180003940 f i electron_sdk.pb.obj
 0001:00002950       ??_EInitSDKParams@proto@sdk@electron@com@@UEAAPEAXI@Z 0000000180003950 f i * CIL library *:* CIL module *
 0001:00002950       ??_GInitSDKParams@proto@sdk@electron@com@@UEAAPEAXI@Z 0000000180003950 f i electron_sdk.pb.obj
 0001:00002a70       ??_EAuthWithJwtTokenParams@proto@sdk@electron@com@@UEAAPEAXI@Z 0000000180003a70 f i * CIL library *:* CIL module *
 0001:00002a70       ??_GAuthWithJwtTokenParams@proto@sdk@electron@com@@UEAAPEAXI@Z 0000000180003a70 f i electron_sdk.pb.obj
 0001:00002b60       ??_ELoginWithSSOTokenParams@proto@sdk@electron@com@@UEAAPEAXI@Z 0000000180003b60 f i * CIL library *:* CIL module *
 0001:00002b60       ??_GLoginWithSSOTokenParams@proto@sdk@electron@com@@UEAAPEAXI@Z 0000000180003b60 f i electron_sdk.pb.obj
 0001:00002c50       ??_EStartMeetingParams@proto@sdk@electron@com@@UEAAPEAXI@Z 0000000180003c50 f i * CIL library *:* CIL module *
 0001:00002c50       ??_GStartMeetingParams@proto@sdk@electron@com@@UEAAPEAXI@Z 0000000180003c50 f i electron_sdk.pb.obj
 0001:00002d40       ??_EStartWithoutLoginParams@proto@sdk@electron@com@@UEAAPEAXI@Z 0000000180003d40 f i * CIL library *:* CIL module *
 0001:00002d40       ??_GStartWithoutLoginParams@proto@sdk@electron@com@@UEAAPEAXI@Z 0000000180003d40 f i electron_sdk.pb.obj
 0001:00002e50       ??_EJoinMeetingParams@proto@sdk@electron@com@@UEAAPEAXI@Z 0000000180003e50 f i * CIL library *:* CIL module *
 0001:00002e50       ??_GJoinMeetingParams@proto@sdk@electron@com@@UEAAPEAXI@Z 0000000180003e50 f i electron_sdk.pb.obj
 0001:00002f80       ??_EJoinWithoutLoginParams@proto@sdk@electron@com@@UEAAPEAXI@Z 0000000180003f80 f i * CIL library *:* CIL module *
 0001:00002f80       ??_GJoinWithoutLoginParams@proto@sdk@electron@com@@UEAAPEAXI@Z 0000000180003f80 f i electron_sdk.pb.obj
 0001:000030c0       ??_ELeaveMeetingParams@proto@sdk@electron@com@@UEAAPEAXI@Z 00000001800040c0 f i * CIL library *:* CIL module *
 0001:000030c0       ??_GLeaveMeetingParams@proto@sdk@electron@com@@UEAAPEAXI@Z 00000001800040c0 f i electron_sdk.pb.obj
 0001:000031a0       ??_ESetMeetingTopicParam@proto@sdk@electron@com@@UEAAPEAXI@Z 00000001800041a0 f i * CIL library *:* CIL module *
 0001:000031a0       ??_GSetMeetingTopicParam@proto@sdk@electron@com@@UEAAPEAXI@Z 00000001800041a0 f i electron_sdk.pb.obj
 0001:00003290       ??_EHandleZoomWebUriProtocolActionParams@proto@sdk@electron@com@@UEAAPEAXI@Z 0000000180004290 f i * CIL library *:* CIL module *
 0001:00003290       ??_GHandleZoomWebUriProtocolActionParams@proto@sdk@electron@com@@UEAAPEAXI@Z 0000000180004290 f i electron_sdk.pb.obj
 0001:00003380       ??_EShowChatDlgParams@proto@sdk@electron@com@@UEAAPEAXI@Z 0000000180004380 f i * CIL library *:* CIL module *
 0001:00003380       ??_GShowChatDlgParams@proto@sdk@electron@com@@UEAAPEAXI@Z 0000000180004380 f i electron_sdk.pb.obj
 0001:00003490       ??_EEnterFullScreenParams@proto@sdk@electron@com@@UEAAPEAXI@Z 0000000180004490 f i * CIL library *:* CIL module *
 0001:00003490       ??_GEnterFullScreenParams@proto@sdk@electron@com@@UEAAPEAXI@Z 0000000180004490 f i electron_sdk.pb.obj
 0001:00003570       ??_EExitFullScreenParams@proto@sdk@electron@com@@UEAAPEAXI@Z 0000000180004570 f i * CIL library *:* CIL module *
 0001:00003570       ??_GExitFullScreenParams@proto@sdk@electron@com@@UEAAPEAXI@Z 0000000180004570 f i electron_sdk.pb.obj
 0001:00003650       ??_EMoveFloatVideoWndParams@proto@sdk@electron@com@@UEAAPEAXI@Z 0000000180004650 f i * CIL library *:* CIL module *
 0001:00003650       ??_GMoveFloatVideoWndParams@proto@sdk@electron@com@@UEAAPEAXI@Z 0000000180004650 f i electron_sdk.pb.obj
 0001:00003740       ??_EShowSharingToolbarParams@proto@sdk@electron@com@@UEAAPEAXI@Z 0000000180004740 f i * CIL library *:* CIL module *
 0001:00003740       ??_GShowSharingToolbarParams@proto@sdk@electron@com@@UEAAPEAXI@Z 0000000180004740 f i electron_sdk.pb.obj
 0001:00003820       ??_EChangeFloatToActiveSpkVideoSizeParams@proto@sdk@electron@com@@UEAAPEAXI@Z 0000000180004820 f i * CIL library *:* CIL module *
 0001:00003820       ??_GChangeFloatToActiveSpkVideoSizeParams@proto@sdk@electron@com@@UEAAPEAXI@Z 0000000180004820 f i electron_sdk.pb.obj
 0001:00003900       ??_EShowParticipantsListWndParams@proto@sdk@electron@com@@UEAAPEAXI@Z 0000000180004900 f i * CIL library *:* CIL module *
 0001:00003900       ??_GShowParticipantsListWndParams@proto@sdk@electron@com@@UEAAPEAXI@Z 0000000180004900 f i electron_sdk.pb.obj
 0001:000039e0       ??_EShowBottomFloatToolbarWndParams@proto@sdk@electron@com@@UEAAPEAXI@Z 00000001800049e0 f i * CIL library *:* CIL module *
 0001:000039e0       ??_GShowBottomFloatToolbarWndParams@proto@sdk@electron@com@@UEAAPEAXI@Z 00000001800049e0 f i electron_sdk.pb.obj
 0001:00003ac0       ??_EShowPreOrNextPageVideoParams@proto@sdk@electron@com@@UEAAPEAXI@Z 0000000180004ac0 f i * CIL library *:* CIL module *
 0001:00003ac0       ??_GShowPreOrNextPageVideoParams@proto@sdk@electron@com@@UEAAPEAXI@Z 0000000180004ac0 f i electron_sdk.pb.obj
 0001:00003ba0       ??_EShowSharingFrameWindowsParams@proto@sdk@electron@com@@UEAAPEAXI@Z 0000000180004ba0 f i * CIL library *:* CIL module *
 0001:00003ba0       ??_GShowSharingFrameWindowsParams@proto@sdk@electron@com@@UEAAPEAXI@Z 0000000180004ba0 f i electron_sdk.pb.obj
 0001:00003c80       ??_ESwitchSplitScreenModeParams@proto@sdk@electron@com@@UEAAPEAXI@Z 0000000180004c80 f i * CIL library *:* CIL module *
 0001:00003c80       ??_GSwitchSplitScreenModeParams@proto@sdk@electron@com@@UEAAPEAXI@Z 0000000180004c80 f i electron_sdk.pb.obj
 0001:00003d60       ??_ESwitchMinimizeUIMode4FirstScreenMeetingUIWndParams@proto@sdk@electron@com@@UEAAPEAXI@Z 0000000180004d60 f i * CIL library *:* CIL module *
 0001:00003d60       ??_GSwitchMinimizeUIMode4FirstScreenMeetingUIWndParams@proto@sdk@electron@com@@UEAAPEAXI@Z 0000000180004d60 f i electron_sdk.pb.obj
 0001:00003e40       ??_ESwapToShowShareViewOrVideoParams@proto@sdk@electron@com@@UEAAPEAXI@Z 0000000180004e40 f i * CIL library *:* CIL module *
 0001:00003e40       ??_GSwapToShowShareViewOrVideoParams@proto@sdk@electron@com@@UEAAPEAXI@Z 0000000180004e40 f i electron_sdk.pb.obj
 0001:00003f20       ??_EShowSettingDlgParams@proto@sdk@electron@com@@UEAAPEAXI@Z 0000000180004f20 f i * CIL library *:* CIL module *
 0001:00003f20       ??_GShowSettingDlgParams@proto@sdk@electron@com@@UEAAPEAXI@Z 0000000180004f20 f i electron_sdk.pb.obj
 0001:00004030       ??_EScheduleMeetingWithWndParams@proto@sdk@electron@com@@UEAAPEAXI@Z 0000000180005030 f i * CIL library *:* CIL module *
 0001:00004030       ??_GScheduleMeetingWithWndParams@proto@sdk@electron@com@@UEAAPEAXI@Z 0000000180005030 f i electron_sdk.pb.obj
 0001:00004140       ??_EEditMeetingParams@proto@sdk@electron@com@@UEAAPEAXI@Z 0000000180005140 f i * CIL library *:* CIL module *
 0001:00004140       ??_GEditMeetingParams@proto@sdk@electron@com@@UEAAPEAXI@Z 0000000180005140 f i electron_sdk.pb.obj
 0001:00004220       ??_EEditMeetingWithWndParams@proto@sdk@electron@com@@UEAAPEAXI@Z 0000000180005220 f i * CIL library *:* CIL module *
 0001:00004220       ??_GEditMeetingWithWndParams@proto@sdk@electron@com@@UEAAPEAXI@Z 0000000180005220 f i electron_sdk.pb.obj
 0001:00004330       ??_EDeleteMeetingParams@proto@sdk@electron@com@@UEAAPEAXI@Z 0000000180005330 f i * CIL library *:* CIL module *
 0001:00004330       ??_GDeleteMeetingParams@proto@sdk@electron@com@@UEAAPEAXI@Z 0000000180005330 f i electron_sdk.pb.obj
 0001:00004410       ??_EAddCustomizedPictureResourceParams@proto@sdk@electron@com@@UEAAPEAXI@Z 0000000180005410 f i * CIL library *:* CIL module *
 0001:00004410       ??_GAddCustomizedPictureResourceParams@proto@sdk@electron@com@@UEAAPEAXI@Z 0000000180005410 f i electron_sdk.pb.obj
 0001:00004500       ??_EAddCustomizedStringResourceParams@proto@sdk@electron@com@@UEAAPEAXI@Z 0000000180005500 f i * CIL library *:* CIL module *
 0001:00004500       ??_GAddCustomizedStringResourceParams@proto@sdk@electron@com@@UEAAPEAXI@Z 0000000180005500 f i electron_sdk.pb.obj
 0001:000045f0       ??_EAddCustomizedURLResourceParams@proto@sdk@electron@com@@UEAAPEAXI@Z 00000001800055f0 f i * CIL library *:* CIL module *
 0001:000045f0       ??_GAddCustomizedURLResourceParams@proto@sdk@electron@com@@UEAAPEAXI@Z 00000001800055f0 f i electron_sdk.pb.obj
 0001:000046e0       ??_ETryWithMeetingNumberParams@proto@sdk@electron@com@@UEAAPEAXI@Z 00000001800056e0 f i * CIL library *:* CIL module *
 0001:000046e0       ??_GTryWithMeetingNumberParams@proto@sdk@electron@com@@UEAAPEAXI@Z 00000001800056e0 f i electron_sdk.pb.obj
 0001:000047c0       ??_ETryWithPairingCodeParams@proto@sdk@electron@com@@UEAAPEAXI@Z 00000001800057c0 f i * CIL library *:* CIL module *
 0001:000047c0       ??_GTryWithPairingCodeParams@proto@sdk@electron@com@@UEAAPEAXI@Z 00000001800057c0 f i electron_sdk.pb.obj
 0001:000048b0       ??_EShowPanelParams@proto@sdk@electron@com@@UEAAPEAXI@Z 00000001800058b0 f i * CIL library *:* CIL module *
 0001:000048b0       ??_GShowPanelParams@proto@sdk@electron@com@@UEAAPEAXI@Z 00000001800058b0 f i electron_sdk.pb.obj
 0001:00004990       ??_EStartAnnotationParams@proto@sdk@electron@com@@UEAAPEAXI@Z 0000000180005990 f i * CIL library *:* CIL module *
 0001:00004990       ??_GStartAnnotationParams@proto@sdk@electron@com@@UEAAPEAXI@Z 0000000180005990 f i electron_sdk.pb.obj
 0001:00004a80       ??_EStopAnnotationParams@proto@sdk@electron@com@@UEAAPEAXI@Z 0000000180005a80 f i * CIL library *:* CIL module *
 0001:00004a80       ??_GStopAnnotationParams@proto@sdk@electron@com@@UEAAPEAXI@Z 0000000180005a80 f i electron_sdk.pb.obj
 0001:00004b60       ??_ESetToolParams@proto@sdk@electron@com@@UEAAPEAXI@Z 0000000180005b60 f i * CIL library *:* CIL module *
 0001:00004b60       ??_GSetToolParams@proto@sdk@electron@com@@UEAAPEAXI@Z 0000000180005b60 f i electron_sdk.pb.obj
 0001:00004c40       ??_EClearAnnotationParams@proto@sdk@electron@com@@UEAAPEAXI@Z 0000000180005c40 f i * CIL library *:* CIL module *
 0001:00004c40       ??_GClearAnnotationParams@proto@sdk@electron@com@@UEAAPEAXI@Z 0000000180005c40 f i electron_sdk.pb.obj
 0001:00004d20       ??_ESetColorParams@proto@sdk@electron@com@@UEAAPEAXI@Z 0000000180005d20 f i * CIL library *:* CIL module *
 0001:00004d20       ??_GSetColorParams@proto@sdk@electron@com@@UEAAPEAXI@Z 0000000180005d20 f i electron_sdk.pb.obj
 0001:00004e10       ??_ESetLineWidthParams@proto@sdk@electron@com@@UEAAPEAXI@Z 0000000180005e10 f i * CIL library *:* CIL module *
 0001:00004e10       ??_GSetLineWidthParams@proto@sdk@electron@com@@UEAAPEAXI@Z 0000000180005e10 f i electron_sdk.pb.obj
 0001:00004f00       ??_EUndoParams@proto@sdk@electron@com@@UEAAPEAXI@Z 0000000180005f00 f i * CIL library *:* CIL module *
 0001:00004f00       ??_GUndoParams@proto@sdk@electron@com@@UEAAPEAXI@Z 0000000180005f00 f i electron_sdk.pb.obj
 0001:00004fe0       ??_ERedoParams@proto@sdk@electron@com@@UEAAPEAXI@Z 0000000180005fe0 f i * CIL library *:* CIL module *
 0001:00004fe0       ??_GRedoParams@proto@sdk@electron@com@@UEAAPEAXI@Z 0000000180005fe0 f i electron_sdk.pb.obj
 0001:000050c0       ??_EMuteAudioParams@proto@sdk@electron@com@@UEAAPEAXI@Z 00000001800060c0 f i * CIL library *:* CIL module *
 0001:000050c0       ??_GMuteAudioParams@proto@sdk@electron@com@@UEAAPEAXI@Z 00000001800060c0 f i electron_sdk.pb.obj
 0001:000051a0       ??_EUnmuteAudioParams@proto@sdk@electron@com@@UEAAPEAXI@Z 00000001800061a0 f i * CIL library *:* CIL module *
 0001:000051a0       ??_GUnmuteAudioParams@proto@sdk@electron@com@@UEAAPEAXI@Z 00000001800061a0 f i electron_sdk.pb.obj
 0001:00005280       ??_EEnablePlayChimeWhenEnterOrExitParams@proto@sdk@electron@com@@UEAAPEAXI@Z 0000000180006280 f i * CIL library *:* CIL module *
 0001:00005280       ??_GEnablePlayChimeWhenEnterOrExitParams@proto@sdk@electron@com@@UEAAPEAXI@Z 0000000180006280 f i electron_sdk.pb.obj
 0001:00005360       ??_EEnableMuteOnEntryParams@proto@sdk@electron@com@@UEAAPEAXI@Z 0000000180006360 f i * CIL library *:* CIL module *
 0001:00005360       ??_GEnableMuteOnEntryParams@proto@sdk@electron@com@@UEAAPEAXI@Z 0000000180006360 f i electron_sdk.pb.obj
 0001:00005440       ??_EEnablePlayMeetingAudioParams@proto@sdk@electron@com@@UEAAPEAXI@Z 0000000180006440 f i * CIL library *:* CIL module *
 0001:00005440       ??_GEnablePlayMeetingAudioParams@proto@sdk@electron@com@@UEAAPEAXI@Z 0000000180006440 f i electron_sdk.pb.obj
 0001:00005520       ??_EEnableInviteButtonOnMeetingUIParams@proto@sdk@electron@com@@UEAAPEAXI@Z 0000000180006520 f i * CIL library *:* CIL module *
 0001:00005520       ??_GEnableInviteButtonOnMeetingUIParams@proto@sdk@electron@com@@UEAAPEAXI@Z 0000000180006520 f i electron_sdk.pb.obj
 0001:00005600       ??_ESetFloatVideoPosParams@proto@sdk@electron@com@@UEAAPEAXI@Z 0000000180006600 f i * CIL library *:* CIL module *
 0001:00005600       ??_GSetFloatVideoPosParams@proto@sdk@electron@com@@UEAAPEAXI@Z 0000000180006600 f i electron_sdk.pb.obj
 0001:00005710       ??_ESetBottomFloatToolBarWndVisibilityParams@proto@sdk@electron@com@@UEAAPEAXI@Z 0000000180006710 f i * CIL library *:* CIL module *
 0001:00005710       ??_GSetBottomFloatToolBarWndVisibilityParams@proto@sdk@electron@com@@UEAAPEAXI@Z 0000000180006710 f i electron_sdk.pb.obj
 0001:000057f0       ??_ESetSharingToolBarVisibilityParams@proto@sdk@electron@com@@UEAAPEAXI@Z 00000001800067f0 f i * CIL library *:* CIL module *
 0001:000057f0       ??_GSetSharingToolBarVisibilityParams@proto@sdk@electron@com@@UEAAPEAXI@Z 00000001800067f0 f i electron_sdk.pb.obj
 0001:000058d0       ??_ESetDirectShareMonitorIDParams@proto@sdk@electron@com@@UEAAPEAXI@Z 00000001800068d0 f i * CIL library *:* CIL module *
 0001:000058d0       ??_GSetDirectShareMonitorIDParams@proto@sdk@electron@com@@UEAAPEAXI@Z 00000001800068d0 f i electron_sdk.pb.obj
 0001:000059c0       ??_ESetMeetingUIPosParams@proto@sdk@electron@com@@UEAAPEAXI@Z 00000001800069c0 f i * CIL library *:* CIL module *
 0001:000059c0       ??_GSetMeetingUIPosParams@proto@sdk@electron@com@@UEAAPEAXI@Z 00000001800069c0 f i electron_sdk.pb.obj
 0001:00005ad0       ??_EDisableWaitingForHostDialogParams@proto@sdk@electron@com@@UEAAPEAXI@Z 0000000180006ad0 f i * CIL library *:* CIL module *
 0001:00005ad0       ??_GDisableWaitingForHostDialogParams@proto@sdk@electron@com@@UEAAPEAXI@Z 0000000180006ad0 f i electron_sdk.pb.obj
 0001:00005bb0       ??_EDisablePopupMeetingWrongPSWDlgParams@proto@sdk@electron@com@@UEAAPEAXI@Z 0000000180006bb0 f i * CIL library *:* CIL module *
 0001:00005bb0       ??_GDisablePopupMeetingWrongPSWDlgParams@proto@sdk@electron@com@@UEAAPEAXI@Z 0000000180006bb0 f i electron_sdk.pb.obj
 0001:00005c90       ??_EEnableAutoEndOtherMeetingWhenStartMeetingParams@proto@sdk@electron@com@@UEAAPEAXI@Z 0000000180006c90 f i * CIL library *:* CIL module *
 0001:00005c90       ??_GEnableAutoEndOtherMeetingWhenStartMeetingParams@proto@sdk@electron@com@@UEAAPEAXI@Z 0000000180006c90 f i electron_sdk.pb.obj
 0001:00005d70       ??_EEnableLButtonDBClick4SwitchFullScreenModeParams@proto@sdk@electron@com@@UEAAPEAXI@Z 0000000180006d70 f i * CIL library *:* CIL module *
 0001:00005d70       ??_GEnableLButtonDBClick4SwitchFullScreenModeParams@proto@sdk@electron@com@@UEAAPEAXI@Z 0000000180006d70 f i electron_sdk.pb.obj
 0001:00005e50       ??_ESetFloatVideoWndVisibilityParams@proto@sdk@electron@com@@UEAAPEAXI@Z 0000000180006e50 f i * CIL library *:* CIL module *
 0001:00005e50       ??_GSetFloatVideoWndVisibilityParams@proto@sdk@electron@com@@UEAAPEAXI@Z 0000000180006e50 f i electron_sdk.pb.obj
 0001:00005f30       ??_EPrePopulateWebinarRegistrationInfoParams@proto@sdk@electron@com@@UEAAPEAXI@Z 0000000180006f30 f i * CIL library *:* CIL module *
 0001:00005f30       ??_GPrePopulateWebinarRegistrationInfoParams@proto@sdk@electron@com@@UEAAPEAXI@Z 0000000180006f30 f i electron_sdk.pb.obj
 0001:00006020       ??_EEnableAutoAdjustSpeakerVolumeWhenJoinAudioParams@proto@sdk@electron@com@@UEAAPEAXI@Z 0000000180007020 f i * CIL library *:* CIL module *
 0001:00006020       ??_GEnableAutoAdjustSpeakerVolumeWhenJoinAudioParams@proto@sdk@electron@com@@UEAAPEAXI@Z 0000000180007020 f i electron_sdk.pb.obj
 0001:00006100       ??_EEnableAutoAdjustMicVolumeWhenJoinAudioParams@proto@sdk@electron@com@@UEAAPEAXI@Z 0000000180007100 f i * CIL library *:* CIL module *
 0001:00006100       ??_GEnableAutoAdjustMicVolumeWhenJoinAudioParams@proto@sdk@electron@com@@UEAAPEAXI@Z 0000000180007100 f i electron_sdk.pb.obj
 0001:000061e0       ??_EConfigDSCPParams@proto@sdk@electron@com@@UEAAPEAXI@Z 00000001800071e0 f i * CIL library *:* CIL module *
 0001:000061e0       ??_GConfigDSCPParams@proto@sdk@electron@com@@UEAAPEAXI@Z 00000001800071e0 f i electron_sdk.pb.obj
 0001:000062c0       ??_EEnableHIdeFullPhoneNumber4PureCallinUserParams@proto@sdk@electron@com@@UEAAPEAXI@Z 00000001800072c0 f i * CIL library *:* CIL module *
 0001:000062c0       ??_GEnableHIdeFullPhoneNumber4PureCallinUserParams@proto@sdk@electron@com@@UEAAPEAXI@Z 00000001800072c0 f i electron_sdk.pb.obj
 0001:000063a0       ??_EEnableShareIOSDeviceParams@proto@sdk@electron@com@@UEAAPEAXI@Z 00000001800073a0 f i * CIL library *:* CIL module *
 0001:000063a0       ??_GEnableShareIOSDeviceParams@proto@sdk@electron@com@@UEAAPEAXI@Z 00000001800073a0 f i electron_sdk.pb.obj
 0001:00006480       ??_EEnableShareWhiteBoardParams@proto@sdk@electron@com@@UEAAPEAXI@Z 0000000180007480 f i * CIL library *:* CIL module *
 0001:00006480       ??_GEnableShareWhiteBoardParams@proto@sdk@electron@com@@UEAAPEAXI@Z 0000000180007480 f i electron_sdk.pb.obj
 0001:00006560       ??_EEnableLengthLimitationOfMeetingNumberParams@proto@sdk@electron@com@@UEAAPEAXI@Z 0000000180007560 f i * CIL library *:* CIL module *
 0001:00006560       ??_GEnableLengthLimitationOfMeetingNumberParams@proto@sdk@electron@com@@UEAAPEAXI@Z 0000000180007560 f i electron_sdk.pb.obj
 0001:00006640       ??_EForceDisableMultiShareParams@proto@sdk@electron@com@@UEAAPEAXI@Z 0000000180007640 f i * CIL library *:* CIL module *
 0001:00006640       ??_GForceDisableMultiShareParams@proto@sdk@electron@com@@UEAAPEAXI@Z 0000000180007640 f i electron_sdk.pb.obj
 0001:00006720       ??_EEnableZoomDocsParams@proto@sdk@electron@com@@UEAAPEAXI@Z 0000000180007720 f i * CIL library *:* CIL module *
 0001:00006720       ??_GEnableZoomDocsParams@proto@sdk@electron@com@@UEAAPEAXI@Z 0000000180007720 f i electron_sdk.pb.obj
 0001:00006800       ??_EEnableLocalRecordingConverProgressBarDialogParams@proto@sdk@electron@com@@UEAAPEAXI@Z 0000000180007800 f i * CIL library *:* CIL module *
 0001:00006800       ??_GEnableLocalRecordingConverProgressBarDialogParams@proto@sdk@electron@com@@UEAAPEAXI@Z 0000000180007800 f i electron_sdk.pb.obj
 0001:000068e0       ??_ESetMaxDurationForOnlyHostInMeetingParams@proto@sdk@electron@com@@UEAAPEAXI@Z 00000001800078e0 f i * CIL library *:* CIL module *
 0001:000068e0       ??_GSetMaxDurationForOnlyHostInMeetingParams@proto@sdk@electron@com@@UEAAPEAXI@Z 00000001800078e0 f i electron_sdk.pb.obj
 0001:000069c0       ??_EEnableApproveRemoteControlDlgParams@proto@sdk@electron@com@@UEAAPEAXI@Z 00000001800079c0 f i * CIL library *:* CIL module *
 0001:000069c0       ??_GEnableApproveRemoteControlDlgParams@proto@sdk@electron@com@@UEAAPEAXI@Z 00000001800079c0 f i electron_sdk.pb.obj
 0001:00006aa0       ??_EEnableDeclineRemoteControlResponseDlgParams@proto@sdk@electron@com@@UEAAPEAXI@Z 0000000180007aa0 f i * CIL library *:* CIL module *
 0001:00006aa0       ??_GEnableDeclineRemoteControlResponseDlgParams@proto@sdk@electron@com@@UEAAPEAXI@Z 0000000180007aa0 f i electron_sdk.pb.obj
 0001:00006b80       ??_EEnableLeaveMeetingOptionForHostParams@proto@sdk@electron@com@@UEAAPEAXI@Z 0000000180007b80 f i * CIL library *:* CIL module *
 0001:00006b80       ??_GEnableLeaveMeetingOptionForHostParams@proto@sdk@electron@com@@UEAAPEAXI@Z 0000000180007b80 f i electron_sdk.pb.obj
 0001:00006c60       ??_EEnableVideoButtonOnMeetingUIParams@proto@sdk@electron@com@@UEAAPEAXI@Z 0000000180007c60 f i * CIL library *:* CIL module *
 0001:00006c60       ??_GEnableVideoButtonOnMeetingUIParams@proto@sdk@electron@com@@UEAAPEAXI@Z 0000000180007c60 f i electron_sdk.pb.obj
 0001:00006d40       ??_EEnableAudioButtonOnMeetingUIParams@proto@sdk@electron@com@@UEAAPEAXI@Z 0000000180007d40 f i * CIL library *:* CIL module *
 0001:00006d40       ??_GEnableAudioButtonOnMeetingUIParams@proto@sdk@electron@com@@UEAAPEAXI@Z 0000000180007d40 f i electron_sdk.pb.obj
 0001:00006e20       ??_EEnableEnterAndExitFullScreenButtonOnMeetingUIParams@proto@sdk@electron@com@@UEAAPEAXI@Z 0000000180007e20 f i * CIL library *:* CIL module *
 0001:00006e20       ??_GEnableEnterAndExitFullScreenButtonOnMeetingUIParams@proto@sdk@electron@com@@UEAAPEAXI@Z 0000000180007e20 f i electron_sdk.pb.obj
 0001:00006f00       ??_ERedirectClickShareBTNEventParams@proto@sdk@electron@com@@UEAAPEAXI@Z 0000000180007f00 f i * CIL library *:* CIL module *
 0001:00006f00       ??_GRedirectClickShareBTNEventParams@proto@sdk@electron@com@@UEAAPEAXI@Z 0000000180007f00 f i electron_sdk.pb.obj
 0001:00006fe0       ??_ERedirectClickEndMeetingBTNEventParams@proto@sdk@electron@com@@UEAAPEAXI@Z 0000000180007fe0 f i * CIL library *:* CIL module *
 0001:00006fe0       ??_GRedirectClickEndMeetingBTNEventParams@proto@sdk@electron@com@@UEAAPEAXI@Z 0000000180007fe0 f i electron_sdk.pb.obj
 0001:000070c0       ??_ERedirectFreeMeetingEndingReminderDlgParams@proto@sdk@electron@com@@UEAAPEAXI@Z 00000001800080c0 f i * CIL library *:* CIL module *
 0001:000070c0       ??_GRedirectFreeMeetingEndingReminderDlgParams@proto@sdk@electron@com@@UEAAPEAXI@Z 00000001800080c0 f i electron_sdk.pb.obj
 0001:000071a0       ??_ERedirectClickCustomLiveStreamMenuEventParams@proto@sdk@electron@com@@UEAAPEAXI@Z 00000001800081a0 f i * CIL library *:* CIL module *
 0001:000071a0       ??_GRedirectClickCustomLiveStreamMenuEventParams@proto@sdk@electron@com@@UEAAPEAXI@Z 00000001800081a0 f i electron_sdk.pb.obj
 0001:00007280       ??_ERedirectClickParticipantListBTNEventParams@proto@sdk@electron@com@@UEAAPEAXI@Z 0000000180008280 f i * CIL library *:* CIL module *
 0001:00007280       ??_GRedirectClickParticipantListBTNEventParams@proto@sdk@electron@com@@UEAAPEAXI@Z 0000000180008280 f i electron_sdk.pb.obj
 0001:00007360       ??_ERedirectClickCCBTNEventParams@proto@sdk@electron@com@@UEAAPEAXI@Z 0000000180008360 f i * CIL library *:* CIL module *
 0001:00007360       ??_GRedirectClickCCBTNEventParams@proto@sdk@electron@com@@UEAAPEAXI@Z 0000000180008360 f i electron_sdk.pb.obj
 0001:00007440       ??_ERedirectClickAudioBTNEventParams@proto@sdk@electron@com@@UEAAPEAXI@Z 0000000180008440 f i * CIL library *:* CIL module *
 0001:00007440       ??_GRedirectClickAudioBTNEventParams@proto@sdk@electron@com@@UEAAPEAXI@Z 0000000180008440 f i electron_sdk.pb.obj
 0001:00007520       ??_ERedirectClickAudioMenuBTNEventParams@proto@sdk@electron@com@@UEAAPEAXI@Z 0000000180008520 f i * CIL library *:* CIL module *
 0001:00007520       ??_GRedirectClickAudioMenuBTNEventParams@proto@sdk@electron@com@@UEAAPEAXI@Z 0000000180008520 f i electron_sdk.pb.obj
 0001:00007600       ??_ERedirectMeetingWarningMsgParams@proto@sdk@electron@com@@UEAAPEAXI@Z 0000000180008600 f i * CIL library *:* CIL module *
 0001:00007600       ??_GRedirectMeetingWarningMsgParams@proto@sdk@electron@com@@UEAAPEAXI@Z 0000000180008600 f i electron_sdk.pb.obj
 0001:000076e0       ??_EEnableToolTipsShowParams@proto@sdk@electron@com@@UEAAPEAXI@Z 00000001800086e0 f i * CIL library *:* CIL module *
 0001:000076e0       ??_GEnableToolTipsShowParams@proto@sdk@electron@com@@UEAAPEAXI@Z 00000001800086e0 f i electron_sdk.pb.obj
 0001:000077c0       ??_EEnableAirplayInstructionWindowParams@proto@sdk@electron@com@@UEAAPEAXI@Z 00000001800087c0 f i * CIL library *:* CIL module *
 0001:000077c0       ??_GEnableAirplayInstructionWindowParams@proto@sdk@electron@com@@UEAAPEAXI@Z 00000001800087c0 f i electron_sdk.pb.obj
 0001:000078a0       ??_EEnableClaimHostFeatureParams@proto@sdk@electron@com@@UEAAPEAXI@Z 00000001800088a0 f i * CIL library *:* CIL module *
 0001:000078a0       ??_GEnableClaimHostFeatureParams@proto@sdk@electron@com@@UEAAPEAXI@Z 00000001800088a0 f i electron_sdk.pb.obj
 0001:00007980       ??_EEnableAutoHideJoinAudioDialogParams@proto@sdk@electron@com@@UEAAPEAXI@Z 0000000180008980 f i * CIL library *:* CIL module *
 0001:00007980       ??_GEnableAutoHideJoinAudioDialogParams@proto@sdk@electron@com@@UEAAPEAXI@Z 0000000180008980 f i electron_sdk.pb.obj
 0001:00007a60       ??_EAlwaysShowIconOnTaskBarParams@proto@sdk@electron@com@@UEAAPEAXI@Z 0000000180008a60 f i * CIL library *:* CIL module *
 0001:00007a60       ??_GAlwaysShowIconOnTaskBarParams@proto@sdk@electron@com@@UEAAPEAXI@Z 0000000180008a60 f i electron_sdk.pb.obj
 0001:00007b40       ??_EDisableSplitScreenModeUIElementsParams@proto@sdk@electron@com@@UEAAPEAXI@Z 0000000180008b40 f i * CIL library *:* CIL module *
 0001:00007b40       ??_GDisableSplitScreenModeUIElementsParams@proto@sdk@electron@com@@UEAAPEAXI@Z 0000000180008b40 f i electron_sdk.pb.obj
 0001:00007c20       ??_ESetShowAudioUseComputerSoundChkboxParams@proto@sdk@electron@com@@UEAAPEAXI@Z 0000000180008c20 f i * CIL library *:* CIL module *
 0001:00007c20       ??_GSetShowAudioUseComputerSoundChkboxParams@proto@sdk@electron@com@@UEAAPEAXI@Z 0000000180008c20 f i electron_sdk.pb.obj
 0001:00007d00       ??_ESetShowCallInTabParams@proto@sdk@electron@com@@UEAAPEAXI@Z 0000000180008d00 f i * CIL library *:* CIL module *
 0001:00007d00       ??_GSetShowCallInTabParams@proto@sdk@electron@com@@UEAAPEAXI@Z 0000000180008d00 f i electron_sdk.pb.obj
 0001:00007de0       ??_ESetShowCallMeTabParams@proto@sdk@electron@com@@UEAAPEAXI@Z 0000000180008de0 f i * CIL library *:* CIL module *
 0001:00007de0       ??_GSetShowCallMeTabParams@proto@sdk@electron@com@@UEAAPEAXI@Z 0000000180008de0 f i electron_sdk.pb.obj
 0001:00007ec0       ??_EDisableTopMostAttr4SettingDialogParams@proto@sdk@electron@com@@UEAAPEAXI@Z 0000000180008ec0 f i * CIL library *:* CIL module *
 0001:00007ec0       ??_GDisableTopMostAttr4SettingDialogParams@proto@sdk@electron@com@@UEAAPEAXI@Z 0000000180008ec0 f i electron_sdk.pb.obj
 0001:00007fa0       ??_EEnableGrabShareWithoutReminderParams@proto@sdk@electron@com@@UEAAPEAXI@Z 0000000180008fa0 f i * CIL library *:* CIL module *
 0001:00007fa0       ??_GEnableGrabShareWithoutReminderParams@proto@sdk@electron@com@@UEAAPEAXI@Z 0000000180008fa0 f i electron_sdk.pb.obj
 0001:00008080       ??_EEnableShowShareSwitchMultiToSingleConfirmDlgParams@proto@sdk@electron@com@@UEAAPEAXI@Z 0000000180009080 f i * CIL library *:* CIL module *
 0001:00008080       ??_GEnableShowShareSwitchMultiToSingleConfirmDlgParams@proto@sdk@electron@com@@UEAAPEAXI@Z 0000000180009080 f i electron_sdk.pb.obj
 0001:00008160       ??_EDisableFreeMeetingRemainTimeNotifyParams@proto@sdk@electron@com@@UEAAPEAXI@Z 0000000180009160 f i * CIL library *:* CIL module *
 0001:00008160       ??_GDisableFreeMeetingRemainTimeNotifyParams@proto@sdk@electron@com@@UEAAPEAXI@Z 0000000180009160 f i electron_sdk.pb.obj
 0001:00008240       ??_EHideChatItemOnMeetingUIParams@proto@sdk@electron@com@@UEAAPEAXI@Z 0000000180009240 f i * CIL library *:* CIL module *
 0001:00008240       ??_GHideChatItemOnMeetingUIParams@proto@sdk@electron@com@@UEAAPEAXI@Z 0000000180009240 f i electron_sdk.pb.obj
 0001:00008320       ??_EHideRecordItemOnMeetingUIParams@proto@sdk@electron@com@@UEAAPEAXI@Z 0000000180009320 f i * CIL library *:* CIL module *
 0001:00008320       ??_GHideRecordItemOnMeetingUIParams@proto@sdk@electron@com@@UEAAPEAXI@Z 0000000180009320 f i electron_sdk.pb.obj
 0001:00008400       ??_EHideUpgradeFreeMeetingButtonParams@proto@sdk@electron@com@@UEAAPEAXI@Z 0000000180009400 f i * CIL library *:* CIL module *
 0001:00008400       ??_GHideUpgradeFreeMeetingButtonParams@proto@sdk@electron@com@@UEAAPEAXI@Z 0000000180009400 f i electron_sdk.pb.obj
 0001:000084e0       ??_ESetShowInviteDlgTabPageParams@proto@sdk@electron@com@@UEAAPEAXI@Z 00000001800094e0 f i * CIL library *:* CIL module *
 0001:000084e0       ??_GSetShowInviteDlgTabPageParams@proto@sdk@electron@com@@UEAAPEAXI@Z 00000001800094e0 f i electron_sdk.pb.obj
 0001:000085c0       ??_ESetShowH323SubTabPageParams@proto@sdk@electron@com@@UEAAPEAXI@Z 00000001800095c0 f i * CIL library *:* CIL module *
 0001:000085c0       ??_GSetShowH323SubTabPageParams@proto@sdk@electron@com@@UEAAPEAXI@Z 00000001800095c0 f i electron_sdk.pb.obj
 0001:000086a0       ??_EHideSwitchCameraButtonParams@proto@sdk@electron@com@@UEAAPEAXI@Z 00000001800096a0 f i * CIL library *:* CIL module *
 0001:000086a0       ??_GHideSwitchCameraButtonParams@proto@sdk@electron@com@@UEAAPEAXI@Z 00000001800096a0 f i electron_sdk.pb.obj
 0001:00008780       ??_EHideCopyUrlOnInviteWindowParams@proto@sdk@electron@com@@UEAAPEAXI@Z 0000000180009780 f i * CIL library *:* CIL module *
 0001:00008780       ??_GHideCopyUrlOnInviteWindowParams@proto@sdk@electron@com@@UEAAPEAXI@Z 0000000180009780 f i electron_sdk.pb.obj
 0001:00008860       ??_EHideCopyInvitationOnInviteWindowParams@proto@sdk@electron@com@@UEAAPEAXI@Z 0000000180009860 f i * CIL library *:* CIL module *
 0001:00008860       ??_GHideCopyInvitationOnInviteWindowParams@proto@sdk@electron@com@@UEAAPEAXI@Z 0000000180009860 f i electron_sdk.pb.obj
 0001:00008940       ??_EHideKeypadButtonOnMeetingWindowParams@proto@sdk@electron@com@@UEAAPEAXI@Z 0000000180009940 f i * CIL library *:* CIL module *
 0001:00008940       ??_GHideKeypadButtonOnMeetingWindowParams@proto@sdk@electron@com@@UEAAPEAXI@Z 0000000180009940 f i electron_sdk.pb.obj
 0001:00008a20       ??_EHideRemoteControlOnMeetingUIParams@proto@sdk@electron@com@@UEAAPEAXI@Z 0000000180009a20 f i * CIL library *:* CIL module *
 0001:00008a20       ??_GHideRemoteControlOnMeetingUIParams@proto@sdk@electron@com@@UEAAPEAXI@Z 0000000180009a20 f i electron_sdk.pb.obj
 0001:00008b00       ??_EHideQAOnMeetingUIParams@proto@sdk@electron@com@@UEAAPEAXI@Z 0000000180009b00 f i * CIL library *:* CIL module *
 0001:00008b00       ??_GHideQAOnMeetingUIParams@proto@sdk@electron@com@@UEAAPEAXI@Z 0000000180009b00 f i electron_sdk.pb.obj
 0001:00008be0       ??_EHidePollOnMeetingUIParams@proto@sdk@electron@com@@UEAAPEAXI@Z 0000000180009be0 f i * CIL library *:* CIL module *
 0001:00008be0       ??_GHidePollOnMeetingUIParams@proto@sdk@electron@com@@UEAAPEAXI@Z 0000000180009be0 f i electron_sdk.pb.obj
 0001:00008cc0       ??_EEnableInputMeetingPasswordDlgParams@proto@sdk@electron@com@@UEAAPEAXI@Z 0000000180009cc0 f i * CIL library *:* CIL module *
 0001:00008cc0       ??_GEnableInputMeetingPasswordDlgParams@proto@sdk@electron@com@@UEAAPEAXI@Z 0000000180009cc0 f i electron_sdk.pb.obj
 0001:00008da0       ??_EEnableInputMeetingScreenNameDlgParams@proto@sdk@electron@com@@UEAAPEAXI@Z 0000000180009da0 f i * CIL library *:* CIL module *
 0001:00008da0       ??_GEnableInputMeetingScreenNameDlgParams@proto@sdk@electron@com@@UEAAPEAXI@Z 0000000180009da0 f i electron_sdk.pb.obj
 0001:00008e80       ??_ERedirectWebinarNeedRegisterParams@proto@sdk@electron@com@@UEAAPEAXI@Z 0000000180009e80 f i * CIL library *:* CIL module *
 0001:00008e80       ??_GRedirectWebinarNeedRegisterParams@proto@sdk@electron@com@@UEAAPEAXI@Z 0000000180009e80 f i electron_sdk.pb.obj
 0001:00008f60       ??_ERedirectEndOtherMeetingParams@proto@sdk@electron@com@@UEAAPEAXI@Z 0000000180009f60 f i * CIL library *:* CIL module *
 0001:00008f60       ??_GRedirectEndOtherMeetingParams@proto@sdk@electron@com@@UEAAPEAXI@Z 0000000180009f60 f i electron_sdk.pb.obj
 0001:00009040       ??_EEnableForceAutoStartMyVideoWhenJoinMeetingParams@proto@sdk@electron@com@@UEAAPEAXI@Z 000000018000a040 f i * CIL library *:* CIL module *
 0001:00009040       ??_GEnableForceAutoStartMyVideoWhenJoinMeetingParams@proto@sdk@electron@com@@UEAAPEAXI@Z 000000018000a040 f i electron_sdk.pb.obj
 0001:00009120       ??_EEnableForceAutoStopMyVideoWhenJoinMeetingParams@proto@sdk@electron@com@@UEAAPEAXI@Z 000000018000a120 f i * CIL library *:* CIL module *
 0001:00009120       ??_GEnableForceAutoStopMyVideoWhenJoinMeetingParams@proto@sdk@electron@com@@UEAAPEAXI@Z 000000018000a120 f i electron_sdk.pb.obj
 0001:00009200       ??_EDisableAutoShowSelectJoinAudioDlgWhenJoinMeetingParams@proto@sdk@electron@com@@UEAAPEAXI@Z 000000018000a200 f i * CIL library *:* CIL module *
 0001:00009200       ??_GDisableAutoShowSelectJoinAudioDlgWhenJoinMeetingParams@proto@sdk@electron@com@@UEAAPEAXI@Z 000000018000a200 f i electron_sdk.pb.obj
 0001:000092e0       ??_EDisableShowJoinMeetingWndParams@proto@sdk@electron@com@@UEAAPEAXI@Z 000000018000a2e0 f i * CIL library *:* CIL module *
 0001:000092e0       ??_GDisableShowJoinMeetingWndParams@proto@sdk@electron@com@@UEAAPEAXI@Z 000000018000a2e0 f i electron_sdk.pb.obj
 0001:000093c0       ??_EDisableToolbarInviteButtonClickOriginActionParams@proto@sdk@electron@com@@UEAAPEAXI@Z 000000018000a3c0 f i * CIL library *:* CIL module *
 0001:000093c0       ??_GDisableToolbarInviteButtonClickOriginActionParams@proto@sdk@electron@com@@UEAAPEAXI@Z 000000018000a3c0 f i electron_sdk.pb.obj
 0001:000094a0       ??_ESetShowVideoOptimizeChkboxParams@proto@sdk@electron@com@@UEAAPEAXI@Z 000000018000a4a0 f i * CIL library *:* CIL module *
 0001:000094a0       ??_GSetShowVideoOptimizeChkboxParams@proto@sdk@electron@com@@UEAAPEAXI@Z 000000018000a4a0 f i electron_sdk.pb.obj
 0001:00009580       ??_EInputMeetingPasswordAndScreenNameParams@proto@sdk@electron@com@@UEAAPEAXI@Z 000000018000a580 f i * CIL library *:* CIL module *
 0001:00009580       ??_GInputMeetingPasswordAndScreenNameParams@proto@sdk@electron@com@@UEAAPEAXI@Z 000000018000a580 f i electron_sdk.pb.obj
 0001:00009670       ??_EInputMeetingIDAndScreenNameParams@proto@sdk@electron@com@@UEAAPEAXI@Z 000000018000a670 f i * CIL library *:* CIL module *
 0001:00009670       ??_GInputMeetingIDAndScreenNameParams@proto@sdk@electron@com@@UEAAPEAXI@Z 000000018000a670 f i electron_sdk.pb.obj
 0001:00009760       ??_EInputMeetingScreenNameParams@proto@sdk@electron@com@@UEAAPEAXI@Z 000000018000a760 f i * CIL library *:* CIL module *
 0001:00009760       ??_GInputMeetingScreenNameParams@proto@sdk@electron@com@@UEAAPEAXI@Z 000000018000a760 f i electron_sdk.pb.obj
 0001:00009850       ??_EInputWebinarRegisterEmailAndScreenNameParams@proto@sdk@electron@com@@UEAAPEAXI@Z 000000018000a850 f i * CIL library *:* CIL module *
 0001:00009850       ??_GInputWebinarRegisterEmailAndScreenNameParams@proto@sdk@electron@com@@UEAAPEAXI@Z 000000018000a850 f i electron_sdk.pb.obj
 0001:00009940       ??_ECallOutH323Params@proto@sdk@electron@com@@UEAAPEAXI@Z 000000018000a940 f i * CIL library *:* CIL module *
 0001:00009940       ??_GCallOutH323Params@proto@sdk@electron@com@@UEAAPEAXI@Z 000000018000a940 f i electron_sdk.pb.obj
 0001:00009a40       ??_EGetUserInfoByUserIDParams@proto@sdk@electron@com@@UEAAPEAXI@Z 000000018000aa40 f i * CIL library *:* CIL module *
 0001:00009a40       ??_GGetUserInfoByUserIDParams@proto@sdk@electron@com@@UEAAPEAXI@Z 000000018000aa40 f i electron_sdk.pb.obj
 0001:00009b20       ??_EGetBotAuthorizedUserInfoByUserIDParams@proto@sdk@electron@com@@UEAAPEAXI@Z 000000018000ab20 f i * CIL library *:* CIL module *
 0001:00009b20       ??_GGetBotAuthorizedUserInfoByUserIDParams@proto@sdk@electron@com@@UEAAPEAXI@Z 000000018000ab20 f i electron_sdk.pb.obj
 0001:00009c00       ??_EGetAuthorizedBotListByUserIDParams@proto@sdk@electron@com@@UEAAPEAXI@Z 000000018000ac00 f i * CIL library *:* CIL module *
 0001:00009c00       ??_GGetAuthorizedBotListByUserIDParams@proto@sdk@electron@com@@UEAAPEAXI@Z 000000018000ac00 f i electron_sdk.pb.obj
 0001:00009ce0       ??_ECanStartRecordingParams@proto@sdk@electron@com@@UEAAPEAXI@Z 000000018000ace0 f i * CIL library *:* CIL module *
 0001:00009ce0       ??_GCanStartRecordingParams@proto@sdk@electron@com@@UEAAPEAXI@Z 000000018000ace0 f i electron_sdk.pb.obj
 0001:00009dc0       ??_EIsSupportLocalRecordingParams@proto@sdk@electron@com@@UEAAPEAXI@Z 000000018000adc0 f i * CIL library *:* CIL module *
 0001:00009dc0       ??_GIsSupportLocalRecordingParams@proto@sdk@electron@com@@UEAAPEAXI@Z 000000018000adc0 f i electron_sdk.pb.obj
 0001:00009ea0       ??_EAllowLocalRecordingParams@proto@sdk@electron@com@@UEAAPEAXI@Z 000000018000aea0 f i * CIL library *:* CIL module *
 0001:00009ea0       ??_GAllowLocalRecordingParams@proto@sdk@electron@com@@UEAAPEAXI@Z 000000018000aea0 f i electron_sdk.pb.obj
 0001:00009f80       ??_EDisAllowLocalRecordingParams@proto@sdk@electron@com@@UEAAPEAXI@Z 000000018000af80 f i * CIL library *:* CIL module *
 0001:00009f80       ??_GDisAllowLocalRecordingParams@proto@sdk@electron@com@@UEAAPEAXI@Z 000000018000af80 f i electron_sdk.pb.obj
 0001:0000a060       ??_EStartAppShareParams@proto@sdk@electron@com@@UEAAPEAXI@Z 000000018000b060 f i * CIL library *:* CIL module *
 0001:0000a060       ??_GStartAppShareParams@proto@sdk@electron@com@@UEAAPEAXI@Z 000000018000b060 f i electron_sdk.pb.obj
 0001:0000a150       ??_EStartMonitorShareParams@proto@sdk@electron@com@@UEAAPEAXI@Z 000000018000b150 f i * CIL library *:* CIL module *
 0001:0000a150       ??_GStartMonitorShareParams@proto@sdk@electron@com@@UEAAPEAXI@Z 000000018000b150 f i electron_sdk.pb.obj
 0001:0000a240       ??_EMuteVideoParams@proto@sdk@electron@com@@UEAAPEAXI@Z 000000018000b240 f i * CIL library *:* CIL module *
 0001:0000a240       ??_GMuteVideoParams@proto@sdk@electron@com@@UEAAPEAXI@Z 000000018000b240 f i electron_sdk.pb.obj
 0001:0000a320       ??_EUnMuteVideoParams@proto@sdk@electron@com@@UEAAPEAXI@Z 000000018000b320 f i * CIL library *:* CIL module *
 0001:0000a320       ??_GUnMuteVideoParams@proto@sdk@electron@com@@UEAAPEAXI@Z 000000018000b320 f i electron_sdk.pb.obj
 0001:0000a400       ??_EPinVideoToFirstViewParams@proto@sdk@electron@com@@UEAAPEAXI@Z 000000018000b400 f i * CIL library *:* CIL module *
 0001:0000a400       ??_GPinVideoToFirstViewParams@proto@sdk@electron@com@@UEAAPEAXI@Z 000000018000b400 f i electron_sdk.pb.obj
 0001:0000a4e0       ??_ESpotlightVideoParams@proto@sdk@electron@com@@UEAAPEAXI@Z 000000018000b4e0 f i * CIL library *:* CIL module *
 0001:0000a4e0       ??_GSpotlightVideoParams@proto@sdk@electron@com@@UEAAPEAXI@Z 000000018000b4e0 f i electron_sdk.pb.obj
 0001:0000a5c0       ??_EHideOrShowNoVideoUserOnVideoWallParams@proto@sdk@electron@com@@UEAAPEAXI@Z 000000018000b5c0 f i * CIL library *:* CIL module *
 0001:0000a5c0       ??_GHideOrShowNoVideoUserOnVideoWallParams@proto@sdk@electron@com@@UEAAPEAXI@Z 000000018000b5c0 f i electron_sdk.pb.obj
 0001:0000a6a0       ??_ECreateRendererParams@proto@sdk@electron@com@@UEAAPEAXI@Z 000000018000b6a0 f i * CIL library *:* CIL module *
 0001:0000a6a0       ??_GCreateRendererParams@proto@sdk@electron@com@@UEAAPEAXI@Z 000000018000b6a0 f i electron_sdk.pb.obj
 0001:0000a780       ??_EDestroyRendererParams@proto@sdk@electron@com@@UEAAPEAXI@Z 000000018000b780 f i * CIL library *:* CIL module *
 0001:0000a780       ??_GDestroyRendererParams@proto@sdk@electron@com@@UEAAPEAXI@Z 000000018000b780 f i electron_sdk.pb.obj
 0001:0000a860       ??_ESubscribeParams@proto@sdk@electron@com@@UEAAPEAXI@Z 000000018000b860 f i * CIL library *:* CIL module *
 0001:0000a860       ??_GSubscribeParams@proto@sdk@electron@com@@UEAAPEAXI@Z 000000018000b860 f i electron_sdk.pb.obj
 0001:0000a940       ??_EUnSubscribeParams@proto@sdk@electron@com@@UEAAPEAXI@Z 000000018000b940 f i * CIL library *:* CIL module *
 0001:0000a940       ??_GUnSubscribeParams@proto@sdk@electron@com@@UEAAPEAXI@Z 000000018000b940 f i electron_sdk.pb.obj
 0001:0000aa20       ??_ESetRawDataResolutionParams@proto@sdk@electron@com@@UEAAPEAXI@Z 000000018000ba20 f i * CIL library *:* CIL module *
 0001:0000aa20       ??_GSetRawDataResolutionParams@proto@sdk@electron@com@@UEAAPEAXI@Z 000000018000ba20 f i electron_sdk.pb.obj
 0001:0000ab00       ??_EGetResolutionParams@proto@sdk@electron@com@@UEAAPEAXI@Z 000000018000bb00 f i * CIL library *:* CIL module *
 0001:0000ab00       ??_GGetResolutionParams@proto@sdk@electron@com@@UEAAPEAXI@Z 000000018000bb00 f i electron_sdk.pb.obj
 0001:0000abe0       ??_EGetRawDataTypeParams@proto@sdk@electron@com@@UEAAPEAXI@Z 000000018000bbe0 f i * CIL library *:* CIL module *
 0001:0000abe0       ??_GGetRawDataTypeParams@proto@sdk@electron@com@@UEAAPEAXI@Z 000000018000bbe0 f i electron_sdk.pb.obj
 0001:0000acc0       ??_EGetSubscribeIdParams@proto@sdk@electron@com@@UEAAPEAXI@Z 000000018000bcc0 f i * CIL library *:* CIL module *
 0001:0000acc0       ??_GGetSubscribeIdParams@proto@sdk@electron@com@@UEAAPEAXI@Z 000000018000bcc0 f i electron_sdk.pb.obj
 0001:0000ada0       ??_EEnableZoomAuthRealNameMeetingUIShownParams@proto@sdk@electron@com@@UEAAPEAXI@Z 000000018000bda0 f i * CIL library *:* CIL module *
 0001:0000ada0       ??_GEnableZoomAuthRealNameMeetingUIShownParams@proto@sdk@electron@com@@UEAAPEAXI@Z 000000018000bda0 f i electron_sdk.pb.obj
 0001:0000ae80       ??_ERetrieveParams@proto@sdk@electron@com@@UEAAPEAXI@Z 000000018000be80 f i * CIL library *:* CIL module *
 0001:0000ae80       ??_GRetrieveParams@proto@sdk@electron@com@@UEAAPEAXI@Z 000000018000be80 f i electron_sdk.pb.obj
 0001:0000af70       ??_EVerifyParams@proto@sdk@electron@com@@UEAAPEAXI@Z 000000018000bf70 f i * CIL library *:* CIL module *
 0001:0000af70       ??_GVerifyParams@proto@sdk@electron@com@@UEAAPEAXI@Z 000000018000bf70 f i electron_sdk.pb.obj
 0001:0000b070       ??_ESetDefaultCellPhoneInfoParams@proto@sdk@electron@com@@UEAAPEAXI@Z 000000018000c070 f i * CIL library *:* CIL module *
 0001:0000b070       ??_GSetDefaultCellPhoneInfoParams@proto@sdk@electron@com@@UEAAPEAXI@Z 000000018000c070 f i electron_sdk.pb.obj
 0001:0000b160       ??_EEnableAlwaysShowMeetingControlsParams@proto@sdk@electron@com@@UEAAPEAXI@Z 000000018000c160 f i * CIL library *:* CIL module *
 0001:0000b160       ??_GEnableAlwaysShowMeetingControlsParams@proto@sdk@electron@com@@UEAAPEAXI@Z 000000018000c160 f i electron_sdk.pb.obj
 0001:0000b240       ??_ESelectMicParams@proto@sdk@electron@com@@UEAAPEAXI@Z 000000018000c240 f i * CIL library *:* CIL module *
 0001:0000b240       ??_GSelectMicParams@proto@sdk@electron@com@@UEAAPEAXI@Z 000000018000c240 f i electron_sdk.pb.obj
 0001:0000b330       ??_ESelectSpeakerParams@proto@sdk@electron@com@@UEAAPEAXI@Z 000000018000c330 f i * CIL library *:* CIL module *
 0001:0000b330       ??_GSelectSpeakerParams@proto@sdk@electron@com@@UEAAPEAXI@Z 000000018000c330 f i electron_sdk.pb.obj
 0001:0000b420       ??_EEnableAutoJoinAudioParams@proto@sdk@electron@com@@UEAAPEAXI@Z 000000018000c420 f i * CIL library *:* CIL module *
 0001:0000b420       ??_GEnableAutoJoinAudioParams@proto@sdk@electron@com@@UEAAPEAXI@Z 000000018000c420 f i electron_sdk.pb.obj
 0001:0000b500       ??_EEnableAutoAdjustMicParams@proto@sdk@electron@com@@UEAAPEAXI@Z 000000018000c500 f i * CIL library *:* CIL module *
 0001:0000b500       ??_GEnableAutoAdjustMicParams@proto@sdk@electron@com@@UEAAPEAXI@Z 000000018000c500 f i electron_sdk.pb.obj
 0001:0000b5e0       ??_EEnableStereoAudioParams@proto@sdk@electron@com@@UEAAPEAXI@Z 000000018000c5e0 f i * CIL library *:* CIL module *
 0001:0000b5e0       ??_GEnableStereoAudioParams@proto@sdk@electron@com@@UEAAPEAXI@Z 000000018000c5e0 f i electron_sdk.pb.obj
 0001:0000b6c0       ??_EEnableMicOriginalInputParams@proto@sdk@electron@com@@UEAAPEAXI@Z 000000018000c6c0 f i * CIL library *:* CIL module *
 0001:0000b6c0       ??_GEnableMicOriginalInputParams@proto@sdk@electron@com@@UEAAPEAXI@Z 000000018000c6c0 f i electron_sdk.pb.obj
 0001:0000b7a0       ??_EEnableHoldSpaceKeyToSpeakParams@proto@sdk@electron@com@@UEAAPEAXI@Z 000000018000c7a0 f i * CIL library *:* CIL module *
 0001:0000b7a0       ??_GEnableHoldSpaceKeyToSpeakParams@proto@sdk@electron@com@@UEAAPEAXI@Z 000000018000c7a0 f i electron_sdk.pb.obj
 0001:0000b880       ??_EEnableAlwaysMuteMicWhenJoinVoipParams@proto@sdk@electron@com@@UEAAPEAXI@Z 000000018000c880 f i * CIL library *:* CIL module *
 0001:0000b880       ??_GEnableAlwaysMuteMicWhenJoinVoipParams@proto@sdk@electron@com@@UEAAPEAXI@Z 000000018000c880 f i electron_sdk.pb.obj
 0001:0000b960       ??_EEnableSuppressAudioNotifyParams@proto@sdk@electron@com@@UEAAPEAXI@Z 000000018000c960 f i * CIL library *:* CIL module *
 0001:0000b960       ??_GEnableSuppressAudioNotifyParams@proto@sdk@electron@com@@UEAAPEAXI@Z 000000018000c960 f i electron_sdk.pb.obj
 0001:0000ba40       ??_ESetEchoCancellationLevelParams@proto@sdk@electron@com@@UEAAPEAXI@Z 000000018000ca40 f i * CIL library *:* CIL module *
 0001:0000ba40       ??_GSetEchoCancellationLevelParams@proto@sdk@electron@com@@UEAAPEAXI@Z 000000018000ca40 f i electron_sdk.pb.obj
 0001:0000bb20       ??_ESetMicVolParams@proto@sdk@electron@com@@UEAAPEAXI@Z 000000018000cb20 f i * CIL library *:* CIL module *
 0001:0000bb20       ??_GSetMicVolParams@proto@sdk@electron@com@@UEAAPEAXI@Z 000000018000cb20 f i electron_sdk.pb.obj
 0001:0000bc00       ??_ESetSpeakerVolParams@proto@sdk@electron@com@@UEAAPEAXI@Z 000000018000cc00 f i * CIL library *:* CIL module *
 0001:0000bc00       ??_GSetSpeakerVolParams@proto@sdk@electron@com@@UEAAPEAXI@Z 000000018000cc00 f i electron_sdk.pb.obj
 0001:0000bce0       ??_EEnableDualScreenModeParams@proto@sdk@electron@com@@UEAAPEAXI@Z 000000018000cce0 f i * CIL library *:* CIL module *
 0001:0000bce0       ??_GEnableDualScreenModeParams@proto@sdk@electron@com@@UEAAPEAXI@Z 000000018000cce0 f i electron_sdk.pb.obj
 0001:0000bdc0       ??_ETurnOffAeroModeInSharingParams@proto@sdk@electron@com@@UEAAPEAXI@Z 000000018000cdc0 f i * CIL library *:* CIL module *
 0001:0000bdc0       ??_GTurnOffAeroModeInSharingParams@proto@sdk@electron@com@@UEAAPEAXI@Z 000000018000cdc0 f i electron_sdk.pb.obj
 0001:0000bea0       ??_EEnableAutoFitToWindowWhenViewSharingParams@proto@sdk@electron@com@@UEAAPEAXI@Z 000000018000cea0 f i * CIL library *:* CIL module *
 0001:0000bea0       ??_GEnableAutoFitToWindowWhenViewSharingParams@proto@sdk@electron@com@@UEAAPEAXI@Z 000000018000cea0 f i electron_sdk.pb.obj
 0001:0000bf80       ??_EEnableAutoFullScreenVideoWhenJoinMeetingParams@proto@sdk@electron@com@@UEAAPEAXI@Z 000000018000cf80 f i * CIL library *:* CIL module *
 0001:0000bf80       ??_GEnableAutoFullScreenVideoWhenJoinMeetingParams@proto@sdk@electron@com@@UEAAPEAXI@Z 000000018000cf80 f i electron_sdk.pb.obj
 0001:0000c060       ??_EEnableSplitScreenModeParams@proto@sdk@electron@com@@UEAAPEAXI@Z 000000018000d060 f i * CIL library *:* CIL module *
 0001:0000c060       ??_GEnableSplitScreenModeParams@proto@sdk@electron@com@@UEAAPEAXI@Z 000000018000d060 f i electron_sdk.pb.obj
 0001:0000c140       ??_EEnableAutoFullScreenVideoWhenViewShareParams@proto@sdk@electron@com@@UEAAPEAXI@Z 000000018000d140 f i * CIL library *:* CIL module *
 0001:0000c140       ??_GEnableAutoFullScreenVideoWhenViewShareParams@proto@sdk@electron@com@@UEAAPEAXI@Z 000000018000d140 f i electron_sdk.pb.obj
 0001:0000c220       ??_EEnableDisplayReminderWindowWhenExitParams@proto@sdk@electron@com@@UEAAPEAXI@Z 000000018000d220 f i * CIL library *:* CIL module *
 0001:0000c220       ??_GEnableDisplayReminderWindowWhenExitParams@proto@sdk@electron@com@@UEAAPEAXI@Z 000000018000d220 f i electron_sdk.pb.obj
 0001:0000c300       ??_EEnableShowMyMeetingElapseTimeParams@proto@sdk@electron@com@@UEAAPEAXI@Z 000000018000d300 f i * CIL library *:* CIL module *
 0001:0000c300       ??_GEnableShowMyMeetingElapseTimeParams@proto@sdk@electron@com@@UEAAPEAXI@Z 000000018000d300 f i electron_sdk.pb.obj
 0001:0000c3e0       ??_EEnableAccelerateGPUWhenShareParams@proto@sdk@electron@com@@UEAAPEAXI@Z 000000018000d3e0 f i * CIL library *:* CIL module *
 0001:0000c3e0       ??_GEnableAccelerateGPUWhenShareParams@proto@sdk@electron@com@@UEAAPEAXI@Z 000000018000d3e0 f i electron_sdk.pb.obj
 0001:0000c4c0       ??_EEnableRemoteControlAllApplicationsParams@proto@sdk@electron@com@@UEAAPEAXI@Z 000000018000d4c0 f i * CIL library *:* CIL module *
 0001:0000c4c0       ??_GEnableRemoteControlAllApplicationsParams@proto@sdk@electron@com@@UEAAPEAXI@Z 000000018000d4c0 f i electron_sdk.pb.obj
 0001:0000c5a0       ??_ESetRecordingPathParams@proto@sdk@electron@com@@UEAAPEAXI@Z 000000018000d5a0 f i * CIL library *:* CIL module *
 0001:0000c5a0       ??_GSetRecordingPathParams@proto@sdk@electron@com@@UEAAPEAXI@Z 000000018000d5a0 f i electron_sdk.pb.obj
 0001:0000c690       ??_EEnableSelectRecordFileLocationAfterMeetingParams@proto@sdk@electron@com@@UEAAPEAXI@Z 000000018000d690 f i * CIL library *:* CIL module *
 0001:0000c690       ??_GEnableSelectRecordFileLocationAfterMeetingParams@proto@sdk@electron@com@@UEAAPEAXI@Z 000000018000d690 f i electron_sdk.pb.obj
 0001:0000c770       ??_EEnableMultiAudioStreamRecordParams@proto@sdk@electron@com@@UEAAPEAXI@Z 000000018000d770 f i * CIL library *:* CIL module *
 0001:0000c770       ??_GEnableMultiAudioStreamRecordParams@proto@sdk@electron@com@@UEAAPEAXI@Z 000000018000d770 f i electron_sdk.pb.obj
 0001:0000c850       ??_EEnableAddTimestampWatermarkParams@proto@sdk@electron@com@@UEAAPEAXI@Z 000000018000d850 f i * CIL library *:* CIL module *
 0001:0000c850       ??_GEnableAddTimestampWatermarkParams@proto@sdk@electron@com@@UEAAPEAXI@Z 000000018000d850 f i electron_sdk.pb.obj
 0001:0000c930       ??_EEnableOptimizeFor3rdPartyVideoEditorParams@proto@sdk@electron@com@@UEAAPEAXI@Z 000000018000d930 f i * CIL library *:* CIL module *
 0001:0000c930       ??_GEnableOptimizeFor3rdPartyVideoEditorParams@proto@sdk@electron@com@@UEAAPEAXI@Z 000000018000d930 f i electron_sdk.pb.obj
 0001:0000ca10       ??_EEnableShowVideoThumbnailWhenShareParams@proto@sdk@electron@com@@UEAAPEAXI@Z 000000018000da10 f i * CIL library *:* CIL module *
 0001:0000ca10       ??_GEnableShowVideoThumbnailWhenShareParams@proto@sdk@electron@com@@UEAAPEAXI@Z 000000018000da10 f i electron_sdk.pb.obj
 0001:0000caf0       ??_EEnablePlaceVideoNextToShareInRecordParams@proto@sdk@electron@com@@UEAAPEAXI@Z 000000018000daf0 f i * CIL library *:* CIL module *
 0001:0000caf0       ??_GEnablePlaceVideoNextToShareInRecordParams@proto@sdk@electron@com@@UEAAPEAXI@Z 000000018000daf0 f i electron_sdk.pb.obj
 0001:0000cbd0       ??_EDisableAdvancedFeatures4GeneralSettingParams@proto@sdk@electron@com@@UEAAPEAXI@Z 000000018000dbd0 f i * CIL library *:* CIL module *
 0001:0000cbd0       ??_GDisableAdvancedFeatures4GeneralSettingParams@proto@sdk@electron@com@@UEAAPEAXI@Z 000000018000dbd0 f i electron_sdk.pb.obj
 0001:0000ccb0       ??_EDisableAccountSettingTabPageParams@proto@sdk@electron@com@@UEAAPEAXI@Z 000000018000dcb0 f i * CIL library *:* CIL module *
 0001:0000ccb0       ??_GDisableAccountSettingTabPageParams@proto@sdk@electron@com@@UEAAPEAXI@Z 000000018000dcb0 f i electron_sdk.pb.obj
 0001:0000cd90       ??_EHideAutoCopyInviteLinkCheckBoxParams@proto@sdk@electron@com@@UEAAPEAXI@Z 000000018000dd90 f i * CIL library *:* CIL module *
 0001:0000cd90       ??_GHideAutoCopyInviteLinkCheckBoxParams@proto@sdk@electron@com@@UEAAPEAXI@Z 000000018000dd90 f i electron_sdk.pb.obj
 0001:0000ce70       ??_EConfigToShowUrlLinksInSettingParams@proto@sdk@electron@com@@UEAAPEAXI@Z 000000018000de70 f i * CIL library *:* CIL module *
 0001:0000ce70       ??_GConfigToShowUrlLinksInSettingParams@proto@sdk@electron@com@@UEAAPEAXI@Z 000000018000de70 f i electron_sdk.pb.obj
 0001:0000cf50       ??_EConfSettingDialogShownTabPageParams@proto@sdk@electron@com@@UEAAPEAXI@Z 000000018000df50 f i * CIL library *:* CIL module *
 0001:0000cf50       ??_GConfSettingDialogShownTabPageParams@proto@sdk@electron@com@@UEAAPEAXI@Z 000000018000df50 f i electron_sdk.pb.obj
 0001:0000d030       ??_ESelectVideoCameraParams@proto@sdk@electron@com@@UEAAPEAXI@Z 000000018000e030 f i * CIL library *:* CIL module *
 0001:0000d030       ??_GSelectVideoCameraParams@proto@sdk@electron@com@@UEAAPEAXI@Z 000000018000e030 f i electron_sdk.pb.obj
 0001:0000d120       ??_EEnableVideoMirrorEffectParams@proto@sdk@electron@com@@UEAAPEAXI@Z 000000018000e120 f i * CIL library *:* CIL module *
 0001:0000d120       ??_GEnableVideoMirrorEffectParams@proto@sdk@electron@com@@UEAAPEAXI@Z 000000018000e120 f i electron_sdk.pb.obj
 0001:0000d200       ??_EEnableFaceBeautyEffectParams@proto@sdk@electron@com@@UEAAPEAXI@Z 000000018000e200 f i * CIL library *:* CIL module *
 0001:0000d200       ??_GEnableFaceBeautyEffectParams@proto@sdk@electron@com@@UEAAPEAXI@Z 000000018000e200 f i electron_sdk.pb.obj
 0001:0000d2e0       ??_EEnableHDVideoParams@proto@sdk@electron@com@@UEAAPEAXI@Z 000000018000e2e0 f i * CIL library *:* CIL module *
 0001:0000d2e0       ??_GEnableHDVideoParams@proto@sdk@electron@com@@UEAAPEAXI@Z 000000018000e2e0 f i electron_sdk.pb.obj
 0001:0000d3c0       ??_EEnableAlwaysShowNameOnVideoParams@proto@sdk@electron@com@@UEAAPEAXI@Z 000000018000e3c0 f i * CIL library *:* CIL module *
 0001:0000d3c0       ??_GEnableAlwaysShowNameOnVideoParams@proto@sdk@electron@com@@UEAAPEAXI@Z 000000018000e3c0 f i electron_sdk.pb.obj
 0001:0000d4a0       ??_EEnableVideoPreviewDialogParams@proto@sdk@electron@com@@UEAAPEAXI@Z 000000018000e4a0 f i * CIL library *:* CIL module *
 0001:0000d4a0       ??_GEnableVideoPreviewDialogParams@proto@sdk@electron@com@@UEAAPEAXI@Z 000000018000e4a0 f i electron_sdk.pb.obj
 0001:0000d580       ??_EEnableAutoTurnOffVideoWhenJoinMeetingParams@proto@sdk@electron@com@@UEAAPEAXI@Z 000000018000e580 f i * CIL library *:* CIL module *
 0001:0000d580       ??_GEnableAutoTurnOffVideoWhenJoinMeetingParams@proto@sdk@electron@com@@UEAAPEAXI@Z 000000018000e580 f i electron_sdk.pb.obj
 0001:0000d660       ??_EEnableSpotlightSelfParams@proto@sdk@electron@com@@UEAAPEAXI@Z 000000018000e660 f i * CIL library *:* CIL module *
 0001:0000d660       ??_GEnableSpotlightSelfParams@proto@sdk@electron@com@@UEAAPEAXI@Z 000000018000e660 f i electron_sdk.pb.obj
 0001:0000d740       ??_EEnableHardwareEncodeParams@proto@sdk@electron@com@@UEAAPEAXI@Z 000000018000e740 f i * CIL library *:* CIL module *
 0001:0000d740       ??_GEnableHardwareEncodeParams@proto@sdk@electron@com@@UEAAPEAXI@Z 000000018000e740 f i electron_sdk.pb.obj
 0001:0000d820       ??_EIsHardwareEncodeEnabledParams@proto@sdk@electron@com@@UEAAPEAXI@Z 000000018000e820 f i * CIL library *:* CIL module *
 0001:0000d820       ??_GIsHardwareEncodeEnabledParams@proto@sdk@electron@com@@UEAAPEAXI@Z 000000018000e820 f i electron_sdk.pb.obj
 0001:0000d900       ??_EEnable49VideoesInGallaryViewParams@proto@sdk@electron@com@@UEAAPEAXI@Z 000000018000e900 f i * CIL library *:* CIL module *
 0001:0000d900       ??_GEnable49VideoesInGallaryViewParams@proto@sdk@electron@com@@UEAAPEAXI@Z 000000018000e900 f i electron_sdk.pb.obj
 0001:0000d9e0       ??_EEnableHideNoVideoUsersOnWallViewParams@proto@sdk@electron@com@@UEAAPEAXI@Z 000000018000e9e0 f i * CIL library *:* CIL module *
 0001:0000d9e0       ??_GEnableHideNoVideoUsersOnWallViewParams@proto@sdk@electron@com@@UEAAPEAXI@Z 000000018000e9e0 f i electron_sdk.pb.obj
 0001:0000dac0       ??_EGenerateSSOLoginWebURLParams@proto@sdk@electron@com@@UEAAPEAXI@Z 000000018000eac0 f i * CIL library *:* CIL module *
 0001:0000dac0       ??_GGenerateSSOLoginWebURLParams@proto@sdk@electron@com@@UEAAPEAXI@Z 000000018000eac0 f i electron_sdk.pb.obj
 0001:0000dbb0       ??_ESSOLoginWithWebUriProtocolParams@proto@sdk@electron@com@@UEAAPEAXI@Z 000000018000ebb0 f i * CIL library *:* CIL module *
 0001:0000dbb0       ??_GSSOLoginWithWebUriProtocolParams@proto@sdk@electron@com@@UEAAPEAXI@Z 000000018000ebb0 f i electron_sdk.pb.obj
 0001:0000dca0       ??_EShowAANPanelParams@proto@sdk@electron@com@@UEAAPEAXI@Z 000000018000eca0 f i * CIL library *:* CIL module *
 0001:0000dca0       ??_GShowAANPanelParams@proto@sdk@electron@com@@UEAAPEAXI@Z 000000018000eca0 f i electron_sdk.pb.obj
 0001:0000dd80       ??_EEnableInviteLinkOnMeetingUIParams@proto@sdk@electron@com@@UEAAPEAXI@Z 000000018000ed80 f i * CIL library *:* CIL module *
 0001:0000dd80       ??_GEnableInviteLinkOnMeetingUIParams@proto@sdk@electron@com@@UEAAPEAXI@Z 000000018000ed80 f i electron_sdk.pb.obj
 0001:0000de60       ??_ESetMeetingTopicParams@proto@sdk@electron@com@@UEAAPEAXI@Z 000000018000ee60 f i * CIL library *:* CIL module *
 0001:0000de60       ??_GSetMeetingTopicParams@proto@sdk@electron@com@@UEAAPEAXI@Z 000000018000ee60 f i electron_sdk.pb.obj
 0001:0000df50       ??_ESetCustomizedCloudRecordingMgrUrlParams@proto@sdk@electron@com@@UEAAPEAXI@Z 000000018000ef50 f i * CIL library *:* CIL module *
 0001:0000df50       ??_GSetCustomizedCloudRecordingMgrUrlParams@proto@sdk@electron@com@@UEAAPEAXI@Z 000000018000ef50 f i electron_sdk.pb.obj
 0001:0000e040       ??_ESetCustomizedInvitationDomainParams@proto@sdk@electron@com@@UEAAPEAXI@Z 000000018000f040 f i * CIL library *:* CIL module *
 0001:0000e040       ??_GSetCustomizedInvitationDomainParams@proto@sdk@electron@com@@UEAAPEAXI@Z 000000018000f040 f i electron_sdk.pb.obj
 0001:0000e130       ??_ESetCustomizedPollingUrlParams@proto@sdk@electron@com@@UEAAPEAXI@Z 000000018000f130 f i * CIL library *:* CIL module *
 0001:0000e130       ??_GSetCustomizedPollingUrlParams@proto@sdk@electron@com@@UEAAPEAXI@Z 000000018000f130 f i electron_sdk.pb.obj
 0001:0000e220       ??_ESetAudioShareModeParams@proto@sdk@electron@com@@UEAAPEAXI@Z 000000018000f220 f i * CIL library *:* CIL module *
 0001:0000e220       ??_GSetAudioShareModeParams@proto@sdk@electron@com@@UEAAPEAXI@Z 000000018000f220 f i electron_sdk.pb.obj
 0001:0000e300       ??_EStartLiveStreamParams@proto@sdk@electron@com@@UEAAPEAXI@Z 000000018000f300 f i * CIL library *:* CIL module *
 0001:0000e300       ??_GStartLiveStreamParams@proto@sdk@electron@com@@UEAAPEAXI@Z 000000018000f300 f i electron_sdk.pb.obj
 0001:0000e3e0       ??_EStartLiveStreamWithSteamingURLParams@proto@sdk@electron@com@@UEAAPEAXI@Z 000000018000f3e0 f i * CIL library *:* CIL module *
 0001:0000e3e0       ??_GStartLiveStreamWithSteamingURLParams@proto@sdk@electron@com@@UEAAPEAXI@Z 000000018000f3e0 f i electron_sdk.pb.obj
 0001:0000e4e0       ??_EStartRawLiveStreamParams@proto@sdk@electron@com@@UEAAPEAXI@Z 000000018000f4e0 f i * CIL library *:* CIL module *
 0001:0000e4e0       ??_GStartRawLiveStreamParams@proto@sdk@electron@com@@UEAAPEAXI@Z 000000018000f4e0 f i electron_sdk.pb.obj
 0001:0000e5d0       ??_EGetLiveStreamItemInfoParams@proto@sdk@electron@com@@UEAAPEAXI@Z 000000018000f5d0 f i * CIL library *:* CIL module *
 0001:0000e5d0       ??_GGetLiveStreamItemInfoParams@proto@sdk@electron@com@@UEAAPEAXI@Z 000000018000f5d0 f i electron_sdk.pb.obj
 0001:0000e6b0       ??_ERequestRawLiveStreamParams@proto@sdk@electron@com@@UEAAPEAXI@Z 000000018000f6b0 f i * CIL library *:* CIL module *
 0001:0000e6b0       ??_GRequestRawLiveStreamParams@proto@sdk@electron@com@@UEAAPEAXI@Z 000000018000f6b0 f i electron_sdk.pb.obj
 0001:0000e7a0       ??_ERemoveRawLiveStreamPrivilegeParams@proto@sdk@electron@com@@UEAAPEAXI@Z 000000018000f7a0 f i * CIL library *:* CIL module *
 0001:0000e7a0       ??_GRemoveRawLiveStreamPrivilegeParams@proto@sdk@electron@com@@UEAAPEAXI@Z 000000018000f7a0 f i electron_sdk.pb.obj
 0001:0000e880       ??_EEnableLiveStreamReminderParams@proto@sdk@electron@com@@UEAAPEAXI@Z 000000018000f880 f i * CIL library *:* CIL module *
 0001:0000e880       ??_GEnableLiveStreamReminderParams@proto@sdk@electron@com@@UEAAPEAXI@Z 000000018000f880 f i electron_sdk.pb.obj
 0001:0000e960       ??_ESetPipeInitParams@proto@sdk@electron@com@@UEAAPEAXI@Z 000000018000f960 f i * CIL library *:* CIL module *
 0001:0000e960       ??_GSetPipeInitParams@proto@sdk@electron@com@@UEAAPEAXI@Z 000000018000f960 f i electron_sdk.pb.obj
 0001:0000e9a0       ??_ESetParticipantsChatPrivilegeParams@proto@sdk@electron@com@@UEAAPEAXI@Z 000000018000f9a0 f i * CIL library *:* CIL module *
 0001:0000e9a0       ??_GSetParticipantsChatPrivilegeParams@proto@sdk@electron@com@@UEAAPEAXI@Z 000000018000f9a0 f i electron_sdk.pb.obj
 0001:0000ea80       ??_EChatMessageIDParams@proto@sdk@electron@com@@UEAAPEAXI@Z 000000018000fa80 f i * CIL library *:* CIL module *
 0001:0000ea80       ??_GChatMessageIDParams@proto@sdk@electron@com@@UEAAPEAXI@Z 000000018000fa80 f i electron_sdk.pb.obj
 0001:0000eb70       ??_ESetChatMessageBuilderParams@proto@sdk@electron@com@@UEAAPEAXI@Z 000000018000fb70 f i * CIL library *:* CIL module *
 0001:0000eb70       ??_GSetChatMessageBuilderParams@proto@sdk@electron@com@@UEAAPEAXI@Z 000000018000fb70 f i electron_sdk.pb.obj
 0001:0000ec60       ??_ETransferFileParams@proto@sdk@electron@com@@UEAAPEAXI@Z 000000018000fc60 f i * CIL library *:* CIL module *
 0001:0000ec60       ??_GTransferFileParams@proto@sdk@electron@com@@UEAAPEAXI@Z 000000018000fc60 f i electron_sdk.pb.obj
 0001:0000ed50       ??_EStartReceiveParams@proto@sdk@electron@com@@UEAAPEAXI@Z 000000018000fd50 f i * CIL library *:* CIL module *
 0001:0000ed50       ??_GStartReceiveParams@proto@sdk@electron@com@@UEAAPEAXI@Z 000000018000fd50 f i electron_sdk.pb.obj
 0001:0000ee40       ??_EEnableWaitingRoomOnEntryParams@proto@sdk@electron@com@@UEAAPEAXI@Z 000000018000fe40 f i * CIL library *:* CIL module *
 0001:0000ee40       ??_GEnableWaitingRoomOnEntryParams@proto@sdk@electron@com@@UEAAPEAXI@Z 000000018000fe40 f i electron_sdk.pb.obj
 0001:0000ef20       ??_EGetWaitingRoomUserInfoByIDParams@proto@sdk@electron@com@@UEAAPEAXI@Z 000000018000ff20 f i * CIL library *:* CIL module *
 0001:0000ef20       ??_GGetWaitingRoomUserInfoByIDParams@proto@sdk@electron@com@@UEAAPEAXI@Z 000000018000ff20 f i electron_sdk.pb.obj
 0001:0000f000       ??_EAdmitToMeetingParams@proto@sdk@electron@com@@UEAAPEAXI@Z 0000000180010000 f i * CIL library *:* CIL module *
 0001:0000f000       ??_GAdmitToMeetingParams@proto@sdk@electron@com@@UEAAPEAXI@Z 0000000180010000 f i electron_sdk.pb.obj
 0001:0000f0e0       ??_EPutInWaitingRoomParams@proto@sdk@electron@com@@UEAAPEAXI@Z 00000001800100e0 f i * CIL library *:* CIL module *
 0001:0000f0e0       ??_GPutInWaitingRoomParams@proto@sdk@electron@com@@UEAAPEAXI@Z 00000001800100e0 f i electron_sdk.pb.obj
 0001:0000f1c0       ??_ERenameUserParams@proto@sdk@electron@com@@UEAAPEAXI@Z 00000001800101c0 f i * CIL library *:* CIL module *
 0001:0000f1c0       ??_GRenameUserParams@proto@sdk@electron@com@@UEAAPEAXI@Z 00000001800101c0 f i electron_sdk.pb.obj
 0001:0000f2b0       ??_EExpelUserParams@proto@sdk@electron@com@@UEAAPEAXI@Z 00000001800102b0 f i * CIL library *:* CIL module *
 0001:0000f2b0       ??_GExpelUserParams@proto@sdk@electron@com@@UEAAPEAXI@Z 00000001800102b0 f i electron_sdk.pb.obj
 0001:0000f390       ??_EAllowParticipantsToRequestCloudRecordingParams@proto@sdk@electron@com@@UEAAPEAXI@Z 0000000180010390 f i * CIL library *:* CIL module *
 0001:0000f390       ??_GAllowParticipantsToRequestCloudRecordingParams@proto@sdk@electron@com@@UEAAPEAXI@Z 0000000180010390 f i electron_sdk.pb.obj
 0001:0000f470       ??_EDenyRequestStartCloudRecordingParams@proto@sdk@electron@com@@UEAAPEAXI@Z 0000000180010470 f i * CIL library *:* CIL module *
 0001:0000f470       ??_GDenyRequestStartCloudRecordingParams@proto@sdk@electron@com@@UEAAPEAXI@Z 0000000180010470 f i electron_sdk.pb.obj
 0001:0000f550       ??_ESetEnableOptionParams@proto@sdk@electron@com@@UEAAPEAXI@Z 0000000180010550 f i * CIL library *:* CIL module *
 0001:0000f550       ??_GSetEnableOptionParams@proto@sdk@electron@com@@UEAAPEAXI@Z 0000000180010550 f i electron_sdk.pb.obj
 0001:0000f630       ??_EDeclineEnableParams@proto@sdk@electron@com@@UEAAPEAXI@Z 0000000180010630 f i * CIL library *:* CIL module *
 0001:0000f630       ??_GDeclineEnableParams@proto@sdk@electron@com@@UEAAPEAXI@Z 0000000180010630 f i electron_sdk.pb.obj
 0001:0000f710       ??_EInputScreenNameParams@proto@sdk@electron@com@@UEAAPEAXI@Z 0000000180010710 f i * CIL library *:* CIL module *
 0001:0000f710       ??_GInputScreenNameParams@proto@sdk@electron@com@@UEAAPEAXI@Z 0000000180010710 f i electron_sdk.pb.obj
 0001:0000f800       ??_EAgreeToEnableAndStartSmartRecordingParams@proto@sdk@electron@com@@UEAAPEAXI@Z 0000000180010800 f i * CIL library *:* CIL module *
 0001:0000f800       ??_GAgreeToEnableAndStartSmartRecordingParams@proto@sdk@electron@com@@UEAAPEAXI@Z 0000000180010800 f i electron_sdk.pb.obj
 0001:0000f8e0       ??_EDeclineEnableAndStartSmartRecordingParams@proto@sdk@electron@com@@UEAAPEAXI@Z 00000001800108e0 f i * CIL library *:* CIL module *
 0001:0000f8e0       ??_GDeclineEnableAndStartSmartRecordingParams@proto@sdk@electron@com@@UEAAPEAXI@Z 00000001800108e0 f i electron_sdk.pb.obj
 0001:0000f9c0       ??_EActionConfirmEnableSmartRecordingParams@proto@sdk@electron@com@@UEAAPEAXI@Z 00000001800109c0 f i * CIL library *:* CIL module *
 0001:0000f9c0       ??_GActionConfirmEnableSmartRecordingParams@proto@sdk@electron@com@@UEAAPEAXI@Z 00000001800109c0 f i electron_sdk.pb.obj
 0001:0000faa0       ??_EIsValidEmailParams@proto@sdk@electron@com@@UEAAPEAXI@Z 0000000180010aa0 f i * CIL library *:* CIL module *
 0001:0000faa0       ??_GIsValidEmailParams@proto@sdk@electron@com@@UEAAPEAXI@Z 0000000180010aa0 f i electron_sdk.pb.obj
 0001:0000fb90       ??_EInputUserInfoParams@proto@sdk@electron@com@@UEAAPEAXI@Z 0000000180010b90 f i * CIL library *:* CIL module *
 0001:0000fb90       ??_GInputUserInfoParams@proto@sdk@electron@com@@UEAAPEAXI@Z 0000000180010b90 f i electron_sdk.pb.obj
 0001:0000fc80       ??_ERedirectMeetingInputUserInfoDialogParams@proto@sdk@electron@com@@UEAAPEAXI@Z 0000000180010c80 f i * CIL library *:* CIL module *
 0001:0000fc80       ??_GRedirectMeetingInputUserInfoDialogParams@proto@sdk@electron@com@@UEAAPEAXI@Z 0000000180010c80 f i electron_sdk.pb.obj
 0001:0000fd60       ??_EJoinWithArchiveParams@proto@sdk@electron@com@@UEAAPEAXI@Z 0000000180010d60 f i * CIL library *:* CIL module *
 0001:0000fd60       ??_GJoinWithArchiveParams@proto@sdk@electron@com@@UEAAPEAXI@Z 0000000180010d60 f i electron_sdk.pb.obj
 0001:0000fe40       ??_ERedirectConfirmStartArchiveDialogParams@proto@sdk@electron@com@@UEAAPEAXI@Z 0000000180010e40 f i * CIL library *:* CIL module *
 0001:0000fe40       ??_GRedirectConfirmStartArchiveDialogParams@proto@sdk@electron@com@@UEAAPEAXI@Z 0000000180010e40 f i electron_sdk.pb.obj
 0001:0000ff20       ??_EShowIndicatorPanelParams@proto@sdk@electron@com@@UEAAPEAXI@Z 0000000180010f20 f i * CIL library *:* CIL module *
 0001:0000ff20       ??_GShowIndicatorPanelParams@proto@sdk@electron@com@@UEAAPEAXI@Z 0000000180010f20 f i electron_sdk.pb.obj
 0001:00010000       ??_EWebinarAttendeeParams@proto@sdk@electron@com@@UEAAPEAXI@Z 0000000180011000 f i * CIL library *:* CIL module *
 0001:00010000       ??_GWebinarAttendeeParams@proto@sdk@electron@com@@UEAAPEAXI@Z 0000000180011000 f i electron_sdk.pb.obj
 0001:000100e0       ??_ESetPanelistChatPrivilegeParams@proto@sdk@electron@com@@UEAAPEAXI@Z 00000001800110e0 f i * CIL library *:* CIL module *
 0001:000100e0       ??_GSetPanelistChatPrivilegeParams@proto@sdk@electron@com@@UEAAPEAXI@Z 00000001800110e0 f i electron_sdk.pb.obj
 0001:000101c0       ??_ESetAttendeeViewModeParams@proto@sdk@electron@com@@UEAAPEAXI@Z 00000001800111c0 f i * CIL library *:* CIL module *
 0001:000101c0       ??_GSetAttendeeViewModeParams@proto@sdk@electron@com@@UEAAPEAXI@Z 00000001800111c0 f i electron_sdk.pb.obj
 0001:000102a0       ??_ESetWallpaperParams@proto@sdk@electron@com@@UEAAPEAXI@Z 00000001800112a0 f i * CIL library *:* CIL module *
 0001:000102a0       ??_GSetWallpaperParams@proto@sdk@electron@com@@UEAAPEAXI@Z 00000001800112a0 f i electron_sdk.pb.obj
 0001:00010390       ??_EGetWallpaperItemByIDParams@proto@sdk@electron@com@@UEAAPEAXI@Z 0000000180011390 f i * CIL library *:* CIL module *
 0001:00010390       ??_GGetWallpaperItemByIDParams@proto@sdk@electron@com@@UEAAPEAXI@Z 0000000180011390 f i electron_sdk.pb.obj
 0001:00010480       ??_ESetUsingGreenScreenParams@proto@sdk@electron@com@@UEAAPEAXI@Z 0000000180011480 f i * CIL library *:* CIL module *
 0001:00010480       ??_GSetUsingGreenScreenParams@proto@sdk@electron@com@@UEAAPEAXI@Z 0000000180011480 f i electron_sdk.pb.obj
 0001:00010560       ??_EAddBGImageParams@proto@sdk@electron@com@@UEAAPEAXI@Z 0000000180011560 f i * CIL library *:* CIL module *
 0001:00010560       ??_GAddBGImageParams@proto@sdk@electron@com@@UEAAPEAXI@Z 0000000180011560 f i electron_sdk.pb.obj
 0001:00010650       ??_ERemoveBGImageParams@proto@sdk@electron@com@@UEAAPEAXI@Z 0000000180011650 f i * CIL library *:* CIL module *
 0001:00010650       ??_GRemoveBGImageParams@proto@sdk@electron@com@@UEAAPEAXI@Z 0000000180011650 f i electron_sdk.pb.obj
 0001:00010730       ??_EUseBGImageParams@proto@sdk@electron@com@@UEAAPEAXI@Z 0000000180011730 f i * CIL library *:* CIL module *
 0001:00010730       ??_GUseBGImageParams@proto@sdk@electron@com@@UEAAPEAXI@Z 0000000180011730 f i electron_sdk.pb.obj
 0001:00010810       ??_EAddBGVideoParams@proto@sdk@electron@com@@UEAAPEAXI@Z 0000000180011810 f i * CIL library *:* CIL module *
 0001:00010810       ??_GAddBGVideoParams@proto@sdk@electron@com@@UEAAPEAXI@Z 0000000180011810 f i electron_sdk.pb.obj
 0001:00010900       ??_ERemoveBGVideoParams@proto@sdk@electron@com@@UEAAPEAXI@Z 0000000180011900 f i * CIL library *:* CIL module *
 0001:00010900       ??_GRemoveBGVideoParams@proto@sdk@electron@com@@UEAAPEAXI@Z 0000000180011900 f i electron_sdk.pb.obj
 0001:000109e0       ??_EUseBGVideoParams@proto@sdk@electron@com@@UEAAPEAXI@Z 00000001800119e0 f i * CIL library *:* CIL module *
 0001:000109e0       ??_GUseBGVideoParams@proto@sdk@electron@com@@UEAAPEAXI@Z 00000001800119e0 f i electron_sdk.pb.obj
 0001:00010ac0       ??_EChangeQuerySettingsParams@proto@sdk@electron@com@@UEAAPEAXI@Z 0000000180011ac0 f i * CIL library *:* CIL module *
 0001:00010ac0       ??_GChangeQuerySettingsParams@proto@sdk@electron@com@@UEAAPEAXI@Z 0000000180011ac0 f i electron_sdk.pb.obj
 0001:00010ba0       ??_ESendQueryQuestionParams@proto@sdk@electron@com@@UEAAPEAXI@Z 0000000180011ba0 f i * CIL library *:* CIL module *
 0001:00010ba0       ??_GSendQueryQuestionParams@proto@sdk@electron@com@@UEAAPEAXI@Z 0000000180011ba0 f i electron_sdk.pb.obj
 0001:00010c90       ??_EAICompanionQueryFeedbackParams@proto@sdk@electron@com@@UEAAPEAXI@Z 0000000180011c90 f i * CIL library *:* CIL module *
 0001:00010c90       ??_GAICompanionQueryFeedbackParams@proto@sdk@electron@com@@UEAAPEAXI@Z 0000000180011c90 f i electron_sdk.pb.obj
 0001:00010d70       ??_ESetVideoQualityPreferenceParams@proto@sdk@electron@com@@UEAAPEAXI@Z 0000000180011d70 f i * CIL library *:* CIL module *
 0001:00010d70       ??_GSetVideoQualityPreferenceParams@proto@sdk@electron@com@@UEAAPEAXI@Z 0000000180011d70 f i electron_sdk.pb.obj
 0001:00010e50       ??_ETurnOffAllAICompanionsParams@proto@sdk@electron@com@@UEAAPEAXI@Z 0000000180011e50 f i * CIL library *:* CIL module *
 0001:00010e50       ??_GTurnOffAllAICompanionsParams@proto@sdk@electron@com@@UEAAPEAXI@Z 0000000180011e50 f i electron_sdk.pb.obj
 0001:00010f30       ??_EAgreeAICompanionFeatureSwitchParams@proto@sdk@electron@com@@UEAAPEAXI@Z 0000000180011f30 f i * CIL library *:* CIL module *
 0001:00010f30       ??_GAgreeAICompanionFeatureSwitchParams@proto@sdk@electron@com@@UEAAPEAXI@Z 0000000180011f30 f i electron_sdk.pb.obj
 0001:00011010       ??_EDeclineSendQueryParams@proto@sdk@electron@com@@UEAAPEAXI@Z 0000000180012010 f i * CIL library *:* CIL module *
 0001:00011010       ??_GDeclineSendQueryParams@proto@sdk@electron@com@@UEAAPEAXI@Z 0000000180012010 f i electron_sdk.pb.obj
 0001:000110f0       ??_EQuestionIDParams@proto@sdk@electron@com@@UEAAPEAXI@Z 00000001800120f0 f i * CIL library *:* CIL module *
 0001:000110f0       ??_GQuestionIDParams@proto@sdk@electron@com@@UEAAPEAXI@Z 00000001800120f0 f i electron_sdk.pb.obj
 0001:000111e0       ??_EVoteQuestionParams@proto@sdk@electron@com@@UEAAPEAXI@Z 00000001800121e0 f i * CIL library *:* CIL module *
 0001:000111e0       ??_GVoteQuestionParams@proto@sdk@electron@com@@UEAAPEAXI@Z 00000001800121e0 f i electron_sdk.pb.obj
 0001:000112d0       ??_EAnswerIDParams@proto@sdk@electron@com@@UEAAPEAXI@Z 00000001800122d0 f i * CIL library *:* CIL module *
 0001:000112d0       ??_GAnswerIDParams@proto@sdk@electron@com@@UEAAPEAXI@Z 00000001800122d0 f i electron_sdk.pb.obj
 0001:000113c0       ??_EAnswerQuestionParams@proto@sdk@electron@com@@UEAAPEAXI@Z 00000001800123c0 f i * CIL library *:* CIL module *
 0001:000113c0       ??_GAnswerQuestionParams@proto@sdk@electron@com@@UEAAPEAXI@Z 00000001800123c0 f i electron_sdk.pb.obj
 0001:000114b0       ??_EPollingIDParams@proto@sdk@electron@com@@UEAAPEAXI@Z 00000001800124b0 f i * CIL library *:* CIL module *
 0001:000114b0       ??_GPollingIDParams@proto@sdk@electron@com@@UEAAPEAXI@Z 00000001800124b0 f i electron_sdk.pb.obj
 0001:000115a0       ??_EQuestionCaseSensitiveParams@proto@sdk@electron@com@@UEAAPEAXI@Z 00000001800125a0 f i * CIL library *:* CIL module *
 0001:000115a0       ??_GQuestionCaseSensitiveParams@proto@sdk@electron@com@@UEAAPEAXI@Z 00000001800125a0 f i electron_sdk.pb.obj
 0001:00011690       ??_EQuestionImagePathParams@proto@sdk@electron@com@@UEAAPEAXI@Z 0000000180012690 f i * CIL library *:* CIL module *
 0001:00011690       ??_GQuestionImagePathParams@proto@sdk@electron@com@@UEAAPEAXI@Z 0000000180012690 f i electron_sdk.pb.obj
 0001:00011780       ??_ESetOwnerWindowParams@proto@sdk@electron@com@@UEAAPEAXI@Z 0000000180012780 f i * CIL library *:* CIL module *
 0001:00011780       ??_GSetOwnerWindowParams@proto@sdk@electron@com@@UEAAPEAXI@Z 0000000180012780 f i electron_sdk.pb.obj
 0001:00011870       ??_EShowDashboardViewParams@proto@sdk@electron@com@@UEAAPEAXI@Z 0000000180012870 f i * CIL library *:* CIL module *
 0001:00011870       ??_GShowDashboardViewParams@proto@sdk@electron@com@@UEAAPEAXI@Z 0000000180012870 f i electron_sdk.pb.obj
 0001:00011950       ??_ESetDashboardViewSizeParams@proto@sdk@electron@com@@UEAAPEAXI@Z 0000000180012950 f i * CIL library *:* CIL module *
 0001:00011950       ??_GSetDashboardViewSizeParams@proto@sdk@electron@com@@UEAAPEAXI@Z 0000000180012950 f i electron_sdk.pb.obj
 0001:00011a30       ??_ESetWhiteboardViewPosParams@proto@sdk@electron@com@@UEAAPEAXI@Z 0000000180012a30 f i * CIL library *:* CIL module *
 0001:00011a30       ??_GSetWhiteboardViewPosParams@proto@sdk@electron@com@@UEAAPEAXI@Z 0000000180012a30 f i electron_sdk.pb.obj
 0001:00011b10       ??_ESetWhiteboardViewSizeParams@proto@sdk@electron@com@@UEAAPEAXI@Z 0000000180012b10 f i * CIL library *:* CIL module *
 0001:00011b10       ??_GSetWhiteboardViewSizeParams@proto@sdk@electron@com@@UEAAPEAXI@Z 0000000180012b10 f i electron_sdk.pb.obj
 0001:00011bf0       ??_ESetWhiteboardShareOptionParams@proto@sdk@electron@com@@UEAAPEAXI@Z 0000000180012bf0 f i * CIL library *:* CIL module *
 0001:00011bf0       ??_GSetWhiteboardShareOptionParams@proto@sdk@electron@com@@UEAAPEAXI@Z 0000000180012bf0 f i electron_sdk.pb.obj
 0001:00011cd0       ??_ESetWhiteboardCreateOptionParams@proto@sdk@electron@com@@UEAAPEAXI@Z 0000000180012cd0 f i * CIL library *:* CIL module *
 0001:00011cd0       ??_GSetWhiteboardCreateOptionParams@proto@sdk@electron@com@@UEAAPEAXI@Z 0000000180012cd0 f i electron_sdk.pb.obj
 0001:00011db0       ??_EEnableParticipantsCreateWithoutHostParams@proto@sdk@electron@com@@UEAAPEAXI@Z 0000000180012db0 f i * CIL library *:* CIL module *
 0001:00011db0       ??_GEnableParticipantsCreateWithoutHostParams@proto@sdk@electron@com@@UEAAPEAXI@Z 0000000180012db0 f i electron_sdk.pb.obj
 0001:00011e90       ??_ESetDocsShareOptionParams@proto@sdk@electron@com@@UEAAPEAXI@Z 0000000180012e90 f i * CIL library *:* CIL module *
 0001:00011e90       ??_GSetDocsShareOptionParams@proto@sdk@electron@com@@UEAAPEAXI@Z 0000000180012e90 f i electron_sdk.pb.obj
 0001:00011f70       ??_ESetDocsCreateOptionParams@proto@sdk@electron@com@@UEAAPEAXI@Z 0000000180012f70 f i * CIL library *:* CIL module *
 0001:00011f70       ??_GSetDocsCreateOptionParams@proto@sdk@electron@com@@UEAAPEAXI@Z 0000000180012f70 f i electron_sdk.pb.obj
 0001:00012050       ??_EShowDocsDashboardParams@proto@sdk@electron@com@@UEAAPEAXI@Z 0000000180013050 f i * CIL library *:* CIL module *
 0001:00012050       ??_GShowDocsDashboardParams@proto@sdk@electron@com@@UEAAPEAXI@Z 0000000180013050 f i electron_sdk.pb.obj
 0001:00012130       ??_ESetDocDashboardSizeParams@proto@sdk@electron@com@@UEAAPEAXI@Z 0000000180013130 f i * CIL library *:* CIL module *
 0001:00012130       ??_GSetDocDashboardSizeParams@proto@sdk@electron@com@@UEAAPEAXI@Z 0000000180013130 f i electron_sdk.pb.obj
 0001:00012210       ??_ESetDocsViewPosParams@proto@sdk@electron@com@@UEAAPEAXI@Z 0000000180013210 f i * CIL library *:* CIL module *
 0001:00012210       ??_GSetDocsViewPosParams@proto@sdk@electron@com@@UEAAPEAXI@Z 0000000180013210 f i electron_sdk.pb.obj
 0001:000122f0       ??_ESetDocsViewSizeParams@proto@sdk@electron@com@@UEAAPEAXI@Z 00000001800132f0 f i * CIL library *:* CIL module *
 0001:000122f0       ??_GSetDocsViewSizeParams@proto@sdk@electron@com@@UEAAPEAXI@Z 00000001800132f0 f i electron_sdk.pb.obj
 0001:000123d0       ??_EShowDocsViewWindowParams@proto@sdk@electron@com@@UEAAPEAXI@Z 00000001800133d0 f i * CIL library *:* CIL module *
 0001:000123d0       ??_GShowDocsViewWindowParams@proto@sdk@electron@com@@UEAAPEAXI@Z 00000001800133d0 f i electron_sdk.pb.obj
 0001:000124b0       ??_EGetDocsSharingSourceInfoListParams@proto@sdk@electron@com@@UEAAPEAXI@Z 00000001800134b0 f i * CIL library *:* CIL module *
 0001:000124b0       ??_GGetDocsSharingSourceInfoListParams@proto@sdk@electron@com@@UEAAPEAXI@Z 00000001800134b0 f i electron_sdk.pb.obj
 0001:00012590       ?Clear@InitSDKParams@proto@sdk@electron@com@@UEAAXXZ 0000000180013590 f   electron_sdk.pb.obj
 0001:000126c0       ?_InternalParse@InitSDKParams@proto@sdk@electron@com@@UEAAPEBDPEBDPEAVParseContext@internal@protobuf@google@@@Z 00000001800136c0 f   electron_sdk.pb.obj
 0001:00012d90       ?_InternalSerialize@InitSDKParams@proto@sdk@electron@com@@UEBAPEAEPEAEPEAVEpsCopyOutputStream@io@protobuf@google@@@Z 0000000180013d90 f   electron_sdk.pb.obj
 0001:000133a0       ?ByteSizeLong@InitSDKParams@proto@sdk@electron@com@@UEBA_KXZ 00000001800143a0 f   electron_sdk.pb.obj
 0001:000138b0       ?CheckTypeAndMergeFrom@InitSDKParams@proto@sdk@electron@com@@UEAAXAEBVMessageLite@protobuf@google@@@Z 00000001800148b0 f   electron_sdk.pb.obj
 0001:000138c0       ?MergeFrom@InitSDKParams@proto@sdk@electron@com@@QEAAXAEBV12345@@Z 00000001800148c0 f   electron_sdk.pb.obj
 0001:00013b90       ?IsInitialized@AICompanionQueryFeedbackParams@proto@sdk@electron@com@@UEBA_NXZ 0000000180014b90 f   electron_sdk.pb.obj
 0001:00013b90       ?IsInitialized@ActionConfirmEnableSmartRecordingParams@proto@sdk@electron@com@@UEBA_NXZ 0000000180014b90 f   electron_sdk.pb.obj
 0001:00013b90       ?IsInitialized@AddBGImageParams@proto@sdk@electron@com@@UEBA_NXZ 0000000180014b90 f   electron_sdk.pb.obj
 0001:00013b90       ?IsInitialized@AddBGVideoParams@proto@sdk@electron@com@@UEBA_NXZ 0000000180014b90 f   electron_sdk.pb.obj
 0001:00013b90       ?IsInitialized@AddCustomizedPictureResourceParams@proto@sdk@electron@com@@UEBA_NXZ 0000000180014b90 f   electron_sdk.pb.obj
 0001:00013b90       ?IsInitialized@AddCustomizedStringResourceParams@proto@sdk@electron@com@@UEBA_NXZ 0000000180014b90 f   electron_sdk.pb.obj
 0001:00013b90       ?IsInitialized@AddCustomizedURLResourceParams@proto@sdk@electron@com@@UEBA_NXZ 0000000180014b90 f   electron_sdk.pb.obj
 0001:00013b90       ?IsInitialized@AdmitToMeetingParams@proto@sdk@electron@com@@UEBA_NXZ 0000000180014b90 f   electron_sdk.pb.obj
 0001:00013b90       ?IsInitialized@AgreeAICompanionFeatureSwitchParams@proto@sdk@electron@com@@UEBA_NXZ 0000000180014b90 f   electron_sdk.pb.obj
 0001:00013b90       ?IsInitialized@AgreeToEnableAndStartSmartRecordingParams@proto@sdk@electron@com@@UEBA_NXZ 0000000180014b90 f   electron_sdk.pb.obj
 0001:00013b90       ?IsInitialized@AllowLocalRecordingParams@proto@sdk@electron@com@@UEBA_NXZ 0000000180014b90 f   electron_sdk.pb.obj
 0001:00013b90       ?IsInitialized@AllowParticipantsToRequestCloudRecordingParams@proto@sdk@electron@com@@UEBA_NXZ 0000000180014b90 f   electron_sdk.pb.obj
 0001:00013b90       ?IsInitialized@AlwaysShowIconOnTaskBarParams@proto@sdk@electron@com@@UEBA_NXZ 0000000180014b90 f   electron_sdk.pb.obj
 0001:00013b90       ?IsInitialized@AnswerIDParams@proto@sdk@electron@com@@UEBA_NXZ 0000000180014b90 f   electron_sdk.pb.obj
 0001:00013b90       ?IsInitialized@AnswerQuestionParams@proto@sdk@electron@com@@UEBA_NXZ 0000000180014b90 f   electron_sdk.pb.obj
 0001:00013b90       ?IsInitialized@AuthWithJwtTokenParams@proto@sdk@electron@com@@UEBA_NXZ 0000000180014b90 f   electron_sdk.pb.obj
 0001:00013b90       ?IsInitialized@CallOutH323Params@proto@sdk@electron@com@@UEBA_NXZ 0000000180014b90 f   electron_sdk.pb.obj
 0001:00013b90       ?IsInitialized@CanStartRecordingParams@proto@sdk@electron@com@@UEBA_NXZ 0000000180014b90 f   electron_sdk.pb.obj
 0001:00013b90       ?IsInitialized@ChangeFloatToActiveSpkVideoSizeParams@proto@sdk@electron@com@@UEBA_NXZ 0000000180014b90 f   electron_sdk.pb.obj
 0001:00013b90       ?IsInitialized@ChangeQuerySettingsParams@proto@sdk@electron@com@@UEBA_NXZ 0000000180014b90 f   electron_sdk.pb.obj
 0001:00013b90       ?IsInitialized@ChatMessageIDParams@proto@sdk@electron@com@@UEBA_NXZ 0000000180014b90 f   electron_sdk.pb.obj
 0001:00013b90       ?IsInitialized@ClearAnnotationParams@proto@sdk@electron@com@@UEBA_NXZ 0000000180014b90 f   electron_sdk.pb.obj
 0001:00013b90       ?IsInitialized@ConfSettingDialogShownTabPageParams@proto@sdk@electron@com@@UEBA_NXZ 0000000180014b90 f   electron_sdk.pb.obj
 0001:00013b90       ?IsInitialized@ConfigDSCPParams@proto@sdk@electron@com@@UEBA_NXZ 0000000180014b90 f   electron_sdk.pb.obj
 0001:00013b90       ?IsInitialized@ConfigToShowUrlLinksInSettingParams@proto@sdk@electron@com@@UEBA_NXZ 0000000180014b90 f   electron_sdk.pb.obj
 0001:00013b90       ?IsInitialized@CreateRendererParams@proto@sdk@electron@com@@UEBA_NXZ 0000000180014b90 f   electron_sdk.pb.obj
 0001:00013b90       ?IsInitialized@DeclineEnableAndStartSmartRecordingParams@proto@sdk@electron@com@@UEBA_NXZ 0000000180014b90 f   electron_sdk.pb.obj
 0001:00013b90       ?IsInitialized@DeclineEnableParams@proto@sdk@electron@com@@UEBA_NXZ 0000000180014b90 f   electron_sdk.pb.obj
 0001:00013b90       ?IsInitialized@DeclineSendQueryParams@proto@sdk@electron@com@@UEBA_NXZ 0000000180014b90 f   electron_sdk.pb.obj
 0001:00013b90       ?IsInitialized@DeleteMeetingParams@proto@sdk@electron@com@@UEBA_NXZ 0000000180014b90 f   electron_sdk.pb.obj
 0001:00013b90       ?IsInitialized@DenyRequestStartCloudRecordingParams@proto@sdk@electron@com@@UEBA_NXZ 0000000180014b90 f   electron_sdk.pb.obj
 0001:00013b90       ?IsInitialized@DestroyRendererParams@proto@sdk@electron@com@@UEBA_NXZ 0000000180014b90 f   electron_sdk.pb.obj
 0001:00013b90       ?IsInitialized@DisAllowLocalRecordingParams@proto@sdk@electron@com@@UEBA_NXZ 0000000180014b90 f   electron_sdk.pb.obj
 0001:00013b90       ?IsInitialized@DisableAccountSettingTabPageParams@proto@sdk@electron@com@@UEBA_NXZ 0000000180014b90 f   electron_sdk.pb.obj
 0001:00013b90       ?IsInitialized@DisableAdvancedFeatures4GeneralSettingParams@proto@sdk@electron@com@@UEBA_NXZ 0000000180014b90 f   electron_sdk.pb.obj
 0001:00013b90       ?IsInitialized@DisableAutoShowSelectJoinAudioDlgWhenJoinMeetingParams@proto@sdk@electron@com@@UEBA_NXZ 0000000180014b90 f   electron_sdk.pb.obj
 0001:00013b90       ?IsInitialized@DisableFreeMeetingRemainTimeNotifyParams@proto@sdk@electron@com@@UEBA_NXZ 0000000180014b90 f   electron_sdk.pb.obj
 0001:00013b90       ?IsInitialized@DisablePopupMeetingWrongPSWDlgParams@proto@sdk@electron@com@@UEBA_NXZ 0000000180014b90 f   electron_sdk.pb.obj
 0001:00013b90       ?IsInitialized@DisableShowJoinMeetingWndParams@proto@sdk@electron@com@@UEBA_NXZ 0000000180014b90 f   electron_sdk.pb.obj
 0001:00013b90       ?IsInitialized@DisableSplitScreenModeUIElementsParams@proto@sdk@electron@com@@UEBA_NXZ 0000000180014b90 f   electron_sdk.pb.obj
 0001:00013b90       ?IsInitialized@DisableToolbarInviteButtonClickOriginActionParams@proto@sdk@electron@com@@UEBA_NXZ 0000000180014b90 f   electron_sdk.pb.obj
 0001:00013b90       ?IsInitialized@DisableTopMostAttr4SettingDialogParams@proto@sdk@electron@com@@UEBA_NXZ 0000000180014b90 f   electron_sdk.pb.obj
 0001:00013b90       ?IsInitialized@DisableWaitingForHostDialogParams@proto@sdk@electron@com@@UEBA_NXZ 0000000180014b90 f   electron_sdk.pb.obj
 0001:00013b90       ?IsInitialized@EditMeetingParams@proto@sdk@electron@com@@UEBA_NXZ 0000000180014b90 f   electron_sdk.pb.obj
 0001:00013b90       ?IsInitialized@EditMeetingWithWndParams@proto@sdk@electron@com@@UEBA_NXZ 0000000180014b90 f   electron_sdk.pb.obj
 0001:00013b90       ?IsInitialized@Enable49VideoesInGallaryViewParams@proto@sdk@electron@com@@UEBA_NXZ 0000000180014b90 f   electron_sdk.pb.obj
 0001:00013b90       ?IsInitialized@EnableAccelerateGPUWhenShareParams@proto@sdk@electron@com@@UEBA_NXZ 0000000180014b90 f   electron_sdk.pb.obj
 0001:00013b90       ?IsInitialized@EnableAddTimestampWatermarkParams@proto@sdk@electron@com@@UEBA_NXZ 0000000180014b90 f   electron_sdk.pb.obj
 0001:00013b90       ?IsInitialized@EnableAirplayInstructionWindowParams@proto@sdk@electron@com@@UEBA_NXZ 0000000180014b90 f   electron_sdk.pb.obj
 0001:00013b90       ?IsInitialized@EnableAlwaysMuteMicWhenJoinVoipParams@proto@sdk@electron@com@@UEBA_NXZ 0000000180014b90 f   electron_sdk.pb.obj
 0001:00013b90       ?IsInitialized@EnableAlwaysShowMeetingControlsParams@proto@sdk@electron@com@@UEBA_NXZ 0000000180014b90 f   electron_sdk.pb.obj
 0001:00013b90       ?IsInitialized@EnableAlwaysShowNameOnVideoParams@proto@sdk@electron@com@@UEBA_NXZ 0000000180014b90 f   electron_sdk.pb.obj
 0001:00013b90       ?IsInitialized@EnableApproveRemoteControlDlgParams@proto@sdk@electron@com@@UEBA_NXZ 0000000180014b90 f   electron_sdk.pb.obj
 0001:00013b90       ?IsInitialized@EnableAudioButtonOnMeetingUIParams@proto@sdk@electron@com@@UEBA_NXZ 0000000180014b90 f   electron_sdk.pb.obj
 0001:00013b90       ?IsInitialized@EnableAutoAdjustMicParams@proto@sdk@electron@com@@UEBA_NXZ 0000000180014b90 f   electron_sdk.pb.obj
 0001:00013b90       ?IsInitialized@EnableAutoAdjustMicVolumeWhenJoinAudioParams@proto@sdk@electron@com@@UEBA_NXZ 0000000180014b90 f   electron_sdk.pb.obj
 0001:00013b90       ?IsInitialized@EnableAutoAdjustSpeakerVolumeWhenJoinAudioParams@proto@sdk@electron@com@@UEBA_NXZ 0000000180014b90 f   electron_sdk.pb.obj
 0001:00013b90       ?IsInitialized@EnableAutoEndOtherMeetingWhenStartMeetingParams@proto@sdk@electron@com@@UEBA_NXZ 0000000180014b90 f   electron_sdk.pb.obj
 0001:00013b90       ?IsInitialized@EnableAutoFitToWindowWhenViewSharingParams@proto@sdk@electron@com@@UEBA_NXZ 0000000180014b90 f   electron_sdk.pb.obj
 0001:00013b90       ?IsInitialized@EnableAutoFullScreenVideoWhenJoinMeetingParams@proto@sdk@electron@com@@UEBA_NXZ 0000000180014b90 f   electron_sdk.pb.obj
 0001:00013b90       ?IsInitialized@EnableAutoFullScreenVideoWhenViewShareParams@proto@sdk@electron@com@@UEBA_NXZ 0000000180014b90 f   electron_sdk.pb.obj
 0001:00013b90       ?IsInitialized@EnableAutoHideJoinAudioDialogParams@proto@sdk@electron@com@@UEBA_NXZ 0000000180014b90 f   electron_sdk.pb.obj
 0001:00013b90       ?IsInitialized@EnableAutoJoinAudioParams@proto@sdk@electron@com@@UEBA_NXZ 0000000180014b90 f   electron_sdk.pb.obj
 0001:00013b90       ?IsInitialized@EnableAutoTurnOffVideoWhenJoinMeetingParams@proto@sdk@electron@com@@UEBA_NXZ 0000000180014b90 f   electron_sdk.pb.obj
 0001:00013b90       ?IsInitialized@EnableClaimHostFeatureParams@proto@sdk@electron@com@@UEBA_NXZ 0000000180014b90 f   electron_sdk.pb.obj
 0001:00013b90       ?IsInitialized@EnableDeclineRemoteControlResponseDlgParams@proto@sdk@electron@com@@UEBA_NXZ 0000000180014b90 f   electron_sdk.pb.obj
 0001:00013b90       ?IsInitialized@EnableDisplayReminderWindowWhenExitParams@proto@sdk@electron@com@@UEBA_NXZ 0000000180014b90 f   electron_sdk.pb.obj
 0001:00013b90       ?IsInitialized@EnableDualScreenModeParams@proto@sdk@electron@com@@UEBA_NXZ 0000000180014b90 f   electron_sdk.pb.obj
 0001:00013b90       ?IsInitialized@EnableEnterAndExitFullScreenButtonOnMeetingUIParams@proto@sdk@electron@com@@UEBA_NXZ 0000000180014b90 f   electron_sdk.pb.obj
 0001:00013b90       ?IsInitialized@EnableFaceBeautyEffectParams@proto@sdk@electron@com@@UEBA_NXZ 0000000180014b90 f   electron_sdk.pb.obj
 0001:00013b90       ?IsInitialized@EnableForceAutoStartMyVideoWhenJoinMeetingParams@proto@sdk@electron@com@@UEBA_NXZ 0000000180014b90 f   electron_sdk.pb.obj
 0001:00013b90       ?IsInitialized@EnableForceAutoStopMyVideoWhenJoinMeetingParams@proto@sdk@electron@com@@UEBA_NXZ 0000000180014b90 f   electron_sdk.pb.obj
 0001:00013b90       ?IsInitialized@EnableGrabShareWithoutReminderParams@proto@sdk@electron@com@@UEBA_NXZ 0000000180014b90 f   electron_sdk.pb.obj
 0001:00013b90       ?IsInitialized@EnableHDVideoParams@proto@sdk@electron@com@@UEBA_NXZ 0000000180014b90 f   electron_sdk.pb.obj
 0001:00013b90       ?IsInitialized@EnableHIdeFullPhoneNumber4PureCallinUserParams@proto@sdk@electron@com@@UEBA_NXZ 0000000180014b90 f   electron_sdk.pb.obj
 0001:00013b90       ?IsInitialized@EnableHardwareEncodeParams@proto@sdk@electron@com@@UEBA_NXZ 0000000180014b90 f   electron_sdk.pb.obj
 0001:00013b90       ?IsInitialized@EnableHideNoVideoUsersOnWallViewParams@proto@sdk@electron@com@@UEBA_NXZ 0000000180014b90 f   electron_sdk.pb.obj
 0001:00013b90       ?IsInitialized@EnableHoldSpaceKeyToSpeakParams@proto@sdk@electron@com@@UEBA_NXZ 0000000180014b90 f   electron_sdk.pb.obj
 0001:00013b90       ?IsInitialized@EnableInputMeetingPasswordDlgParams@proto@sdk@electron@com@@UEBA_NXZ 0000000180014b90 f   electron_sdk.pb.obj
 0001:00013b90       ?IsInitialized@EnableInputMeetingScreenNameDlgParams@proto@sdk@electron@com@@UEBA_NXZ 0000000180014b90 f   electron_sdk.pb.obj
 0001:00013b90       ?IsInitialized@EnableInviteButtonOnMeetingUIParams@proto@sdk@electron@com@@UEBA_NXZ 0000000180014b90 f   electron_sdk.pb.obj
 0001:00013b90       ?IsInitialized@EnableInviteLinkOnMeetingUIParams@proto@sdk@electron@com@@UEBA_NXZ 0000000180014b90 f   electron_sdk.pb.obj
 0001:00013b90       ?IsInitialized@EnableLButtonDBClick4SwitchFullScreenModeParams@proto@sdk@electron@com@@UEBA_NXZ 0000000180014b90 f   electron_sdk.pb.obj
 0001:00013b90       ?IsInitialized@EnableLeaveMeetingOptionForHostParams@proto@sdk@electron@com@@UEBA_NXZ 0000000180014b90 f   electron_sdk.pb.obj
 0001:00013b90       ?IsInitialized@EnableLengthLimitationOfMeetingNumberParams@proto@sdk@electron@com@@UEBA_NXZ 0000000180014b90 f   electron_sdk.pb.obj
 0001:00013b90       ?IsInitialized@EnableLiveStreamReminderParams@proto@sdk@electron@com@@UEBA_NXZ 0000000180014b90 f   electron_sdk.pb.obj
 0001:00013b90       ?IsInitialized@EnableLocalRecordingConverProgressBarDialogParams@proto@sdk@electron@com@@UEBA_NXZ 0000000180014b90 f   electron_sdk.pb.obj
 0001:00013b90       ?IsInitialized@EnableMicOriginalInputParams@proto@sdk@electron@com@@UEBA_NXZ 0000000180014b90 f   electron_sdk.pb.obj
 0001:00013b90       ?IsInitialized@EnableMultiAudioStreamRecordParams@proto@sdk@electron@com@@UEBA_NXZ 0000000180014b90 f   electron_sdk.pb.obj
 0001:00013b90       ?IsInitialized@EnableMuteOnEntryParams@proto@sdk@electron@com@@UEBA_NXZ 0000000180014b90 f   electron_sdk.pb.obj
 0001:00013b90       ?IsInitialized@EnableOptimizeFor3rdPartyVideoEditorParams@proto@sdk@electron@com@@UEBA_NXZ 0000000180014b90 f   electron_sdk.pb.obj
 0001:00013b90       ?IsInitialized@EnableParticipantsCreateWithoutHostParams@proto@sdk@electron@com@@UEBA_NXZ 0000000180014b90 f   electron_sdk.pb.obj
 0001:00013b90       ?IsInitialized@EnablePlaceVideoNextToShareInRecordParams@proto@sdk@electron@com@@UEBA_NXZ 0000000180014b90 f   electron_sdk.pb.obj
 0001:00013b90       ?IsInitialized@EnablePlayChimeWhenEnterOrExitParams@proto@sdk@electron@com@@UEBA_NXZ 0000000180014b90 f   electron_sdk.pb.obj
 0001:00013b90       ?IsInitialized@EnablePlayMeetingAudioParams@proto@sdk@electron@com@@UEBA_NXZ 0000000180014b90 f   electron_sdk.pb.obj
 0001:00013b90       ?IsInitialized@EnableRemoteControlAllApplicationsParams@proto@sdk@electron@com@@UEBA_NXZ 0000000180014b90 f   electron_sdk.pb.obj
 0001:00013b90       ?IsInitialized@EnableSelectRecordFileLocationAfterMeetingParams@proto@sdk@electron@com@@UEBA_NXZ 0000000180014b90 f   electron_sdk.pb.obj
 0001:00013b90       ?IsInitialized@EnableShareIOSDeviceParams@proto@sdk@electron@com@@UEBA_NXZ 0000000180014b90 f   electron_sdk.pb.obj
 0001:00013b90       ?IsInitialized@EnableShareWhiteBoardParams@proto@sdk@electron@com@@UEBA_NXZ 0000000180014b90 f   electron_sdk.pb.obj
 0001:00013b90       ?IsInitialized@EnableShowMyMeetingElapseTimeParams@proto@sdk@electron@com@@UEBA_NXZ 0000000180014b90 f   electron_sdk.pb.obj
 0001:00013b90       ?IsInitialized@EnableShowShareSwitchMultiToSingleConfirmDlgParams@proto@sdk@electron@com@@UEBA_NXZ 0000000180014b90 f   electron_sdk.pb.obj
 0001:00013b90       ?IsInitialized@EnableShowVideoThumbnailWhenShareParams@proto@sdk@electron@com@@UEBA_NXZ 0000000180014b90 f   electron_sdk.pb.obj
 0001:00013b90       ?IsInitialized@EnableSplitScreenModeParams@proto@sdk@electron@com@@UEBA_NXZ 0000000180014b90 f   electron_sdk.pb.obj
 0001:00013b90       ?IsInitialized@EnableSpotlightSelfParams@proto@sdk@electron@com@@UEBA_NXZ 0000000180014b90 f   electron_sdk.pb.obj
 0001:00013b90       ?IsInitialized@EnableStereoAudioParams@proto@sdk@electron@com@@UEBA_NXZ 0000000180014b90 f   electron_sdk.pb.obj
 0001:00013b90       ?IsInitialized@EnableSuppressAudioNotifyParams@proto@sdk@electron@com@@UEBA_NXZ 0000000180014b90 f   electron_sdk.pb.obj
 0001:00013b90       ?IsInitialized@EnableToolTipsShowParams@proto@sdk@electron@com@@UEBA_NXZ 0000000180014b90 f   electron_sdk.pb.obj
 0001:00013b90       ?IsInitialized@EnableVideoButtonOnMeetingUIParams@proto@sdk@electron@com@@UEBA_NXZ 0000000180014b90 f   electron_sdk.pb.obj
 0001:00013b90       ?IsInitialized@EnableVideoMirrorEffectParams@proto@sdk@electron@com@@UEBA_NXZ 0000000180014b90 f   electron_sdk.pb.obj
 0001:00013b90       ?IsInitialized@EnableVideoPreviewDialogParams@proto@sdk@electron@com@@UEBA_NXZ 0000000180014b90 f   electron_sdk.pb.obj
 0001:00013b90       ?IsInitialized@EnableWaitingRoomOnEntryParams@proto@sdk@electron@com@@UEBA_NXZ 0000000180014b90 f   electron_sdk.pb.obj
 0001:00013b90       ?IsInitialized@EnableZoomAuthRealNameMeetingUIShownParams@proto@sdk@electron@com@@UEBA_NXZ 0000000180014b90 f   electron_sdk.pb.obj
 0001:00013b90       ?IsInitialized@EnableZoomDocsParams@proto@sdk@electron@com@@UEBA_NXZ 0000000180014b90 f   electron_sdk.pb.obj
 0001:00013b90       ?IsInitialized@EnterFullScreenParams@proto@sdk@electron@com@@UEBA_NXZ 0000000180014b90 f   electron_sdk.pb.obj
 0001:00013b90       ?IsInitialized@ExitFullScreenParams@proto@sdk@electron@com@@UEBA_NXZ 0000000180014b90 f   electron_sdk.pb.obj
 0001:00013b90       ?IsInitialized@ExpelUserParams@proto@sdk@electron@com@@UEBA_NXZ 0000000180014b90 f   electron_sdk.pb.obj
 0001:00013b90       ?IsInitialized@ForceDisableMultiShareParams@proto@sdk@electron@com@@UEBA_NXZ 0000000180014b90 f   electron_sdk.pb.obj
 0001:00013b90       ?IsInitialized@GenerateSSOLoginWebURLParams@proto@sdk@electron@com@@UEBA_NXZ 0000000180014b90 f   electron_sdk.pb.obj
 0001:00013b90       ?IsInitialized@GetAuthorizedBotListByUserIDParams@proto@sdk@electron@com@@UEBA_NXZ 0000000180014b90 f   electron_sdk.pb.obj
 0001:00013b90       ?IsInitialized@GetBotAuthorizedUserInfoByUserIDParams@proto@sdk@electron@com@@UEBA_NXZ 0000000180014b90 f   electron_sdk.pb.obj
 0001:00013b90       ?IsInitialized@GetDocsSharingSourceInfoListParams@proto@sdk@electron@com@@UEBA_NXZ 0000000180014b90 f   electron_sdk.pb.obj
 0001:00013b90       ?IsInitialized@GetLiveStreamItemInfoParams@proto@sdk@electron@com@@UEBA_NXZ 0000000180014b90 f   electron_sdk.pb.obj
 0001:00013b90       ?IsInitialized@GetRawDataTypeParams@proto@sdk@electron@com@@UEBA_NXZ 0000000180014b90 f   electron_sdk.pb.obj
 0001:00013b90       ?IsInitialized@GetResolutionParams@proto@sdk@electron@com@@UEBA_NXZ 0000000180014b90 f   electron_sdk.pb.obj
 0001:00013b90       ?IsInitialized@GetSubscribeIdParams@proto@sdk@electron@com@@UEBA_NXZ 0000000180014b90 f   electron_sdk.pb.obj
 0001:00013b90       ?IsInitialized@GetUserInfoByUserIDParams@proto@sdk@electron@com@@UEBA_NXZ 0000000180014b90 f   electron_sdk.pb.obj
 0001:00013b90       ?IsInitialized@GetWaitingRoomUserInfoByIDParams@proto@sdk@electron@com@@UEBA_NXZ 0000000180014b90 f   electron_sdk.pb.obj
 0001:00013b90       ?IsInitialized@GetWallpaperItemByIDParams@proto@sdk@electron@com@@UEBA_NXZ 0000000180014b90 f   electron_sdk.pb.obj
 0001:00013b90       ?IsInitialized@HandleZoomWebUriProtocolActionParams@proto@sdk@electron@com@@UEBA_NXZ 0000000180014b90 f   electron_sdk.pb.obj
 0001:00013b90       ?IsInitialized@HideAutoCopyInviteLinkCheckBoxParams@proto@sdk@electron@com@@UEBA_NXZ 0000000180014b90 f   electron_sdk.pb.obj
 0001:00013b90       ?IsInitialized@HideChatItemOnMeetingUIParams@proto@sdk@electron@com@@UEBA_NXZ 0000000180014b90 f   electron_sdk.pb.obj
 0001:00013b90       ?IsInitialized@HideCopyInvitationOnInviteWindowParams@proto@sdk@electron@com@@UEBA_NXZ 0000000180014b90 f   electron_sdk.pb.obj
 0001:00013b90       ?IsInitialized@HideCopyUrlOnInviteWindowParams@proto@sdk@electron@com@@UEBA_NXZ 0000000180014b90 f   electron_sdk.pb.obj
 0001:00013b90       ?IsInitialized@HideKeypadButtonOnMeetingWindowParams@proto@sdk@electron@com@@UEBA_NXZ 0000000180014b90 f   electron_sdk.pb.obj
 0001:00013b90       ?IsInitialized@HideOrShowNoVideoUserOnVideoWallParams@proto@sdk@electron@com@@UEBA_NXZ 0000000180014b90 f   electron_sdk.pb.obj
 0001:00013b90       ?IsInitialized@HidePollOnMeetingUIParams@proto@sdk@electron@com@@UEBA_NXZ 0000000180014b90 f   electron_sdk.pb.obj
 0001:00013b90       ?IsInitialized@HideQAOnMeetingUIParams@proto@sdk@electron@com@@UEBA_NXZ 0000000180014b90 f   electron_sdk.pb.obj
 0001:00013b90       ?IsInitialized@HideRecordItemOnMeetingUIParams@proto@sdk@electron@com@@UEBA_NXZ 0000000180014b90 f   electron_sdk.pb.obj
 0001:00013b90       ?IsInitialized@HideRemoteControlOnMeetingUIParams@proto@sdk@electron@com@@UEBA_NXZ 0000000180014b90 f   electron_sdk.pb.obj
 0001:00013b90       ?IsInitialized@HideSwitchCameraButtonParams@proto@sdk@electron@com@@UEBA_NXZ 0000000180014b90 f   electron_sdk.pb.obj
 0001:00013b90       ?IsInitialized@HideUpgradeFreeMeetingButtonParams@proto@sdk@electron@com@@UEBA_NXZ 0000000180014b90 f   electron_sdk.pb.obj
 0001:00013b90       ?IsInitialized@InitSDKParams@proto@sdk@electron@com@@UEBA_NXZ 0000000180014b90 f   electron_sdk.pb.obj
 0001:00013b90       ?IsInitialized@InputMeetingIDAndScreenNameParams@proto@sdk@electron@com@@UEBA_NXZ 0000000180014b90 f   electron_sdk.pb.obj
 0001:00013b90       ?IsInitialized@InputMeetingPasswordAndScreenNameParams@proto@sdk@electron@com@@UEBA_NXZ 0000000180014b90 f   electron_sdk.pb.obj
 0001:00013b90       ?IsInitialized@InputMeetingScreenNameParams@proto@sdk@electron@com@@UEBA_NXZ 0000000180014b90 f   electron_sdk.pb.obj
 0001:00013b90       ?IsInitialized@InputScreenNameParams@proto@sdk@electron@com@@UEBA_NXZ 0000000180014b90 f   electron_sdk.pb.obj
 0001:00013b90       ?IsInitialized@InputUserInfoParams@proto@sdk@electron@com@@UEBA_NXZ 0000000180014b90 f   electron_sdk.pb.obj
 0001:00013b90       ?IsInitialized@InputWebinarRegisterEmailAndScreenNameParams@proto@sdk@electron@com@@UEBA_NXZ 0000000180014b90 f   electron_sdk.pb.obj
 0001:00013b90       ?IsInitialized@IsHardwareEncodeEnabledParams@proto@sdk@electron@com@@UEBA_NXZ 0000000180014b90 f   electron_sdk.pb.obj
 0001:00013b90       ?IsInitialized@IsSupportLocalRecordingParams@proto@sdk@electron@com@@UEBA_NXZ 0000000180014b90 f   electron_sdk.pb.obj
 0001:00013b90       ?IsInitialized@IsValidEmailParams@proto@sdk@electron@com@@UEBA_NXZ 0000000180014b90 f   electron_sdk.pb.obj
 0001:00013b90       ?IsInitialized@JoinMeetingParams@proto@sdk@electron@com@@UEBA_NXZ 0000000180014b90 f   electron_sdk.pb.obj
 0001:00013b90       ?IsInitialized@JoinWithArchiveParams@proto@sdk@electron@com@@UEBA_NXZ 0000000180014b90 f   electron_sdk.pb.obj
 0001:00013b90       ?IsInitialized@JoinWithoutLoginParams@proto@sdk@electron@com@@UEBA_NXZ 0000000180014b90 f   electron_sdk.pb.obj
 0001:00013b90       ?IsInitialized@LeaveMeetingParams@proto@sdk@electron@com@@UEBA_NXZ 0000000180014b90 f   electron_sdk.pb.obj
 0001:00013b90       ?IsInitialized@LoginWithSSOTokenParams@proto@sdk@electron@com@@UEBA_NXZ 0000000180014b90 f   electron_sdk.pb.obj
 0001:00013b90       ?IsInitialized@MoveFloatVideoWndParams@proto@sdk@electron@com@@UEBA_NXZ 0000000180014b90 f   electron_sdk.pb.obj
 0001:00013b90       ?IsInitialized@MuteAudioParams@proto@sdk@electron@com@@UEBA_NXZ 0000000180014b90 f   electron_sdk.pb.obj
 0001:00013b90       ?IsInitialized@MuteVideoParams@proto@sdk@electron@com@@UEBA_NXZ 0000000180014b90 f   electron_sdk.pb.obj
 0001:00013b90       ?IsInitialized@PinVideoToFirstViewParams@proto@sdk@electron@com@@UEBA_NXZ 0000000180014b90 f   electron_sdk.pb.obj
 0001:00013b90       ?IsInitialized@PollingIDParams@proto@sdk@electron@com@@UEBA_NXZ 0000000180014b90 f   electron_sdk.pb.obj
 0001:00013b90       ?IsInitialized@PrePopulateWebinarRegistrationInfoParams@proto@sdk@electron@com@@UEBA_NXZ 0000000180014b90 f   electron_sdk.pb.obj
 0001:00013b90       ?IsInitialized@PutInWaitingRoomParams@proto@sdk@electron@com@@UEBA_NXZ 0000000180014b90 f   electron_sdk.pb.obj
 0001:00013b90       ?IsInitialized@QuestionCaseSensitiveParams@proto@sdk@electron@com@@UEBA_NXZ 0000000180014b90 f   electron_sdk.pb.obj
 0001:00013b90       ?IsInitialized@QuestionIDParams@proto@sdk@electron@com@@UEBA_NXZ 0000000180014b90 f   electron_sdk.pb.obj
 0001:00013b90       ?IsInitialized@QuestionImagePathParams@proto@sdk@electron@com@@UEBA_NXZ 0000000180014b90 f   electron_sdk.pb.obj
 0001:00013b90       ?IsInitialized@RedirectClickAudioBTNEventParams@proto@sdk@electron@com@@UEBA_NXZ 0000000180014b90 f   electron_sdk.pb.obj
 0001:00013b90       ?IsInitialized@RedirectClickAudioMenuBTNEventParams@proto@sdk@electron@com@@UEBA_NXZ 0000000180014b90 f   electron_sdk.pb.obj
 0001:00013b90       ?IsInitialized@RedirectClickCCBTNEventParams@proto@sdk@electron@com@@UEBA_NXZ 0000000180014b90 f   electron_sdk.pb.obj
 0001:00013b90       ?IsInitialized@RedirectClickCustomLiveStreamMenuEventParams@proto@sdk@electron@com@@UEBA_NXZ 0000000180014b90 f   electron_sdk.pb.obj
 0001:00013b90       ?IsInitialized@RedirectClickEndMeetingBTNEventParams@proto@sdk@electron@com@@UEBA_NXZ 0000000180014b90 f   electron_sdk.pb.obj
 0001:00013b90       ?IsInitialized@RedirectClickParticipantListBTNEventParams@proto@sdk@electron@com@@UEBA_NXZ 0000000180014b90 f   electron_sdk.pb.obj
 0001:00013b90       ?IsInitialized@RedirectClickShareBTNEventParams@proto@sdk@electron@com@@UEBA_NXZ 0000000180014b90 f   electron_sdk.pb.obj
 0001:00013b90       ?IsInitialized@RedirectConfirmStartArchiveDialogParams@proto@sdk@electron@com@@UEBA_NXZ 0000000180014b90 f   electron_sdk.pb.obj
 0001:00013b90       ?IsInitialized@RedirectEndOtherMeetingParams@proto@sdk@electron@com@@UEBA_NXZ 0000000180014b90 f   electron_sdk.pb.obj
 0001:00013b90       ?IsInitialized@RedirectFreeMeetingEndingReminderDlgParams@proto@sdk@electron@com@@UEBA_NXZ 0000000180014b90 f   electron_sdk.pb.obj
 0001:00013b90       ?IsInitialized@RedirectMeetingInputUserInfoDialogParams@proto@sdk@electron@com@@UEBA_NXZ 0000000180014b90 f   electron_sdk.pb.obj
 0001:00013b90       ?IsInitialized@RedirectMeetingWarningMsgParams@proto@sdk@electron@com@@UEBA_NXZ 0000000180014b90 f   electron_sdk.pb.obj
 0001:00013b90       ?IsInitialized@RedirectWebinarNeedRegisterParams@proto@sdk@electron@com@@UEBA_NXZ 0000000180014b90 f   electron_sdk.pb.obj
 0001:00013b90       ?IsInitialized@RedoParams@proto@sdk@electron@com@@UEBA_NXZ 0000000180014b90 f   electron_sdk.pb.obj
 0001:00013b90       ?IsInitialized@RemoveBGImageParams@proto@sdk@electron@com@@UEBA_NXZ 0000000180014b90 f   electron_sdk.pb.obj
 0001:00013b90       ?IsInitialized@RemoveBGVideoParams@proto@sdk@electron@com@@UEBA_NXZ 0000000180014b90 f   electron_sdk.pb.obj
 0001:00013b90       ?IsInitialized@RemoveRawLiveStreamPrivilegeParams@proto@sdk@electron@com@@UEBA_NXZ 0000000180014b90 f   electron_sdk.pb.obj
 0001:00013b90       ?IsInitialized@RenameUserParams@proto@sdk@electron@com@@UEBA_NXZ 0000000180014b90 f   electron_sdk.pb.obj
 0001:00013b90       ?IsInitialized@RequestRawLiveStreamParams@proto@sdk@electron@com@@UEBA_NXZ 0000000180014b90 f   electron_sdk.pb.obj
 0001:00013b90       ?IsInitialized@RetrieveParams@proto@sdk@electron@com@@UEBA_NXZ 0000000180014b90 f   electron_sdk.pb.obj
 0001:00013b90       ?IsInitialized@SSOLoginWithWebUriProtocolParams@proto@sdk@electron@com@@UEBA_NXZ 0000000180014b90 f   electron_sdk.pb.obj
 0001:00013b90       ?IsInitialized@ScheduleMeetingWithWndParams@proto@sdk@electron@com@@UEBA_NXZ 0000000180014b90 f   electron_sdk.pb.obj
 0001:00013b90       ?IsInitialized@SelectMicParams@proto@sdk@electron@com@@UEBA_NXZ 0000000180014b90 f   electron_sdk.pb.obj
 0001:00013b90       ?IsInitialized@SelectSpeakerParams@proto@sdk@electron@com@@UEBA_NXZ 0000000180014b90 f   electron_sdk.pb.obj
 0001:00013b90       ?IsInitialized@SelectVideoCameraParams@proto@sdk@electron@com@@UEBA_NXZ 0000000180014b90 f   electron_sdk.pb.obj
 0001:00013b90       ?IsInitialized@SendQueryQuestionParams@proto@sdk@electron@com@@UEBA_NXZ 0000000180014b90 f   electron_sdk.pb.obj
 0001:00013b90       ?IsInitialized@SetAttendeeViewModeParams@proto@sdk@electron@com@@UEBA_NXZ 0000000180014b90 f   electron_sdk.pb.obj
 0001:00013b90       ?IsInitialized@SetAudioShareModeParams@proto@sdk@electron@com@@UEBA_NXZ 0000000180014b90 f   electron_sdk.pb.obj
 0001:00013b90       ?IsInitialized@SetBottomFloatToolBarWndVisibilityParams@proto@sdk@electron@com@@UEBA_NXZ 0000000180014b90 f   electron_sdk.pb.obj
 0001:00013b90       ?IsInitialized@SetChatMessageBuilderParams@proto@sdk@electron@com@@UEBA_NXZ 0000000180014b90 f   electron_sdk.pb.obj
 0001:00013b90       ?IsInitialized@SetColorParams@proto@sdk@electron@com@@UEBA_NXZ 0000000180014b90 f   electron_sdk.pb.obj
 0001:00013b90       ?IsInitialized@SetCustomizedCloudRecordingMgrUrlParams@proto@sdk@electron@com@@UEBA_NXZ 0000000180014b90 f   electron_sdk.pb.obj
 0001:00013b90       ?IsInitialized@SetCustomizedInvitationDomainParams@proto@sdk@electron@com@@UEBA_NXZ 0000000180014b90 f   electron_sdk.pb.obj
 0001:00013b90       ?IsInitialized@SetCustomizedPollingUrlParams@proto@sdk@electron@com@@UEBA_NXZ 0000000180014b90 f   electron_sdk.pb.obj
 0001:00013b90       ?IsInitialized@SetDashboardViewSizeParams@proto@sdk@electron@com@@UEBA_NXZ 0000000180014b90 f   electron_sdk.pb.obj
 0001:00013b90       ?IsInitialized@SetDefaultCellPhoneInfoParams@proto@sdk@electron@com@@UEBA_NXZ 0000000180014b90 f   electron_sdk.pb.obj
 0001:00013b90       ?IsInitialized@SetDirectShareMonitorIDParams@proto@sdk@electron@com@@UEBA_NXZ 0000000180014b90 f   electron_sdk.pb.obj
 0001:00013b90       ?IsInitialized@SetDocDashboardSizeParams@proto@sdk@electron@com@@UEBA_NXZ 0000000180014b90 f   electron_sdk.pb.obj
 0001:00013b90       ?IsInitialized@SetDocsCreateOptionParams@proto@sdk@electron@com@@UEBA_NXZ 0000000180014b90 f   electron_sdk.pb.obj
 0001:00013b90       ?IsInitialized@SetDocsShareOptionParams@proto@sdk@electron@com@@UEBA_NXZ 0000000180014b90 f   electron_sdk.pb.obj
 0001:00013b90       ?IsInitialized@SetDocsViewPosParams@proto@sdk@electron@com@@UEBA_NXZ 0000000180014b90 f   electron_sdk.pb.obj
 0001:00013b90       ?IsInitialized@SetDocsViewSizeParams@proto@sdk@electron@com@@UEBA_NXZ 0000000180014b90 f   electron_sdk.pb.obj
 0001:00013b90       ?IsInitialized@SetEchoCancellationLevelParams@proto@sdk@electron@com@@UEBA_NXZ 0000000180014b90 f   electron_sdk.pb.obj
 0001:00013b90       ?IsInitialized@SetEnableOptionParams@proto@sdk@electron@com@@UEBA_NXZ 0000000180014b90 f   electron_sdk.pb.obj
 0001:00013b90       ?IsInitialized@SetFloatVideoPosParams@proto@sdk@electron@com@@UEBA_NXZ 0000000180014b90 f   electron_sdk.pb.obj
 0001:00013b90       ?IsInitialized@SetFloatVideoWndVisibilityParams@proto@sdk@electron@com@@UEBA_NXZ 0000000180014b90 f   electron_sdk.pb.obj
 0001:00013b90       ?IsInitialized@SetLineWidthParams@proto@sdk@electron@com@@UEBA_NXZ 0000000180014b90 f   electron_sdk.pb.obj
 0001:00013b90       ?IsInitialized@SetMaxDurationForOnlyHostInMeetingParams@proto@sdk@electron@com@@UEBA_NXZ 0000000180014b90 f   electron_sdk.pb.obj
 0001:00013b90       ?IsInitialized@SetMeetingTopicParam@proto@sdk@electron@com@@UEBA_NXZ 0000000180014b90 f   electron_sdk.pb.obj
 0001:00013b90       ?IsInitialized@SetMeetingTopicParams@proto@sdk@electron@com@@UEBA_NXZ 0000000180014b90 f   electron_sdk.pb.obj
 0001:00013b90       ?IsInitialized@SetMeetingUIPosParams@proto@sdk@electron@com@@UEBA_NXZ 0000000180014b90 f   electron_sdk.pb.obj
 0001:00013b90       ?IsInitialized@SetMicVolParams@proto@sdk@electron@com@@UEBA_NXZ 0000000180014b90 f   electron_sdk.pb.obj
 0001:00013b90       ?IsInitialized@SetOwnerWindowParams@proto@sdk@electron@com@@UEBA_NXZ 0000000180014b90 f   electron_sdk.pb.obj
 0001:00013b90       ?IsInitialized@SetPanelistChatPrivilegeParams@proto@sdk@electron@com@@UEBA_NXZ 0000000180014b90 f   electron_sdk.pb.obj
 0001:00013b90       ?IsInitialized@SetParticipantsChatPrivilegeParams@proto@sdk@electron@com@@UEBA_NXZ 0000000180014b90 f   electron_sdk.pb.obj
 0001:00013b90       ?IsInitialized@SetPipeInitParams@proto@sdk@electron@com@@UEBA_NXZ 0000000180014b90 f   electron_sdk.pb.obj
 0001:00013b90       ?IsInitialized@SetRawDataResolutionParams@proto@sdk@electron@com@@UEBA_NXZ 0000000180014b90 f   electron_sdk.pb.obj
 0001:00013b90       ?IsInitialized@SetRecordingPathParams@proto@sdk@electron@com@@UEBA_NXZ 0000000180014b90 f   electron_sdk.pb.obj
 0001:00013b90       ?IsInitialized@SetSharingToolBarVisibilityParams@proto@sdk@electron@com@@UEBA_NXZ 0000000180014b90 f   electron_sdk.pb.obj
 0001:00013b90       ?IsInitialized@SetShowAudioUseComputerSoundChkboxParams@proto@sdk@electron@com@@UEBA_NXZ 0000000180014b90 f   electron_sdk.pb.obj
 0001:00013b90       ?IsInitialized@SetShowCallInTabParams@proto@sdk@electron@com@@UEBA_NXZ 0000000180014b90 f   electron_sdk.pb.obj
 0001:00013b90       ?IsInitialized@SetShowCallMeTabParams@proto@sdk@electron@com@@UEBA_NXZ 0000000180014b90 f   electron_sdk.pb.obj
 0001:00013b90       ?IsInitialized@SetShowH323SubTabPageParams@proto@sdk@electron@com@@UEBA_NXZ 0000000180014b90 f   electron_sdk.pb.obj
 0001:00013b90       ?IsInitialized@SetShowInviteDlgTabPageParams@proto@sdk@electron@com@@UEBA_NXZ 0000000180014b90 f   electron_sdk.pb.obj
 0001:00013b90       ?IsInitialized@SetShowVideoOptimizeChkboxParams@proto@sdk@electron@com@@UEBA_NXZ 0000000180014b90 f   electron_sdk.pb.obj
 0001:00013b90       ?IsInitialized@SetSpeakerVolParams@proto@sdk@electron@com@@UEBA_NXZ 0000000180014b90 f   electron_sdk.pb.obj
 0001:00013b90       ?IsInitialized@SetToolParams@proto@sdk@electron@com@@UEBA_NXZ 0000000180014b90 f   electron_sdk.pb.obj
 0001:00013b90       ?IsInitialized@SetUsingGreenScreenParams@proto@sdk@electron@com@@UEBA_NXZ 0000000180014b90 f   electron_sdk.pb.obj
 0001:00013b90       ?IsInitialized@SetVideoQualityPreferenceParams@proto@sdk@electron@com@@UEBA_NXZ 0000000180014b90 f   electron_sdk.pb.obj
 0001:00013b90       ?IsInitialized@SetWallpaperParams@proto@sdk@electron@com@@UEBA_NXZ 0000000180014b90 f   electron_sdk.pb.obj
 0001:00013b90       ?IsInitialized@SetWhiteboardCreateOptionParams@proto@sdk@electron@com@@UEBA_NXZ 0000000180014b90 f   electron_sdk.pb.obj
 0001:00013b90       ?IsInitialized@SetWhiteboardShareOptionParams@proto@sdk@electron@com@@UEBA_NXZ 0000000180014b90 f   electron_sdk.pb.obj
 0001:00013b90       ?IsInitialized@SetWhiteboardViewPosParams@proto@sdk@electron@com@@UEBA_NXZ 0000000180014b90 f   electron_sdk.pb.obj
 0001:00013b90       ?IsInitialized@SetWhiteboardViewSizeParams@proto@sdk@electron@com@@UEBA_NXZ 0000000180014b90 f   electron_sdk.pb.obj
 0001:00013b90       ?IsInitialized@ShowAANPanelParams@proto@sdk@electron@com@@UEBA_NXZ 0000000180014b90 f   electron_sdk.pb.obj
 0001:00013b90       ?IsInitialized@ShowBottomFloatToolbarWndParams@proto@sdk@electron@com@@UEBA_NXZ 0000000180014b90 f   electron_sdk.pb.obj
 0001:00013b90       ?IsInitialized@ShowChatDlgParams@proto@sdk@electron@com@@UEBA_NXZ 0000000180014b90 f   electron_sdk.pb.obj
 0001:00013b90       ?IsInitialized@ShowDashboardViewParams@proto@sdk@electron@com@@UEBA_NXZ 0000000180014b90 f   electron_sdk.pb.obj
 0001:00013b90       ?IsInitialized@ShowDocsDashboardParams@proto@sdk@electron@com@@UEBA_NXZ 0000000180014b90 f   electron_sdk.pb.obj
 0001:00013b90       ?IsInitialized@ShowDocsViewWindowParams@proto@sdk@electron@com@@UEBA_NXZ 0000000180014b90 f   electron_sdk.pb.obj
 0001:00013b90       ?IsInitialized@ShowIndicatorPanelParams@proto@sdk@electron@com@@UEBA_NXZ 0000000180014b90 f   electron_sdk.pb.obj
 0001:00013b90       ?IsInitialized@ShowPanelParams@proto@sdk@electron@com@@UEBA_NXZ 0000000180014b90 f   electron_sdk.pb.obj
 0001:00013b90       ?IsInitialized@ShowParticipantsListWndParams@proto@sdk@electron@com@@UEBA_NXZ 0000000180014b90 f   electron_sdk.pb.obj
 0001:00013b90       ?IsInitialized@ShowPreOrNextPageVideoParams@proto@sdk@electron@com@@UEBA_NXZ 0000000180014b90 f   electron_sdk.pb.obj
 0001:00013b90       ?IsInitialized@ShowSettingDlgParams@proto@sdk@electron@com@@UEBA_NXZ 0000000180014b90 f   electron_sdk.pb.obj
 0001:00013b90       ?IsInitialized@ShowSharingFrameWindowsParams@proto@sdk@electron@com@@UEBA_NXZ 0000000180014b90 f   electron_sdk.pb.obj
 0001:00013b90       ?IsInitialized@ShowSharingToolbarParams@proto@sdk@electron@com@@UEBA_NXZ 0000000180014b90 f   electron_sdk.pb.obj
 0001:00013b90       ?IsInitialized@SpotlightVideoParams@proto@sdk@electron@com@@UEBA_NXZ 0000000180014b90 f   electron_sdk.pb.obj
 0001:00013b90       ?IsInitialized@StartAnnotationParams@proto@sdk@electron@com@@UEBA_NXZ 0000000180014b90 f   electron_sdk.pb.obj
 0001:00013b90       ?IsInitialized@StartAppShareParams@proto@sdk@electron@com@@UEBA_NXZ 0000000180014b90 f   electron_sdk.pb.obj
 0001:00013b90       ?IsInitialized@StartLiveStreamParams@proto@sdk@electron@com@@UEBA_NXZ 0000000180014b90 f   electron_sdk.pb.obj
 0001:00013b90       ?IsInitialized@StartLiveStreamWithSteamingURLParams@proto@sdk@electron@com@@UEBA_NXZ 0000000180014b90 f   electron_sdk.pb.obj
 0001:00013b90       ?IsInitialized@StartMeetingParams@proto@sdk@electron@com@@UEBA_NXZ 0000000180014b90 f   electron_sdk.pb.obj
 0001:00013b90       ?IsInitialized@StartMonitorShareParams@proto@sdk@electron@com@@UEBA_NXZ 0000000180014b90 f   electron_sdk.pb.obj
 0001:00013b90       ?IsInitialized@StartRawLiveStreamParams@proto@sdk@electron@com@@UEBA_NXZ 0000000180014b90 f   electron_sdk.pb.obj
 0001:00013b90       ?IsInitialized@StartReceiveParams@proto@sdk@electron@com@@UEBA_NXZ 0000000180014b90 f   electron_sdk.pb.obj
 0001:00013b90       ?IsInitialized@StartWithoutLoginParams@proto@sdk@electron@com@@UEBA_NXZ 0000000180014b90 f   electron_sdk.pb.obj
 0001:00013b90       ?IsInitialized@StopAnnotationParams@proto@sdk@electron@com@@UEBA_NXZ 0000000180014b90 f   electron_sdk.pb.obj
 0001:00013b90       ?IsInitialized@SubscribeParams@proto@sdk@electron@com@@UEBA_NXZ 0000000180014b90 f   electron_sdk.pb.obj
 0001:00013b90       ?IsInitialized@SwapToShowShareViewOrVideoParams@proto@sdk@electron@com@@UEBA_NXZ 0000000180014b90 f   electron_sdk.pb.obj
 0001:00013b90       ?IsInitialized@SwitchMinimizeUIMode4FirstScreenMeetingUIWndParams@proto@sdk@electron@com@@UEBA_NXZ 0000000180014b90 f   electron_sdk.pb.obj
 0001:00013b90       ?IsInitialized@SwitchSplitScreenModeParams@proto@sdk@electron@com@@UEBA_NXZ 0000000180014b90 f   electron_sdk.pb.obj
 0001:00013b90       ?IsInitialized@TransferFileParams@proto@sdk@electron@com@@UEBA_NXZ 0000000180014b90 f   electron_sdk.pb.obj
 0001:00013b90       ?IsInitialized@TryWithMeetingNumberParams@proto@sdk@electron@com@@UEBA_NXZ 0000000180014b90 f   electron_sdk.pb.obj
 0001:00013b90       ?IsInitialized@TryWithPairingCodeParams@proto@sdk@electron@com@@UEBA_NXZ 0000000180014b90 f   electron_sdk.pb.obj
 0001:00013b90       ?IsInitialized@TurnOffAeroModeInSharingParams@proto@sdk@electron@com@@UEBA_NXZ 0000000180014b90 f   electron_sdk.pb.obj
 0001:00013b90       ?IsInitialized@TurnOffAllAICompanionsParams@proto@sdk@electron@com@@UEBA_NXZ 0000000180014b90 f   electron_sdk.pb.obj
 0001:00013b90       ?IsInitialized@UnMuteVideoParams@proto@sdk@electron@com@@UEBA_NXZ 0000000180014b90 f   electron_sdk.pb.obj
 0001:00013b90       ?IsInitialized@UnSubscribeParams@proto@sdk@electron@com@@UEBA_NXZ 0000000180014b90 f   electron_sdk.pb.obj
 0001:00013b90       ?IsInitialized@UndoParams@proto@sdk@electron@com@@UEBA_NXZ 0000000180014b90 f   electron_sdk.pb.obj
 0001:00013b90       ?IsInitialized@UnmuteAudioParams@proto@sdk@electron@com@@UEBA_NXZ 0000000180014b90 f   electron_sdk.pb.obj
 0001:00013b90       ?IsInitialized@UseBGImageParams@proto@sdk@electron@com@@UEBA_NXZ 0000000180014b90 f   electron_sdk.pb.obj
 0001:00013b90       ?IsInitialized@UseBGVideoParams@proto@sdk@electron@com@@UEBA_NXZ 0000000180014b90 f   electron_sdk.pb.obj
 0001:00013b90       ?IsInitialized@VerifyParams@proto@sdk@electron@com@@UEBA_NXZ 0000000180014b90 f   electron_sdk.pb.obj
 0001:00013b90       ?IsInitialized@VoteQuestionParams@proto@sdk@electron@com@@UEBA_NXZ 0000000180014b90 f   electron_sdk.pb.obj
 0001:00013b90       ?IsInitialized@WebinarAttendeeParams@proto@sdk@electron@com@@UEBA_NXZ 0000000180014b90 f   electron_sdk.pb.obj
 0001:00013b90       __acrt_initialize          0000000180014b90 f   MSVCRT:ucrt_stubs.obj
 0001:00013b90       __acrt_thread_attach       0000000180014b90 f   MSVCRT:ucrt_stubs.obj
 0001:00013b90       __acrt_thread_detach       0000000180014b90 f   MSVCRT:ucrt_stubs.obj
 0001:00013b90       __acrt_uninitialize        0000000180014b90 f   MSVCRT:ucrt_stubs.obj
 0001:00013b90       __acrt_uninitialize_critical 0000000180014b90 f   MSVCRT:ucrt_stubs.obj
 0001:00013b90       __scrt_stub_for_acrt_initialize 0000000180014b90 f   MSVCRT:ucrt_stubs.obj
 0001:00013b90       __scrt_stub_for_acrt_thread_attach 0000000180014b90 f   MSVCRT:ucrt_stubs.obj
 0001:00013b90       __scrt_stub_for_acrt_thread_detach 0000000180014b90 f   MSVCRT:ucrt_stubs.obj
 0001:00013b90       __scrt_stub_for_acrt_uninitialize 0000000180014b90 f   MSVCRT:ucrt_stubs.obj
 0001:00013b90       __scrt_stub_for_acrt_uninitialize_critical 0000000180014b90 f   MSVCRT:ucrt_stubs.obj
 0001:00013b90       __vcrt_initialize          0000000180014b90 f   MSVCRT:ucrt_stubs.obj
 0001:00013b90       __vcrt_thread_attach       0000000180014b90 f   MSVCRT:ucrt_stubs.obj
 0001:00013b90       __vcrt_thread_detach       0000000180014b90 f   MSVCRT:ucrt_stubs.obj
 0001:00013b90       __vcrt_uninitialize        0000000180014b90 f   MSVCRT:ucrt_stubs.obj
 0001:00013b90       __vcrt_uninitialize_critical 0000000180014b90 f   MSVCRT:ucrt_stubs.obj
 0001:00013ba0       ?GetTypeName@InitSDKParams@proto@sdk@electron@com@@UEBA?AV?$basic_string@DU?$char_traits@D@std@@V?$allocator@D@2@@std@@XZ 0000000180014ba0 f   electron_sdk.pb.obj
 0001:00013bd0       ?Clear@AddBGImageParams@proto@sdk@electron@com@@UEAAXXZ 0000000180014bd0 f   electron_sdk.pb.obj
 0001:00013bd0       ?Clear@AddBGVideoParams@proto@sdk@electron@com@@UEAAXXZ 0000000180014bd0 f   electron_sdk.pb.obj
 0001:00013bd0       ?Clear@AnswerIDParams@proto@sdk@electron@com@@UEAAXXZ 0000000180014bd0 f   electron_sdk.pb.obj
 0001:00013bd0       ?Clear@AuthWithJwtTokenParams@proto@sdk@electron@com@@UEAAXXZ 0000000180014bd0 f   electron_sdk.pb.obj
 0001:00013bd0       ?Clear@ChatMessageIDParams@proto@sdk@electron@com@@UEAAXXZ 0000000180014bd0 f   electron_sdk.pb.obj
 0001:00013bd0       ?Clear@GenerateSSOLoginWebURLParams@proto@sdk@electron@com@@UEAAXXZ 0000000180014bd0 f   electron_sdk.pb.obj
 0001:00013bd0       ?Clear@GetWallpaperItemByIDParams@proto@sdk@electron@com@@UEAAXXZ 0000000180014bd0 f   electron_sdk.pb.obj
 0001:00013bd0       ?Clear@HandleZoomWebUriProtocolActionParams@proto@sdk@electron@com@@UEAAXXZ 0000000180014bd0 f   electron_sdk.pb.obj
 0001:00013bd0       ?Clear@InputMeetingScreenNameParams@proto@sdk@electron@com@@UEAAXXZ 0000000180014bd0 f   electron_sdk.pb.obj
 0001:00013bd0       ?Clear@InputScreenNameParams@proto@sdk@electron@com@@UEAAXXZ 0000000180014bd0 f   electron_sdk.pb.obj
 0001:00013bd0       ?Clear@IsValidEmailParams@proto@sdk@electron@com@@UEAAXXZ 0000000180014bd0 f   electron_sdk.pb.obj
 0001:00013bd0       ?Clear@PollingIDParams@proto@sdk@electron@com@@UEAAXXZ 0000000180014bd0 f   electron_sdk.pb.obj
 0001:00013bd0       ?Clear@QuestionIDParams@proto@sdk@electron@com@@UEAAXXZ 0000000180014bd0 f   electron_sdk.pb.obj
 0001:00013bd0       ?Clear@RequestRawLiveStreamParams@proto@sdk@electron@com@@UEAAXXZ 0000000180014bd0 f   electron_sdk.pb.obj
 0001:00013bd0       ?Clear@SSOLoginWithWebUriProtocolParams@proto@sdk@electron@com@@UEAAXXZ 0000000180014bd0 f   electron_sdk.pb.obj
 0001:00013bd0       ?Clear@SelectVideoCameraParams@proto@sdk@electron@com@@UEAAXXZ 0000000180014bd0 f   electron_sdk.pb.obj
 0001:00013bd0       ?Clear@SendQueryQuestionParams@proto@sdk@electron@com@@UEAAXXZ 0000000180014bd0 f   electron_sdk.pb.obj
 0001:00013bd0       ?Clear@SetCustomizedCloudRecordingMgrUrlParams@proto@sdk@electron@com@@UEAAXXZ 0000000180014bd0 f   electron_sdk.pb.obj
 0001:00013bd0       ?Clear@SetCustomizedInvitationDomainParams@proto@sdk@electron@com@@UEAAXXZ 0000000180014bd0 f   electron_sdk.pb.obj
 0001:00013bd0       ?Clear@SetDirectShareMonitorIDParams@proto@sdk@electron@com@@UEAAXXZ 0000000180014bd0 f   electron_sdk.pb.obj
 0001:00013bd0       ?Clear@SetMeetingTopicParam@proto@sdk@electron@com@@UEAAXXZ 0000000180014bd0 f   electron_sdk.pb.obj
 0001:00013bd0       ?Clear@SetMeetingTopicParams@proto@sdk@electron@com@@UEAAXXZ 0000000180014bd0 f   electron_sdk.pb.obj
 0001:00013bd0       ?Clear@SetOwnerWindowParams@proto@sdk@electron@com@@UEAAXXZ 0000000180014bd0 f   electron_sdk.pb.obj
 0001:00013bd0       ?Clear@SetRecordingPathParams@proto@sdk@electron@com@@UEAAXXZ 0000000180014bd0 f   electron_sdk.pb.obj
 0001:00013bd0       ?Clear@StartAppShareParams@proto@sdk@electron@com@@UEAAXXZ 0000000180014bd0 f   electron_sdk.pb.obj
 0001:00013bd0       ?Clear@StartMonitorShareParams@proto@sdk@electron@com@@UEAAXXZ 0000000180014bd0 f   electron_sdk.pb.obj
 0001:00013bd0       ?Clear@StartRawLiveStreamParams@proto@sdk@electron@com@@UEAAXXZ 0000000180014bd0 f   electron_sdk.pb.obj
 0001:00013bd0       ?Clear@StartReceiveParams@proto@sdk@electron@com@@UEAAXXZ 0000000180014bd0 f   electron_sdk.pb.obj
 0001:00013bd0       ?Clear@TryWithPairingCodeParams@proto@sdk@electron@com@@UEAAXXZ 0000000180014bd0 f   electron_sdk.pb.obj
 0001:00013c10       ?_InternalParse@AddBGImageParams@proto@sdk@electron@com@@UEAAPEBDPEBDPEAVParseContext@internal@protobuf@google@@@Z 0000000180014c10 f   electron_sdk.pb.obj
 0001:00013c10       ?_InternalParse@AddBGVideoParams@proto@sdk@electron@com@@UEAAPEBDPEBDPEAVParseContext@internal@protobuf@google@@@Z 0000000180014c10 f   electron_sdk.pb.obj
 0001:00013c10       ?_InternalParse@AnswerIDParams@proto@sdk@electron@com@@UEAAPEBDPEBDPEAVParseContext@internal@protobuf@google@@@Z 0000000180014c10 f   electron_sdk.pb.obj
 0001:00013c10       ?_InternalParse@AuthWithJwtTokenParams@proto@sdk@electron@com@@UEAAPEBDPEBDPEAVParseContext@internal@protobuf@google@@@Z 0000000180014c10 f   electron_sdk.pb.obj
 0001:00013c10       ?_InternalParse@ChatMessageIDParams@proto@sdk@electron@com@@UEAAPEBDPEBDPEAVParseContext@internal@protobuf@google@@@Z 0000000180014c10 f   electron_sdk.pb.obj
 0001:00013c10       ?_InternalParse@GenerateSSOLoginWebURLParams@proto@sdk@electron@com@@UEAAPEBDPEBDPEAVParseContext@internal@protobuf@google@@@Z 0000000180014c10 f   electron_sdk.pb.obj
 0001:00013c10       ?_InternalParse@GetWallpaperItemByIDParams@proto@sdk@electron@com@@UEAAPEBDPEBDPEAVParseContext@internal@protobuf@google@@@Z 0000000180014c10 f   electron_sdk.pb.obj
 0001:00013c10       ?_InternalParse@HandleZoomWebUriProtocolActionParams@proto@sdk@electron@com@@UEAAPEBDPEBDPEAVParseContext@internal@protobuf@google@@@Z 0000000180014c10 f   electron_sdk.pb.obj
 0001:00013c10       ?_InternalParse@InputMeetingScreenNameParams@proto@sdk@electron@com@@UEAAPEBDPEBDPEAVParseContext@internal@protobuf@google@@@Z 0000000180014c10 f   electron_sdk.pb.obj
 0001:00013c10       ?_InternalParse@InputScreenNameParams@proto@sdk@electron@com@@UEAAPEBDPEBDPEAVParseContext@internal@protobuf@google@@@Z 0000000180014c10 f   electron_sdk.pb.obj
 0001:00013c10       ?_InternalParse@IsValidEmailParams@proto@sdk@electron@com@@UEAAPEBDPEBDPEAVParseContext@internal@protobuf@google@@@Z 0000000180014c10 f   electron_sdk.pb.obj
 0001:00013c10       ?_InternalParse@PollingIDParams@proto@sdk@electron@com@@UEAAPEBDPEBDPEAVParseContext@internal@protobuf@google@@@Z 0000000180014c10 f   electron_sdk.pb.obj
 0001:00013c10       ?_InternalParse@QuestionIDParams@proto@sdk@electron@com@@UEAAPEBDPEBDPEAVParseContext@internal@protobuf@google@@@Z 0000000180014c10 f   electron_sdk.pb.obj
 0001:00013c10       ?_InternalParse@RequestRawLiveStreamParams@proto@sdk@electron@com@@UEAAPEBDPEBDPEAVParseContext@internal@protobuf@google@@@Z 0000000180014c10 f   electron_sdk.pb.obj
 0001:00013c10       ?_InternalParse@SSOLoginWithWebUriProtocolParams@proto@sdk@electron@com@@UEAAPEBDPEBDPEAVParseContext@internal@protobuf@google@@@Z 0000000180014c10 f   electron_sdk.pb.obj
 0001:00013c10       ?_InternalParse@SelectVideoCameraParams@proto@sdk@electron@com@@UEAAPEBDPEBDPEAVParseContext@internal@protobuf@google@@@Z 0000000180014c10 f   electron_sdk.pb.obj
 0001:00013c10       ?_InternalParse@SendQueryQuestionParams@proto@sdk@electron@com@@UEAAPEBDPEBDPEAVParseContext@internal@protobuf@google@@@Z 0000000180014c10 f   electron_sdk.pb.obj
 0001:00013c10       ?_InternalParse@SetCustomizedCloudRecordingMgrUrlParams@proto@sdk@electron@com@@UEAAPEBDPEBDPEAVParseContext@internal@protobuf@google@@@Z 0000000180014c10 f   electron_sdk.pb.obj
 0001:00013c10       ?_InternalParse@SetCustomizedInvitationDomainParams@proto@sdk@electron@com@@UEAAPEBDPEBDPEAVParseContext@internal@protobuf@google@@@Z 0000000180014c10 f   electron_sdk.pb.obj
 0001:00013c10       ?_InternalParse@SetDirectShareMonitorIDParams@proto@sdk@electron@com@@UEAAPEBDPEBDPEAVParseContext@internal@protobuf@google@@@Z 0000000180014c10 f   electron_sdk.pb.obj
 0001:00013c10       ?_InternalParse@SetMeetingTopicParam@proto@sdk@electron@com@@UEAAPEBDPEBDPEAVParseContext@internal@protobuf@google@@@Z 0000000180014c10 f   electron_sdk.pb.obj
 0001:00013c10       ?_InternalParse@SetMeetingTopicParams@proto@sdk@electron@com@@UEAAPEBDPEBDPEAVParseContext@internal@protobuf@google@@@Z 0000000180014c10 f   electron_sdk.pb.obj
 0001:00013c10       ?_InternalParse@SetOwnerWindowParams@proto@sdk@electron@com@@UEAAPEBDPEBDPEAVParseContext@internal@protobuf@google@@@Z 0000000180014c10 f   electron_sdk.pb.obj
 0001:00013c10       ?_InternalParse@SetRecordingPathParams@proto@sdk@electron@com@@UEAAPEBDPEBDPEAVParseContext@internal@protobuf@google@@@Z 0000000180014c10 f   electron_sdk.pb.obj
 0001:00013c10       ?_InternalParse@StartAppShareParams@proto@sdk@electron@com@@UEAAPEBDPEBDPEAVParseContext@internal@protobuf@google@@@Z 0000000180014c10 f   electron_sdk.pb.obj
 0001:00013c10       ?_InternalParse@StartMonitorShareParams@proto@sdk@electron@com@@UEAAPEBDPEBDPEAVParseContext@internal@protobuf@google@@@Z 0000000180014c10 f   electron_sdk.pb.obj
 0001:00013c10       ?_InternalParse@StartRawLiveStreamParams@proto@sdk@electron@com@@UEAAPEBDPEBDPEAVParseContext@internal@protobuf@google@@@Z 0000000180014c10 f   electron_sdk.pb.obj
 0001:00013c10       ?_InternalParse@StartReceiveParams@proto@sdk@electron@com@@UEAAPEBDPEBDPEAVParseContext@internal@protobuf@google@@@Z 0000000180014c10 f   electron_sdk.pb.obj
 0001:00013c10       ?_InternalParse@TryWithPairingCodeParams@proto@sdk@electron@com@@UEAAPEBDPEBDPEAVParseContext@internal@protobuf@google@@@Z 0000000180014c10 f   electron_sdk.pb.obj
 0001:00013d60       ?_InternalSerialize@AddBGImageParams@proto@sdk@electron@com@@UEBAPEAEPEAEPEAVEpsCopyOutputStream@io@protobuf@google@@@Z 0000000180014d60 f   electron_sdk.pb.obj
 0001:00013d60       ?_InternalSerialize@AddBGVideoParams@proto@sdk@electron@com@@UEBAPEAEPEAEPEAVEpsCopyOutputStream@io@protobuf@google@@@Z 0000000180014d60 f   electron_sdk.pb.obj
 0001:00013d60       ?_InternalSerialize@AnswerIDParams@proto@sdk@electron@com@@UEBAPEAEPEAEPEAVEpsCopyOutputStream@io@protobuf@google@@@Z 0000000180014d60 f   electron_sdk.pb.obj
 0001:00013d60       ?_InternalSerialize@AuthWithJwtTokenParams@proto@sdk@electron@com@@UEBAPEAEPEAEPEAVEpsCopyOutputStream@io@protobuf@google@@@Z 0000000180014d60 f   electron_sdk.pb.obj
 0001:00013d60       ?_InternalSerialize@ChatMessageIDParams@proto@sdk@electron@com@@UEBAPEAEPEAEPEAVEpsCopyOutputStream@io@protobuf@google@@@Z 0000000180014d60 f   electron_sdk.pb.obj
 0001:00013d60       ?_InternalSerialize@GenerateSSOLoginWebURLParams@proto@sdk@electron@com@@UEBAPEAEPEAEPEAVEpsCopyOutputStream@io@protobuf@google@@@Z 0000000180014d60 f   electron_sdk.pb.obj
 0001:00013d60       ?_InternalSerialize@GetWallpaperItemByIDParams@proto@sdk@electron@com@@UEBAPEAEPEAEPEAVEpsCopyOutputStream@io@protobuf@google@@@Z 0000000180014d60 f   electron_sdk.pb.obj
 0001:00013d60       ?_InternalSerialize@HandleZoomWebUriProtocolActionParams@proto@sdk@electron@com@@UEBAPEAEPEAEPEAVEpsCopyOutputStream@io@protobuf@google@@@Z 0000000180014d60 f   electron_sdk.pb.obj
 0001:00013d60       ?_InternalSerialize@InputMeetingScreenNameParams@proto@sdk@electron@com@@UEBAPEAEPEAEPEAVEpsCopyOutputStream@io@protobuf@google@@@Z 0000000180014d60 f   electron_sdk.pb.obj
 0001:00013d60       ?_InternalSerialize@InputScreenNameParams@proto@sdk@electron@com@@UEBAPEAEPEAEPEAVEpsCopyOutputStream@io@protobuf@google@@@Z 0000000180014d60 f   electron_sdk.pb.obj
 0001:00013d60       ?_InternalSerialize@IsValidEmailParams@proto@sdk@electron@com@@UEBAPEAEPEAEPEAVEpsCopyOutputStream@io@protobuf@google@@@Z 0000000180014d60 f   electron_sdk.pb.obj
 0001:00013d60       ?_InternalSerialize@PollingIDParams@proto@sdk@electron@com@@UEBAPEAEPEAEPEAVEpsCopyOutputStream@io@protobuf@google@@@Z 0000000180014d60 f   electron_sdk.pb.obj
 0001:00013d60       ?_InternalSerialize@QuestionIDParams@proto@sdk@electron@com@@UEBAPEAEPEAEPEAVEpsCopyOutputStream@io@protobuf@google@@@Z 0000000180014d60 f   electron_sdk.pb.obj
 0001:00013d60       ?_InternalSerialize@RequestRawLiveStreamParams@proto@sdk@electron@com@@UEBAPEAEPEAEPEAVEpsCopyOutputStream@io@protobuf@google@@@Z 0000000180014d60 f   electron_sdk.pb.obj
 0001:00013d60       ?_InternalSerialize@SSOLoginWithWebUriProtocolParams@proto@sdk@electron@com@@UEBAPEAEPEAEPEAVEpsCopyOutputStream@io@protobuf@google@@@Z 0000000180014d60 f   electron_sdk.pb.obj
 0001:00013d60       ?_InternalSerialize@SelectVideoCameraParams@proto@sdk@electron@com@@UEBAPEAEPEAEPEAVEpsCopyOutputStream@io@protobuf@google@@@Z 0000000180014d60 f   electron_sdk.pb.obj
 0001:00013d60       ?_InternalSerialize@SendQueryQuestionParams@proto@sdk@electron@com@@UEBAPEAEPEAEPEAVEpsCopyOutputStream@io@protobuf@google@@@Z 0000000180014d60 f   electron_sdk.pb.obj
 0001:00013d60       ?_InternalSerialize@SetCustomizedCloudRecordingMgrUrlParams@proto@sdk@electron@com@@UEBAPEAEPEAEPEAVEpsCopyOutputStream@io@protobuf@google@@@Z 0000000180014d60 f   electron_sdk.pb.obj
 0001:00013d60       ?_InternalSerialize@SetCustomizedInvitationDomainParams@proto@sdk@electron@com@@UEBAPEAEPEAEPEAVEpsCopyOutputStream@io@protobuf@google@@@Z 0000000180014d60 f   electron_sdk.pb.obj
 0001:00013d60       ?_InternalSerialize@SetDirectShareMonitorIDParams@proto@sdk@electron@com@@UEBAPEAEPEAEPEAVEpsCopyOutputStream@io@protobuf@google@@@Z 0000000180014d60 f   electron_sdk.pb.obj
 0001:00013d60       ?_InternalSerialize@SetMeetingTopicParam@proto@sdk@electron@com@@UEBAPEAEPEAEPEAVEpsCopyOutputStream@io@protobuf@google@@@Z 0000000180014d60 f   electron_sdk.pb.obj
 0001:00013d60       ?_InternalSerialize@SetMeetingTopicParams@proto@sdk@electron@com@@UEBAPEAEPEAEPEAVEpsCopyOutputStream@io@protobuf@google@@@Z 0000000180014d60 f   electron_sdk.pb.obj
 0001:00013d60       ?_InternalSerialize@SetOwnerWindowParams@proto@sdk@electron@com@@UEBAPEAEPEAEPEAVEpsCopyOutputStream@io@protobuf@google@@@Z 0000000180014d60 f   electron_sdk.pb.obj
 0001:00013d60       ?_InternalSerialize@SetRecordingPathParams@proto@sdk@electron@com@@UEBAPEAEPEAEPEAVEpsCopyOutputStream@io@protobuf@google@@@Z 0000000180014d60 f   electron_sdk.pb.obj
 0001:00013d60       ?_InternalSerialize@StartAppShareParams@proto@sdk@electron@com@@UEBAPEAEPEAEPEAVEpsCopyOutputStream@io@protobuf@google@@@Z 0000000180014d60 f   electron_sdk.pb.obj
 0001:00013d60       ?_InternalSerialize@StartMonitorShareParams@proto@sdk@electron@com@@UEBAPEAEPEAEPEAVEpsCopyOutputStream@io@protobuf@google@@@Z 0000000180014d60 f   electron_sdk.pb.obj
 0001:00013d60       ?_InternalSerialize@StartRawLiveStreamParams@proto@sdk@electron@com@@UEBAPEAEPEAEPEAVEpsCopyOutputStream@io@protobuf@google@@@Z 0000000180014d60 f   electron_sdk.pb.obj
 0001:00013d60       ?_InternalSerialize@StartReceiveParams@proto@sdk@electron@com@@UEBAPEAEPEAEPEAVEpsCopyOutputStream@io@protobuf@google@@@Z 0000000180014d60 f   electron_sdk.pb.obj
 0001:00013d60       ?_InternalSerialize@TryWithPairingCodeParams@proto@sdk@electron@com@@UEBAPEAEPEAEPEAVEpsCopyOutputStream@io@protobuf@google@@@Z 0000000180014d60 f   electron_sdk.pb.obj
 0001:00013e20       ?ByteSizeLong@AddBGImageParams@proto@sdk@electron@com@@UEBA_KXZ 0000000180014e20 f   electron_sdk.pb.obj
 0001:00013e20       ?ByteSizeLong@AddBGVideoParams@proto@sdk@electron@com@@UEBA_KXZ 0000000180014e20 f   electron_sdk.pb.obj
 0001:00013e20       ?ByteSizeLong@AnswerIDParams@proto@sdk@electron@com@@UEBA_KXZ 0000000180014e20 f   electron_sdk.pb.obj
 0001:00013e20       ?ByteSizeLong@AuthWithJwtTokenParams@proto@sdk@electron@com@@UEBA_KXZ 0000000180014e20 f   electron_sdk.pb.obj
 0001:00013e20       ?ByteSizeLong@ChatMessageIDParams@proto@sdk@electron@com@@UEBA_KXZ 0000000180014e20 f   electron_sdk.pb.obj
 0001:00013e20       ?ByteSizeLong@GenerateSSOLoginWebURLParams@proto@sdk@electron@com@@UEBA_KXZ 0000000180014e20 f   electron_sdk.pb.obj
 0001:00013e20       ?ByteSizeLong@GetWallpaperItemByIDParams@proto@sdk@electron@com@@UEBA_KXZ 0000000180014e20 f   electron_sdk.pb.obj
 0001:00013e20       ?ByteSizeLong@HandleZoomWebUriProtocolActionParams@proto@sdk@electron@com@@UEBA_KXZ 0000000180014e20 f   electron_sdk.pb.obj
 0001:00013e20       ?ByteSizeLong@InputMeetingScreenNameParams@proto@sdk@electron@com@@UEBA_KXZ 0000000180014e20 f   electron_sdk.pb.obj
 0001:00013e20       ?ByteSizeLong@InputScreenNameParams@proto@sdk@electron@com@@UEBA_KXZ 0000000180014e20 f   electron_sdk.pb.obj
 0001:00013e20       ?ByteSizeLong@IsValidEmailParams@proto@sdk@electron@com@@UEBA_KXZ 0000000180014e20 f   electron_sdk.pb.obj
 0001:00013e20       ?ByteSizeLong@PollingIDParams@proto@sdk@electron@com@@UEBA_KXZ 0000000180014e20 f   electron_sdk.pb.obj
 0001:00013e20       ?ByteSizeLong@QuestionIDParams@proto@sdk@electron@com@@UEBA_KXZ 0000000180014e20 f   electron_sdk.pb.obj
 0001:00013e20       ?ByteSizeLong@RequestRawLiveStreamParams@proto@sdk@electron@com@@UEBA_KXZ 0000000180014e20 f   electron_sdk.pb.obj
 0001:00013e20       ?ByteSizeLong@SSOLoginWithWebUriProtocolParams@proto@sdk@electron@com@@UEBA_KXZ 0000000180014e20 f   electron_sdk.pb.obj
 0001:00013e20       ?ByteSizeLong@SelectVideoCameraParams@proto@sdk@electron@com@@UEBA_KXZ 0000000180014e20 f   electron_sdk.pb.obj
 0001:00013e20       ?ByteSizeLong@SendQueryQuestionParams@proto@sdk@electron@com@@UEBA_KXZ 0000000180014e20 f   electron_sdk.pb.obj
 0001:00013e20       ?ByteSizeLong@SetCustomizedCloudRecordingMgrUrlParams@proto@sdk@electron@com@@UEBA_KXZ 0000000180014e20 f   electron_sdk.pb.obj
 0001:00013e20       ?ByteSizeLong@SetCustomizedInvitationDomainParams@proto@sdk@electron@com@@UEBA_KXZ 0000000180014e20 f   electron_sdk.pb.obj
 0001:00013e20       ?ByteSizeLong@SetDirectShareMonitorIDParams@proto@sdk@electron@com@@UEBA_KXZ 0000000180014e20 f   electron_sdk.pb.obj
 0001:00013e20       ?ByteSizeLong@SetMeetingTopicParam@proto@sdk@electron@com@@UEBA_KXZ 0000000180014e20 f   electron_sdk.pb.obj
 0001:00013e20       ?ByteSizeLong@SetMeetingTopicParams@proto@sdk@electron@com@@UEBA_KXZ 0000000180014e20 f   electron_sdk.pb.obj
 0001:00013e20       ?ByteSizeLong@SetOwnerWindowParams@proto@sdk@electron@com@@UEBA_KXZ 0000000180014e20 f   electron_sdk.pb.obj
 0001:00013e20       ?ByteSizeLong@SetRecordingPathParams@proto@sdk@electron@com@@UEBA_KXZ 0000000180014e20 f   electron_sdk.pb.obj
 0001:00013e20       ?ByteSizeLong@StartAppShareParams@proto@sdk@electron@com@@UEBA_KXZ 0000000180014e20 f   electron_sdk.pb.obj
 0001:00013e20       ?ByteSizeLong@StartMonitorShareParams@proto@sdk@electron@com@@UEBA_KXZ 0000000180014e20 f   electron_sdk.pb.obj
 0001:00013e20       ?ByteSizeLong@StartRawLiveStreamParams@proto@sdk@electron@com@@UEBA_KXZ 0000000180014e20 f   electron_sdk.pb.obj
 0001:00013e20       ?ByteSizeLong@StartReceiveParams@proto@sdk@electron@com@@UEBA_KXZ 0000000180014e20 f   electron_sdk.pb.obj
 0001:00013e20       ?ByteSizeLong@TryWithPairingCodeParams@proto@sdk@electron@com@@UEBA_KXZ 0000000180014e20 f   electron_sdk.pb.obj
 0001:00013e90       ?CheckTypeAndMergeFrom@AuthWithJwtTokenParams@proto@sdk@electron@com@@UEAAXAEBVMessageLite@protobuf@google@@@Z 0000000180014e90 f   electron_sdk.pb.obj
 0001:00013ea0       ?MergeFrom@AuthWithJwtTokenParams@proto@sdk@electron@com@@QEAAXAEBV12345@@Z 0000000180014ea0 f   electron_sdk.pb.obj
 0001:00013f70       ?GetTypeName@AuthWithJwtTokenParams@proto@sdk@electron@com@@UEBA?AV?$basic_string@DU?$char_traits@D@std@@V?$allocator@D@2@@std@@XZ 0000000180014f70 f   electron_sdk.pb.obj
 0001:00013fa0       ?Clear@LoginWithSSOTokenParams@proto@sdk@electron@com@@UEAAXXZ 0000000180014fa0 f   electron_sdk.pb.obj
 0001:00013fa0       ?Clear@SetCustomizedPollingUrlParams@proto@sdk@electron@com@@UEAAXXZ 0000000180014fa0 f   electron_sdk.pb.obj
 0001:00013fa0       ?Clear@VoteQuestionParams@proto@sdk@electron@com@@UEAAXXZ 0000000180014fa0 f   electron_sdk.pb.obj
 0001:00013fe0       ?_InternalParse@LoginWithSSOTokenParams@proto@sdk@electron@com@@UEAAPEBDPEBDPEAVParseContext@internal@protobuf@google@@@Z 0000000180014fe0 f   electron_sdk.pb.obj
 0001:00013fe0       ?_InternalParse@SetCustomizedPollingUrlParams@proto@sdk@electron@com@@UEAAPEBDPEBDPEAVParseContext@internal@protobuf@google@@@Z 0000000180014fe0 f   electron_sdk.pb.obj
 0001:00013fe0       ?_InternalParse@VoteQuestionParams@proto@sdk@electron@com@@UEAAPEBDPEBDPEAVParseContext@internal@protobuf@google@@@Z 0000000180014fe0 f   electron_sdk.pb.obj
 0001:00014180       ?_InternalSerialize@LoginWithSSOTokenParams@proto@sdk@electron@com@@UEBAPEAEPEAEPEAVEpsCopyOutputStream@io@protobuf@google@@@Z 0000000180015180 f   electron_sdk.pb.obj
 0001:00014180       ?_InternalSerialize@SetCustomizedPollingUrlParams@proto@sdk@electron@com@@UEBAPEAEPEAEPEAVEpsCopyOutputStream@io@protobuf@google@@@Z 0000000180015180 f   electron_sdk.pb.obj
 0001:00014180       ?_InternalSerialize@VoteQuestionParams@proto@sdk@electron@com@@UEBAPEAEPEAEPEAVEpsCopyOutputStream@io@protobuf@google@@@Z 0000000180015180 f   electron_sdk.pb.obj
 0001:00014260       ?ByteSizeLong@LoginWithSSOTokenParams@proto@sdk@electron@com@@UEBA_KXZ 0000000180015260 f   electron_sdk.pb.obj
 0001:00014260       ?ByteSizeLong@SetCustomizedPollingUrlParams@proto@sdk@electron@com@@UEBA_KXZ 0000000180015260 f   electron_sdk.pb.obj
 0001:00014260       ?ByteSizeLong@VoteQuestionParams@proto@sdk@electron@com@@UEBA_KXZ 0000000180015260 f   electron_sdk.pb.obj
 0001:000142e0       ?CheckTypeAndMergeFrom@LoginWithSSOTokenParams@proto@sdk@electron@com@@UEAAXAEBVMessageLite@protobuf@google@@@Z 00000001800152e0 f   electron_sdk.pb.obj
 0001:000142f0       ?MergeFrom@LoginWithSSOTokenParams@proto@sdk@electron@com@@QEAAXAEBV12345@@Z 00000001800152f0 f   electron_sdk.pb.obj
 0001:00014410       ?GetTypeName@LoginWithSSOTokenParams@proto@sdk@electron@com@@UEBA?AV?$basic_string@DU?$char_traits@D@std@@V?$allocator@D@2@@std@@XZ 0000000180015410 f   electron_sdk.pb.obj
 0001:00014440       ?Clear@StartMeetingParams@proto@sdk@electron@com@@UEAAXXZ 0000000180015440 f   electron_sdk.pb.obj
 0001:000144c0       ?_InternalParse@StartMeetingParams@proto@sdk@electron@com@@UEAAPEBDPEBDPEAVParseContext@internal@protobuf@google@@@Z 00000001800154c0 f   electron_sdk.pb.obj
 0001:00014780       ?_InternalSerialize@StartMeetingParams@proto@sdk@electron@com@@UEBAPEAEPEAEPEAVEpsCopyOutputStream@io@protobuf@google@@@Z 0000000180015780 f   electron_sdk.pb.obj
 0001:00014920       ?ByteSizeLong@StartMeetingParams@proto@sdk@electron@com@@UEBA_KXZ 0000000180015920 f   electron_sdk.pb.obj
 0001:00014a60       ?CheckTypeAndMergeFrom@StartMeetingParams@proto@sdk@electron@com@@UEAAXAEBVMessageLite@protobuf@google@@@Z 0000000180015a60 f   electron_sdk.pb.obj
 0001:00014a70       ?MergeFrom@StartMeetingParams@proto@sdk@electron@com@@QEAAXAEBV12345@@Z 0000000180015a70 f   electron_sdk.pb.obj
 0001:00014be0       ?GetTypeName@StartMeetingParams@proto@sdk@electron@com@@UEBA?AV?$basic_string@DU?$char_traits@D@std@@V?$allocator@D@2@@std@@XZ 0000000180015be0 f   electron_sdk.pb.obj
 0001:00014c10       ?Clear@StartWithoutLoginParams@proto@sdk@electron@com@@UEAAXXZ 0000000180015c10 f   electron_sdk.pb.obj
 0001:00014cf0       ?_InternalParse@StartWithoutLoginParams@proto@sdk@electron@com@@UEAAPEBDPEBDPEAVParseContext@internal@protobuf@google@@@Z 0000000180015cf0 f   electron_sdk.pb.obj
 0001:00015050       ?_InternalSerialize@StartWithoutLoginParams@proto@sdk@electron@com@@UEBAPEAEPEAEPEAVEpsCopyOutputStream@io@protobuf@google@@@Z 0000000180016050 f   electron_sdk.pb.obj
 0001:000152a0       ?ByteSizeLong@StartWithoutLoginParams@proto@sdk@electron@com@@UEBA_KXZ 00000001800162a0 f   electron_sdk.pb.obj
 0001:00015500       ?CheckTypeAndMergeFrom@StartWithoutLoginParams@proto@sdk@electron@com@@UEAAXAEBVMessageLite@protobuf@google@@@Z 0000000180016500 f   electron_sdk.pb.obj
 0001:00015510       ?MergeFrom@StartWithoutLoginParams@proto@sdk@electron@com@@QEAAXAEBV12345@@Z 0000000180016510 f   electron_sdk.pb.obj
 0001:00015700       ?GetTypeName@StartWithoutLoginParams@proto@sdk@electron@com@@UEBA?AV?$basic_string@DU?$char_traits@D@std@@V?$allocator@D@2@@std@@XZ 0000000180016700 f   electron_sdk.pb.obj
 0001:00015730       ?Clear@JoinMeetingParams@proto@sdk@electron@com@@UEAAXXZ 0000000180016730 f   electron_sdk.pb.obj
 0001:00015870       ?_InternalParse@JoinMeetingParams@proto@sdk@electron@com@@UEAAPEBDPEBDPEAVParseContext@internal@protobuf@google@@@Z 0000000180016870 f   electron_sdk.pb.obj
 0001:00015bc0       ?_InternalSerialize@JoinMeetingParams@proto@sdk@electron@com@@UEBAPEAEPEAEPEAVEpsCopyOutputStream@io@protobuf@google@@@Z 0000000180016bc0 f   electron_sdk.pb.obj
 0001:00015e30       ?ByteSizeLong@JoinMeetingParams@proto@sdk@electron@com@@UEBA_KXZ 0000000180016e30 f   electron_sdk.pb.obj
 0001:00016120       ?CheckTypeAndMergeFrom@JoinMeetingParams@proto@sdk@electron@com@@UEAAXAEBVMessageLite@protobuf@google@@@Z 0000000180017120 f   electron_sdk.pb.obj
 0001:00016130       ?MergeFrom@JoinMeetingParams@proto@sdk@electron@com@@QEAAXAEBV12345@@Z 0000000180017130 f   electron_sdk.pb.obj
 0001:00016390       ?GetTypeName@JoinMeetingParams@proto@sdk@electron@com@@UEBA?AV?$basic_string@DU?$char_traits@D@std@@V?$allocator@D@2@@std@@XZ 0000000180017390 f   electron_sdk.pb.obj
 0001:000163c0       ?Clear@JoinWithoutLoginParams@proto@sdk@electron@com@@UEAAXXZ 00000001800173c0 f   electron_sdk.pb.obj
 0001:00016540       ?_InternalParse@JoinWithoutLoginParams@proto@sdk@electron@com@@UEAAPEBDPEBDPEAVParseContext@internal@protobuf@google@@@Z 0000000180017540 f   electron_sdk.pb.obj
 0001:000168e0       ?_InternalSerialize@JoinWithoutLoginParams@proto@sdk@electron@com@@UEBAPEAEPEAEPEAVEpsCopyOutputStream@io@protobuf@google@@@Z 00000001800178e0 f   electron_sdk.pb.obj
 0001:00016b90       ?ByteSizeLong@JoinWithoutLoginParams@proto@sdk@electron@com@@UEBA_KXZ 0000000180017b90 f   electron_sdk.pb.obj
 0001:00016f10       ?CheckTypeAndMergeFrom@JoinWithoutLoginParams@proto@sdk@electron@com@@UEAAXAEBVMessageLite@protobuf@google@@@Z 0000000180017f10 f   electron_sdk.pb.obj
 0001:00016f20       ?MergeFrom@JoinWithoutLoginParams@proto@sdk@electron@com@@QEAAXAEBV12345@@Z 0000000180017f20 f   electron_sdk.pb.obj
 0001:000171f0       ?GetTypeName@JoinWithoutLoginParams@proto@sdk@electron@com@@UEBA?AV?$basic_string@DU?$char_traits@D@std@@V?$allocator@D@2@@std@@XZ 00000001800181f0 f   electron_sdk.pb.obj
 0001:00017220       ?Clear@ActionConfirmEnableSmartRecordingParams@proto@sdk@electron@com@@UEAAXXZ 0000000180018220 f   electron_sdk.pb.obj
 0001:00017220       ?Clear@AgreeAICompanionFeatureSwitchParams@proto@sdk@electron@com@@UEAAXXZ 0000000180018220 f   electron_sdk.pb.obj
 0001:00017220       ?Clear@AgreeToEnableAndStartSmartRecordingParams@proto@sdk@electron@com@@UEAAXXZ 0000000180018220 f   electron_sdk.pb.obj
 0001:00017220       ?Clear@AllowParticipantsToRequestCloudRecordingParams@proto@sdk@electron@com@@UEAAXXZ 0000000180018220 f   electron_sdk.pb.obj
 0001:00017220       ?Clear@AlwaysShowIconOnTaskBarParams@proto@sdk@electron@com@@UEAAXXZ 0000000180018220 f   electron_sdk.pb.obj
 0001:00017220       ?Clear@DeclineEnableAndStartSmartRecordingParams@proto@sdk@electron@com@@UEAAXXZ 0000000180018220 f   electron_sdk.pb.obj
 0001:00017220       ?Clear@DeclineEnableParams@proto@sdk@electron@com@@UEAAXXZ 0000000180018220 f   electron_sdk.pb.obj
 0001:00017220       ?Clear@DeclineSendQueryParams@proto@sdk@electron@com@@UEAAXXZ 0000000180018220 f   electron_sdk.pb.obj
 0001:00017220       ?Clear@DenyRequestStartCloudRecordingParams@proto@sdk@electron@com@@UEAAXXZ 0000000180018220 f   electron_sdk.pb.obj
 0001:00017220       ?Clear@DisableAccountSettingTabPageParams@proto@sdk@electron@com@@UEAAXXZ 0000000180018220 f   electron_sdk.pb.obj
 0001:00017220       ?Clear@DisableAdvancedFeatures4GeneralSettingParams@proto@sdk@electron@com@@UEAAXXZ 0000000180018220 f   electron_sdk.pb.obj
 0001:00017220       ?Clear@DisableAutoShowSelectJoinAudioDlgWhenJoinMeetingParams@proto@sdk@electron@com@@UEAAXXZ 0000000180018220 f   electron_sdk.pb.obj
 0001:00017220       ?Clear@DisableFreeMeetingRemainTimeNotifyParams@proto@sdk@electron@com@@UEAAXXZ 0000000180018220 f   electron_sdk.pb.obj
 0001:00017220       ?Clear@DisablePopupMeetingWrongPSWDlgParams@proto@sdk@electron@com@@UEAAXXZ 0000000180018220 f   electron_sdk.pb.obj
 0001:00017220       ?Clear@DisableShowJoinMeetingWndParams@proto@sdk@electron@com@@UEAAXXZ 0000000180018220 f   electron_sdk.pb.obj
 0001:00017220       ?Clear@DisableSplitScreenModeUIElementsParams@proto@sdk@electron@com@@UEAAXXZ 0000000180018220 f   electron_sdk.pb.obj
 0001:00017220       ?Clear@DisableToolbarInviteButtonClickOriginActionParams@proto@sdk@electron@com@@UEAAXXZ 0000000180018220 f   electron_sdk.pb.obj
 0001:00017220       ?Clear@DisableTopMostAttr4SettingDialogParams@proto@sdk@electron@com@@UEAAXXZ 0000000180018220 f   electron_sdk.pb.obj
 0001:00017220       ?Clear@DisableWaitingForHostDialogParams@proto@sdk@electron@com@@UEAAXXZ 0000000180018220 f   electron_sdk.pb.obj
 0001:00017220       ?Clear@Enable49VideoesInGallaryViewParams@proto@sdk@electron@com@@UEAAXXZ 0000000180018220 f   electron_sdk.pb.obj
 0001:00017220       ?Clear@EnableAccelerateGPUWhenShareParams@proto@sdk@electron@com@@UEAAXXZ 0000000180018220 f   electron_sdk.pb.obj
 0001:00017220       ?Clear@EnableAddTimestampWatermarkParams@proto@sdk@electron@com@@UEAAXXZ 0000000180018220 f   electron_sdk.pb.obj
 0001:00017220       ?Clear@EnableAirplayInstructionWindowParams@proto@sdk@electron@com@@UEAAXXZ 0000000180018220 f   electron_sdk.pb.obj
 0001:00017220       ?Clear@EnableAlwaysMuteMicWhenJoinVoipParams@proto@sdk@electron@com@@UEAAXXZ 0000000180018220 f   electron_sdk.pb.obj
 0001:00017220       ?Clear@EnableAlwaysShowMeetingControlsParams@proto@sdk@electron@com@@UEAAXXZ 0000000180018220 f   electron_sdk.pb.obj
 0001:00017220       ?Clear@EnableAlwaysShowNameOnVideoParams@proto@sdk@electron@com@@UEAAXXZ 0000000180018220 f   electron_sdk.pb.obj
 0001:00017220       ?Clear@EnableApproveRemoteControlDlgParams@proto@sdk@electron@com@@UEAAXXZ 0000000180018220 f   electron_sdk.pb.obj
 0001:00017220       ?Clear@EnableAudioButtonOnMeetingUIParams@proto@sdk@electron@com@@UEAAXXZ 0000000180018220 f   electron_sdk.pb.obj
 0001:00017220       ?Clear@EnableAutoAdjustMicParams@proto@sdk@electron@com@@UEAAXXZ 0000000180018220 f   electron_sdk.pb.obj
 0001:00017220       ?Clear@EnableAutoAdjustMicVolumeWhenJoinAudioParams@proto@sdk@electron@com@@UEAAXXZ 0000000180018220 f   electron_sdk.pb.obj
 0001:00017220       ?Clear@EnableAutoAdjustSpeakerVolumeWhenJoinAudioParams@proto@sdk@electron@com@@UEAAXXZ 0000000180018220 f   electron_sdk.pb.obj
 0001:00017220       ?Clear@EnableAutoEndOtherMeetingWhenStartMeetingParams@proto@sdk@electron@com@@UEAAXXZ 0000000180018220 f   electron_sdk.pb.obj
 0001:00017220       ?Clear@EnableAutoFitToWindowWhenViewSharingParams@proto@sdk@electron@com@@UEAAXXZ 0000000180018220 f   electron_sdk.pb.obj
 0001:00017220       ?Clear@EnableAutoFullScreenVideoWhenJoinMeetingParams@proto@sdk@electron@com@@UEAAXXZ 0000000180018220 f   electron_sdk.pb.obj
 0001:00017220       ?Clear@EnableAutoFullScreenVideoWhenViewShareParams@proto@sdk@electron@com@@UEAAXXZ 0000000180018220 f   electron_sdk.pb.obj
 0001:00017220       ?Clear@EnableAutoHideJoinAudioDialogParams@proto@sdk@electron@com@@UEAAXXZ 0000000180018220 f   electron_sdk.pb.obj
 0001:00017220       ?Clear@EnableAutoJoinAudioParams@proto@sdk@electron@com@@UEAAXXZ 0000000180018220 f   electron_sdk.pb.obj
 0001:00017220       ?Clear@EnableAutoTurnOffVideoWhenJoinMeetingParams@proto@sdk@electron@com@@UEAAXXZ 0000000180018220 f   electron_sdk.pb.obj
 0001:00017220       ?Clear@EnableClaimHostFeatureParams@proto@sdk@electron@com@@UEAAXXZ 0000000180018220 f   electron_sdk.pb.obj
 0001:00017220       ?Clear@EnableDeclineRemoteControlResponseDlgParams@proto@sdk@electron@com@@UEAAXXZ 0000000180018220 f   electron_sdk.pb.obj
 0001:00017220       ?Clear@EnableDisplayReminderWindowWhenExitParams@proto@sdk@electron@com@@UEAAXXZ 0000000180018220 f   electron_sdk.pb.obj
 0001:00017220       ?Clear@EnableDualScreenModeParams@proto@sdk@electron@com@@UEAAXXZ 0000000180018220 f   electron_sdk.pb.obj
 0001:00017220       ?Clear@EnableEnterAndExitFullScreenButtonOnMeetingUIParams@proto@sdk@electron@com@@UEAAXXZ 0000000180018220 f   electron_sdk.pb.obj
 0001:00017220       ?Clear@EnableFaceBeautyEffectParams@proto@sdk@electron@com@@UEAAXXZ 0000000180018220 f   electron_sdk.pb.obj
 0001:00017220       ?Clear@EnableForceAutoStartMyVideoWhenJoinMeetingParams@proto@sdk@electron@com@@UEAAXXZ 0000000180018220 f   electron_sdk.pb.obj
 0001:00017220       ?Clear@EnableForceAutoStopMyVideoWhenJoinMeetingParams@proto@sdk@electron@com@@UEAAXXZ 0000000180018220 f   electron_sdk.pb.obj
 0001:00017220       ?Clear@EnableGrabShareWithoutReminderParams@proto@sdk@electron@com@@UEAAXXZ 0000000180018220 f   electron_sdk.pb.obj
 0001:00017220       ?Clear@EnableHDVideoParams@proto@sdk@electron@com@@UEAAXXZ 0000000180018220 f   electron_sdk.pb.obj
 0001:00017220       ?Clear@EnableHIdeFullPhoneNumber4PureCallinUserParams@proto@sdk@electron@com@@UEAAXXZ 0000000180018220 f   electron_sdk.pb.obj
 0001:00017220       ?Clear@EnableHideNoVideoUsersOnWallViewParams@proto@sdk@electron@com@@UEAAXXZ 0000000180018220 f   electron_sdk.pb.obj
 0001:00017220       ?Clear@EnableHoldSpaceKeyToSpeakParams@proto@sdk@electron@com@@UEAAXXZ 0000000180018220 f   electron_sdk.pb.obj
 0001:00017220       ?Clear@EnableInputMeetingPasswordDlgParams@proto@sdk@electron@com@@UEAAXXZ 0000000180018220 f   electron_sdk.pb.obj
 0001:00017220       ?Clear@EnableInputMeetingScreenNameDlgParams@proto@sdk@electron@com@@UEAAXXZ 0000000180018220 f   electron_sdk.pb.obj
 0001:00017220       ?Clear@EnableInviteButtonOnMeetingUIParams@proto@sdk@electron@com@@UEAAXXZ 0000000180018220 f   electron_sdk.pb.obj
 0001:00017220       ?Clear@EnableInviteLinkOnMeetingUIParams@proto@sdk@electron@com@@UEAAXXZ 0000000180018220 f   electron_sdk.pb.obj
 0001:00017220       ?Clear@EnableLButtonDBClick4SwitchFullScreenModeParams@proto@sdk@electron@com@@UEAAXXZ 0000000180018220 f   electron_sdk.pb.obj
 0001:00017220       ?Clear@EnableLeaveMeetingOptionForHostParams@proto@sdk@electron@com@@UEAAXXZ 0000000180018220 f   electron_sdk.pb.obj
 0001:00017220       ?Clear@EnableLengthLimitationOfMeetingNumberParams@proto@sdk@electron@com@@UEAAXXZ 0000000180018220 f   electron_sdk.pb.obj
 0001:00017220       ?Clear@EnableLiveStreamReminderParams@proto@sdk@electron@com@@UEAAXXZ 0000000180018220 f   electron_sdk.pb.obj
 0001:00017220       ?Clear@EnableLocalRecordingConverProgressBarDialogParams@proto@sdk@electron@com@@UEAAXXZ 0000000180018220 f   electron_sdk.pb.obj
 0001:00017220       ?Clear@EnableMicOriginalInputParams@proto@sdk@electron@com@@UEAAXXZ 0000000180018220 f   electron_sdk.pb.obj
 0001:00017220       ?Clear@EnableMultiAudioStreamRecordParams@proto@sdk@electron@com@@UEAAXXZ 0000000180018220 f   electron_sdk.pb.obj
 0001:00017220       ?Clear@EnableOptimizeFor3rdPartyVideoEditorParams@proto@sdk@electron@com@@UEAAXXZ 0000000180018220 f   electron_sdk.pb.obj
 0001:00017220       ?Clear@EnableParticipantsCreateWithoutHostParams@proto@sdk@electron@com@@UEAAXXZ 0000000180018220 f   electron_sdk.pb.obj
 0001:00017220       ?Clear@EnablePlaceVideoNextToShareInRecordParams@proto@sdk@electron@com@@UEAAXXZ 0000000180018220 f   electron_sdk.pb.obj
 0001:00017220       ?Clear@EnablePlayChimeWhenEnterOrExitParams@proto@sdk@electron@com@@UEAAXXZ 0000000180018220 f   electron_sdk.pb.obj
 0001:00017220       ?Clear@EnablePlayMeetingAudioParams@proto@sdk@electron@com@@UEAAXXZ 0000000180018220 f   electron_sdk.pb.obj
 0001:00017220       ?Clear@EnableRemoteControlAllApplicationsParams@proto@sdk@electron@com@@UEAAXXZ 0000000180018220 f   electron_sdk.pb.obj
 0001:00017220       ?Clear@EnableSelectRecordFileLocationAfterMeetingParams@proto@sdk@electron@com@@UEAAXXZ 0000000180018220 f   electron_sdk.pb.obj
 0001:00017220       ?Clear@EnableShareIOSDeviceParams@proto@sdk@electron@com@@UEAAXXZ 0000000180018220 f   electron_sdk.pb.obj
 0001:00017220       ?Clear@EnableShareWhiteBoardParams@proto@sdk@electron@com@@UEAAXXZ 0000000180018220 f   electron_sdk.pb.obj
 0001:00017220       ?Clear@EnableShowMyMeetingElapseTimeParams@proto@sdk@electron@com@@UEAAXXZ 0000000180018220 f   electron_sdk.pb.obj
 0001:00017220       ?Clear@EnableShowShareSwitchMultiToSingleConfirmDlgParams@proto@sdk@electron@com@@UEAAXXZ 0000000180018220 f   electron_sdk.pb.obj
 0001:00017220       ?Clear@EnableShowVideoThumbnailWhenShareParams@proto@sdk@electron@com@@UEAAXXZ 0000000180018220 f   electron_sdk.pb.obj
 0001:00017220       ?Clear@EnableSplitScreenModeParams@proto@sdk@electron@com@@UEAAXXZ 0000000180018220 f   electron_sdk.pb.obj
 0001:00017220       ?Clear@EnableSpotlightSelfParams@proto@sdk@electron@com@@UEAAXXZ 0000000180018220 f   electron_sdk.pb.obj
 0001:00017220       ?Clear@EnableStereoAudioParams@proto@sdk@electron@com@@UEAAXXZ 0000000180018220 f   electron_sdk.pb.obj
 0001:00017220       ?Clear@EnableSuppressAudioNotifyParams@proto@sdk@electron@com@@UEAAXXZ 0000000180018220 f   electron_sdk.pb.obj
 0001:00017220       ?Clear@EnableToolTipsShowParams@proto@sdk@electron@com@@UEAAXXZ 0000000180018220 f   electron_sdk.pb.obj
 0001:00017220       ?Clear@EnableVideoButtonOnMeetingUIParams@proto@sdk@electron@com@@UEAAXXZ 0000000180018220 f   electron_sdk.pb.obj
 0001:00017220       ?Clear@EnableVideoMirrorEffectParams@proto@sdk@electron@com@@UEAAXXZ 0000000180018220 f   electron_sdk.pb.obj
 0001:00017220       ?Clear@EnableVideoPreviewDialogParams@proto@sdk@electron@com@@UEAAXXZ 0000000180018220 f   electron_sdk.pb.obj
 0001:00017220       ?Clear@EnableWaitingRoomOnEntryParams@proto@sdk@electron@com@@UEAAXXZ 0000000180018220 f   electron_sdk.pb.obj
 0001:00017220       ?Clear@EnableZoomAuthRealNameMeetingUIShownParams@proto@sdk@electron@com@@UEAAXXZ 0000000180018220 f   electron_sdk.pb.obj
 0001:00017220       ?Clear@EnableZoomDocsParams@proto@sdk@electron@com@@UEAAXXZ 0000000180018220 f   electron_sdk.pb.obj
 0001:00017220       ?Clear@ForceDisableMultiShareParams@proto@sdk@electron@com@@UEAAXXZ 0000000180018220 f   electron_sdk.pb.obj
 0001:00017220       ?Clear@HideAutoCopyInviteLinkCheckBoxParams@proto@sdk@electron@com@@UEAAXXZ 0000000180018220 f   electron_sdk.pb.obj
 0001:00017220       ?Clear@HideChatItemOnMeetingUIParams@proto@sdk@electron@com@@UEAAXXZ 0000000180018220 f   electron_sdk.pb.obj
 0001:00017220       ?Clear@HideCopyInvitationOnInviteWindowParams@proto@sdk@electron@com@@UEAAXXZ 0000000180018220 f   electron_sdk.pb.obj
 0001:00017220       ?Clear@HideCopyUrlOnInviteWindowParams@proto@sdk@electron@com@@UEAAXXZ 0000000180018220 f   electron_sdk.pb.obj
 0001:00017220       ?Clear@HideKeypadButtonOnMeetingWindowParams@proto@sdk@electron@com@@UEAAXXZ 0000000180018220 f   electron_sdk.pb.obj
 0001:00017220       ?Clear@HideOrShowNoVideoUserOnVideoWallParams@proto@sdk@electron@com@@UEAAXXZ 0000000180018220 f   electron_sdk.pb.obj
 0001:00017220       ?Clear@HidePollOnMeetingUIParams@proto@sdk@electron@com@@UEAAXXZ 0000000180018220 f   electron_sdk.pb.obj
 0001:00017220       ?Clear@HideQAOnMeetingUIParams@proto@sdk@electron@com@@UEAAXXZ 0000000180018220 f   electron_sdk.pb.obj
 0001:00017220       ?Clear@HideRecordItemOnMeetingUIParams@proto@sdk@electron@com@@UEAAXXZ 0000000180018220 f   electron_sdk.pb.obj
 0001:00017220       ?Clear@HideRemoteControlOnMeetingUIParams@proto@sdk@electron@com@@UEAAXXZ 0000000180018220 f   electron_sdk.pb.obj
 0001:00017220       ?Clear@HideSwitchCameraButtonParams@proto@sdk@electron@com@@UEAAXXZ 0000000180018220 f   electron_sdk.pb.obj
 0001:00017220       ?Clear@HideUpgradeFreeMeetingButtonParams@proto@sdk@electron@com@@UEAAXXZ 0000000180018220 f   electron_sdk.pb.obj
 0001:00017220       ?Clear@JoinWithArchiveParams@proto@sdk@electron@com@@UEAAXXZ 0000000180018220 f   electron_sdk.pb.obj
 0001:00017220       ?Clear@LeaveMeetingParams@proto@sdk@electron@com@@UEAAXXZ 0000000180018220 f   electron_sdk.pb.obj
 0001:00017220       ?Clear@RedirectClickAudioBTNEventParams@proto@sdk@electron@com@@UEAAXXZ 0000000180018220 f   electron_sdk.pb.obj
 0001:00017220       ?Clear@RedirectClickAudioMenuBTNEventParams@proto@sdk@electron@com@@UEAAXXZ 0000000180018220 f   electron_sdk.pb.obj
 0001:00017220       ?Clear@RedirectClickCCBTNEventParams@proto@sdk@electron@com@@UEAAXXZ 0000000180018220 f   electron_sdk.pb.obj
 0001:00017220       ?Clear@RedirectClickCustomLiveStreamMenuEventParams@proto@sdk@electron@com@@UEAAXXZ 0000000180018220 f   electron_sdk.pb.obj
 0001:00017220       ?Clear@RedirectClickEndMeetingBTNEventParams@proto@sdk@electron@com@@UEAAXXZ 0000000180018220 f   electron_sdk.pb.obj
 0001:00017220       ?Clear@RedirectClickParticipantListBTNEventParams@proto@sdk@electron@com@@UEAAXXZ 0000000180018220 f   electron_sdk.pb.obj
 0001:00017220       ?Clear@RedirectClickShareBTNEventParams@proto@sdk@electron@com@@UEAAXXZ 0000000180018220 f   electron_sdk.pb.obj
 0001:00017220       ?Clear@RedirectConfirmStartArchiveDialogParams@proto@sdk@electron@com@@UEAAXXZ 0000000180018220 f   electron_sdk.pb.obj
 0001:00017220       ?Clear@RedirectEndOtherMeetingParams@proto@sdk@electron@com@@UEAAXXZ 0000000180018220 f   electron_sdk.pb.obj
 0001:00017220       ?Clear@RedirectFreeMeetingEndingReminderDlgParams@proto@sdk@electron@com@@UEAAXXZ 0000000180018220 f   electron_sdk.pb.obj
 0001:00017220       ?Clear@RedirectMeetingInputUserInfoDialogParams@proto@sdk@electron@com@@UEAAXXZ 0000000180018220 f   electron_sdk.pb.obj
 0001:00017220       ?Clear@RedirectWebinarNeedRegisterParams@proto@sdk@electron@com@@UEAAXXZ 0000000180018220 f   electron_sdk.pb.obj
 0001:00017220       ?Clear@SetBottomFloatToolBarWndVisibilityParams@proto@sdk@electron@com@@UEAAXXZ 0000000180018220 f   electron_sdk.pb.obj
 0001:00017220       ?Clear@SetFloatVideoWndVisibilityParams@proto@sdk@electron@com@@UEAAXXZ 0000000180018220 f   electron_sdk.pb.obj
 0001:00017220       ?Clear@SetSharingToolBarVisibilityParams@proto@sdk@electron@com@@UEAAXXZ 0000000180018220 f   electron_sdk.pb.obj
 0001:00017220       ?Clear@SetShowAudioUseComputerSoundChkboxParams@proto@sdk@electron@com@@UEAAXXZ 0000000180018220 f   electron_sdk.pb.obj
 0001:00017220       ?Clear@SetShowCallInTabParams@proto@sdk@electron@com@@UEAAXXZ 0000000180018220 f   electron_sdk.pb.obj
 0001:00017220       ?Clear@SetShowCallMeTabParams@proto@sdk@electron@com@@UEAAXXZ 0000000180018220 f   electron_sdk.pb.obj
 0001:00017220       ?Clear@SetShowVideoOptimizeChkboxParams@proto@sdk@electron@com@@UEAAXXZ 0000000180018220 f   electron_sdk.pb.obj
 0001:00017220       ?Clear@SetUsingGreenScreenParams@proto@sdk@electron@com@@UEAAXXZ 0000000180018220 f   electron_sdk.pb.obj
 0001:00017220       ?Clear@ShowBottomFloatToolbarWndParams@proto@sdk@electron@com@@UEAAXXZ 0000000180018220 f   electron_sdk.pb.obj
 0001:00017220       ?Clear@ShowParticipantsListWndParams@proto@sdk@electron@com@@UEAAXXZ 0000000180018220 f   electron_sdk.pb.obj
 0001:00017220       ?Clear@ShowPreOrNextPageVideoParams@proto@sdk@electron@com@@UEAAXXZ 0000000180018220 f   electron_sdk.pb.obj
 0001:00017220       ?Clear@ShowSharingFrameWindowsParams@proto@sdk@electron@com@@UEAAXXZ 0000000180018220 f   electron_sdk.pb.obj
 0001:00017220       ?Clear@ShowSharingToolbarParams@proto@sdk@electron@com@@UEAAXXZ 0000000180018220 f   electron_sdk.pb.obj
 0001:00017220       ?Clear@SwapToShowShareViewOrVideoParams@proto@sdk@electron@com@@UEAAXXZ 0000000180018220 f   electron_sdk.pb.obj
 0001:00017220       ?Clear@SwitchSplitScreenModeParams@proto@sdk@electron@com@@UEAAXXZ 0000000180018220 f   electron_sdk.pb.obj
 0001:00017220       ?Clear@TurnOffAeroModeInSharingParams@proto@sdk@electron@com@@UEAAXXZ 0000000180018220 f   electron_sdk.pb.obj
 0001:00017220       ?Clear@TurnOffAllAICompanionsParams@proto@sdk@electron@com@@UEAAXXZ 0000000180018220 f   electron_sdk.pb.obj
 0001:00017240       ?_InternalParse@ActionConfirmEnableSmartRecordingParams@proto@sdk@electron@com@@UEAAPEBDPEBDPEAVParseContext@internal@protobuf@google@@@Z 0000000180018240 f   electron_sdk.pb.obj
 0001:00017240       ?_InternalParse@AgreeAICompanionFeatureSwitchParams@proto@sdk@electron@com@@UEAAPEBDPEBDPEAVParseContext@internal@protobuf@google@@@Z 0000000180018240 f   electron_sdk.pb.obj
 0001:00017240       ?_InternalParse@AgreeToEnableAndStartSmartRecordingParams@proto@sdk@electron@com@@UEAAPEBDPEBDPEAVParseContext@internal@protobuf@google@@@Z 0000000180018240 f   electron_sdk.pb.obj
 0001:00017240       ?_InternalParse@AllowParticipantsToRequestCloudRecordingParams@proto@sdk@electron@com@@UEAAPEBDPEBDPEAVParseContext@internal@protobuf@google@@@Z 0000000180018240 f   electron_sdk.pb.obj
 0001:00017240       ?_InternalParse@AlwaysShowIconOnTaskBarParams@proto@sdk@electron@com@@UEAAPEBDPEBDPEAVParseContext@internal@protobuf@google@@@Z 0000000180018240 f   electron_sdk.pb.obj
 0001:00017240       ?_InternalParse@DeclineEnableAndStartSmartRecordingParams@proto@sdk@electron@com@@UEAAPEBDPEBDPEAVParseContext@internal@protobuf@google@@@Z 0000000180018240 f   electron_sdk.pb.obj
 0001:00017240       ?_InternalParse@DeclineEnableParams@proto@sdk@electron@com@@UEAAPEBDPEBDPEAVParseContext@internal@protobuf@google@@@Z 0000000180018240 f   electron_sdk.pb.obj
 0001:00017240       ?_InternalParse@DeclineSendQueryParams@proto@sdk@electron@com@@UEAAPEBDPEBDPEAVParseContext@internal@protobuf@google@@@Z 0000000180018240 f   electron_sdk.pb.obj
 0001:00017240       ?_InternalParse@DenyRequestStartCloudRecordingParams@proto@sdk@electron@com@@UEAAPEBDPEBDPEAVParseContext@internal@protobuf@google@@@Z 0000000180018240 f   electron_sdk.pb.obj
 0001:00017240       ?_InternalParse@DisableAccountSettingTabPageParams@proto@sdk@electron@com@@UEAAPEBDPEBDPEAVParseContext@internal@protobuf@google@@@Z 0000000180018240 f   electron_sdk.pb.obj
 0001:00017240       ?_InternalParse@DisableAdvancedFeatures4GeneralSettingParams@proto@sdk@electron@com@@UEAAPEBDPEBDPEAVParseContext@internal@protobuf@google@@@Z 0000000180018240 f   electron_sdk.pb.obj
 0001:00017240       ?_InternalParse@DisableAutoShowSelectJoinAudioDlgWhenJoinMeetingParams@proto@sdk@electron@com@@UEAAPEBDPEBDPEAVParseContext@internal@protobuf@google@@@Z 0000000180018240 f   electron_sdk.pb.obj
 0001:00017240       ?_InternalParse@DisableFreeMeetingRemainTimeNotifyParams@proto@sdk@electron@com@@UEAAPEBDPEBDPEAVParseContext@internal@protobuf@google@@@Z 0000000180018240 f   electron_sdk.pb.obj
 0001:00017240       ?_InternalParse@DisablePopupMeetingWrongPSWDlgParams@proto@sdk@electron@com@@UEAAPEBDPEBDPEAVParseContext@internal@protobuf@google@@@Z 0000000180018240 f   electron_sdk.pb.obj
 0001:00017240       ?_InternalParse@DisableShowJoinMeetingWndParams@proto@sdk@electron@com@@UEAAPEBDPEBDPEAVParseContext@internal@protobuf@google@@@Z 0000000180018240 f   electron_sdk.pb.obj
 0001:00017240       ?_InternalParse@DisableSplitScreenModeUIElementsParams@proto@sdk@electron@com@@UEAAPEBDPEBDPEAVParseContext@internal@protobuf@google@@@Z 0000000180018240 f   electron_sdk.pb.obj
 0001:00017240       ?_InternalParse@DisableToolbarInviteButtonClickOriginActionParams@proto@sdk@electron@com@@UEAAPEBDPEBDPEAVParseContext@internal@protobuf@google@@@Z 0000000180018240 f   electron_sdk.pb.obj
 0001:00017240       ?_InternalParse@DisableTopMostAttr4SettingDialogParams@proto@sdk@electron@com@@UEAAPEBDPEBDPEAVParseContext@internal@protobuf@google@@@Z 0000000180018240 f   electron_sdk.pb.obj
 0001:00017240       ?_InternalParse@DisableWaitingForHostDialogParams@proto@sdk@electron@com@@UEAAPEBDPEBDPEAVParseContext@internal@protobuf@google@@@Z 0000000180018240 f   electron_sdk.pb.obj
 0001:00017240       ?_InternalParse@Enable49VideoesInGallaryViewParams@proto@sdk@electron@com@@UEAAPEBDPEBDPEAVParseContext@internal@protobuf@google@@@Z 0000000180018240 f   electron_sdk.pb.obj
 0001:00017240       ?_InternalParse@EnableAccelerateGPUWhenShareParams@proto@sdk@electron@com@@UEAAPEBDPEBDPEAVParseContext@internal@protobuf@google@@@Z 0000000180018240 f   electron_sdk.pb.obj
 0001:00017240       ?_InternalParse@EnableAddTimestampWatermarkParams@proto@sdk@electron@com@@UEAAPEBDPEBDPEAVParseContext@internal@protobuf@google@@@Z 0000000180018240 f   electron_sdk.pb.obj
 0001:00017240       ?_InternalParse@EnableAirplayInstructionWindowParams@proto@sdk@electron@com@@UEAAPEBDPEBDPEAVParseContext@internal@protobuf@google@@@Z 0000000180018240 f   electron_sdk.pb.obj
 0001:00017240       ?_InternalParse@EnableAlwaysMuteMicWhenJoinVoipParams@proto@sdk@electron@com@@UEAAPEBDPEBDPEAVParseContext@internal@protobuf@google@@@Z 0000000180018240 f   electron_sdk.pb.obj
 0001:00017240       ?_InternalParse@EnableAlwaysShowMeetingControlsParams@proto@sdk@electron@com@@UEAAPEBDPEBDPEAVParseContext@internal@protobuf@google@@@Z 0000000180018240 f   electron_sdk.pb.obj
 0001:00017240       ?_InternalParse@EnableAlwaysShowNameOnVideoParams@proto@sdk@electron@com@@UEAAPEBDPEBDPEAVParseContext@internal@protobuf@google@@@Z 0000000180018240 f   electron_sdk.pb.obj
 0001:00017240       ?_InternalParse@EnableApproveRemoteControlDlgParams@proto@sdk@electron@com@@UEAAPEBDPEBDPEAVParseContext@internal@protobuf@google@@@Z 0000000180018240 f   electron_sdk.pb.obj
 0001:00017240       ?_InternalParse@EnableAudioButtonOnMeetingUIParams@proto@sdk@electron@com@@UEAAPEBDPEBDPEAVParseContext@internal@protobuf@google@@@Z 0000000180018240 f   electron_sdk.pb.obj
 0001:00017240       ?_InternalParse@EnableAutoAdjustMicParams@proto@sdk@electron@com@@UEAAPEBDPEBDPEAVParseContext@internal@protobuf@google@@@Z 0000000180018240 f   electron_sdk.pb.obj
 0001:00017240       ?_InternalParse@EnableAutoAdjustMicVolumeWhenJoinAudioParams@proto@sdk@electron@com@@UEAAPEBDPEBDPEAVParseContext@internal@protobuf@google@@@Z 0000000180018240 f   electron_sdk.pb.obj
 0001:00017240       ?_InternalParse@EnableAutoAdjustSpeakerVolumeWhenJoinAudioParams@proto@sdk@electron@com@@UEAAPEBDPEBDPEAVParseContext@internal@protobuf@google@@@Z 0000000180018240 f   electron_sdk.pb.obj
 0001:00017240       ?_InternalParse@EnableAutoEndOtherMeetingWhenStartMeetingParams@proto@sdk@electron@com@@UEAAPEBDPEBDPEAVParseContext@internal@protobuf@google@@@Z 0000000180018240 f   electron_sdk.pb.obj
 0001:00017240       ?_InternalParse@EnableAutoFitToWindowWhenViewSharingParams@proto@sdk@electron@com@@UEAAPEBDPEBDPEAVParseContext@internal@protobuf@google@@@Z 0000000180018240 f   electron_sdk.pb.obj
 0001:00017240       ?_InternalParse@EnableAutoFullScreenVideoWhenJoinMeetingParams@proto@sdk@electron@com@@UEAAPEBDPEBDPEAVParseContext@internal@protobuf@google@@@Z 0000000180018240 f   electron_sdk.pb.obj
 0001:00017240       ?_InternalParse@EnableAutoFullScreenVideoWhenViewShareParams@proto@sdk@electron@com@@UEAAPEBDPEBDPEAVParseContext@internal@protobuf@google@@@Z 0000000180018240 f   electron_sdk.pb.obj
 0001:00017240       ?_InternalParse@EnableAutoHideJoinAudioDialogParams@proto@sdk@electron@com@@UEAAPEBDPEBDPEAVParseContext@internal@protobuf@google@@@Z 0000000180018240 f   electron_sdk.pb.obj
 0001:00017240       ?_InternalParse@EnableAutoJoinAudioParams@proto@sdk@electron@com@@UEAAPEBDPEBDPEAVParseContext@internal@protobuf@google@@@Z 0000000180018240 f   electron_sdk.pb.obj
 0001:00017240       ?_InternalParse@EnableAutoTurnOffVideoWhenJoinMeetingParams@proto@sdk@electron@com@@UEAAPEBDPEBDPEAVParseContext@internal@protobuf@google@@@Z 0000000180018240 f   electron_sdk.pb.obj
 0001:00017240       ?_InternalParse@EnableClaimHostFeatureParams@proto@sdk@electron@com@@UEAAPEBDPEBDPEAVParseContext@internal@protobuf@google@@@Z 0000000180018240 f   electron_sdk.pb.obj
 0001:00017240       ?_InternalParse@EnableDeclineRemoteControlResponseDlgParams@proto@sdk@electron@com@@UEAAPEBDPEBDPEAVParseContext@internal@protobuf@google@@@Z 0000000180018240 f   electron_sdk.pb.obj
 0001:00017240       ?_InternalParse@EnableDisplayReminderWindowWhenExitParams@proto@sdk@electron@com@@UEAAPEBDPEBDPEAVParseContext@internal@protobuf@google@@@Z 0000000180018240 f   electron_sdk.pb.obj
 0001:00017240       ?_InternalParse@EnableDualScreenModeParams@proto@sdk@electron@com@@UEAAPEBDPEBDPEAVParseContext@internal@protobuf@google@@@Z 0000000180018240 f   electron_sdk.pb.obj
 0001:00017240       ?_InternalParse@EnableEnterAndExitFullScreenButtonOnMeetingUIParams@proto@sdk@electron@com@@UEAAPEBDPEBDPEAVParseContext@internal@protobuf@google@@@Z 0000000180018240 f   electron_sdk.pb.obj
 0001:00017240       ?_InternalParse@EnableFaceBeautyEffectParams@proto@sdk@electron@com@@UEAAPEBDPEBDPEAVParseContext@internal@protobuf@google@@@Z 0000000180018240 f   electron_sdk.pb.obj
 0001:00017240       ?_InternalParse@EnableForceAutoStartMyVideoWhenJoinMeetingParams@proto@sdk@electron@com@@UEAAPEBDPEBDPEAVParseContext@internal@protobuf@google@@@Z 0000000180018240 f   electron_sdk.pb.obj
 0001:00017240       ?_InternalParse@EnableForceAutoStopMyVideoWhenJoinMeetingParams@proto@sdk@electron@com@@UEAAPEBDPEBDPEAVParseContext@internal@protobuf@google@@@Z 0000000180018240 f   electron_sdk.pb.obj
 0001:00017240       ?_InternalParse@EnableGrabShareWithoutReminderParams@proto@sdk@electron@com@@UEAAPEBDPEBDPEAVParseContext@internal@protobuf@google@@@Z 0000000180018240 f   electron_sdk.pb.obj
 0001:00017240       ?_InternalParse@EnableHDVideoParams@proto@sdk@electron@com@@UEAAPEBDPEBDPEAVParseContext@internal@protobuf@google@@@Z 0000000180018240 f   electron_sdk.pb.obj
 0001:00017240       ?_InternalParse@EnableHIdeFullPhoneNumber4PureCallinUserParams@proto@sdk@electron@com@@UEAAPEBDPEBDPEAVParseContext@internal@protobuf@google@@@Z 0000000180018240 f   electron_sdk.pb.obj
 0001:00017240       ?_InternalParse@EnableHideNoVideoUsersOnWallViewParams@proto@sdk@electron@com@@UEAAPEBDPEBDPEAVParseContext@internal@protobuf@google@@@Z 0000000180018240 f   electron_sdk.pb.obj
 0001:00017240       ?_InternalParse@EnableHoldSpaceKeyToSpeakParams@proto@sdk@electron@com@@UEAAPEBDPEBDPEAVParseContext@internal@protobuf@google@@@Z 0000000180018240 f   electron_sdk.pb.obj
 0001:00017240       ?_InternalParse@EnableInputMeetingPasswordDlgParams@proto@sdk@electron@com@@UEAAPEBDPEBDPEAVParseContext@internal@protobuf@google@@@Z 0000000180018240 f   electron_sdk.pb.obj
 0001:00017240       ?_InternalParse@EnableInputMeetingScreenNameDlgParams@proto@sdk@electron@com@@UEAAPEBDPEBDPEAVParseContext@internal@protobuf@google@@@Z 0000000180018240 f   electron_sdk.pb.obj
 0001:00017240       ?_InternalParse@EnableInviteButtonOnMeetingUIParams@proto@sdk@electron@com@@UEAAPEBDPEBDPEAVParseContext@internal@protobuf@google@@@Z 0000000180018240 f   electron_sdk.pb.obj
 0001:00017240       ?_InternalParse@EnableInviteLinkOnMeetingUIParams@proto@sdk@electron@com@@UEAAPEBDPEBDPEAVParseContext@internal@protobuf@google@@@Z 0000000180018240 f   electron_sdk.pb.obj
 0001:00017240       ?_InternalParse@EnableLButtonDBClick4SwitchFullScreenModeParams@proto@sdk@electron@com@@UEAAPEBDPEBDPEAVParseContext@internal@protobuf@google@@@Z 0000000180018240 f   electron_sdk.pb.obj
 0001:00017240       ?_InternalParse@EnableLeaveMeetingOptionForHostParams@proto@sdk@electron@com@@UEAAPEBDPEBDPEAVParseContext@internal@protobuf@google@@@Z 0000000180018240 f   electron_sdk.pb.obj
 0001:00017240       ?_InternalParse@EnableLengthLimitationOfMeetingNumberParams@proto@sdk@electron@com@@UEAAPEBDPEBDPEAVParseContext@internal@protobuf@google@@@Z 0000000180018240 f   electron_sdk.pb.obj
 0001:00017240       ?_InternalParse@EnableLiveStreamReminderParams@proto@sdk@electron@com@@UEAAPEBDPEBDPEAVParseContext@internal@protobuf@google@@@Z 0000000180018240 f   electron_sdk.pb.obj
 0001:00017240       ?_InternalParse@EnableLocalRecordingConverProgressBarDialogParams@proto@sdk@electron@com@@UEAAPEBDPEBDPEAVParseContext@internal@protobuf@google@@@Z 0000000180018240 f   electron_sdk.pb.obj
 0001:00017240       ?_InternalParse@EnableMicOriginalInputParams@proto@sdk@electron@com@@UEAAPEBDPEBDPEAVParseContext@internal@protobuf@google@@@Z 0000000180018240 f   electron_sdk.pb.obj
 0001:00017240       ?_InternalParse@EnableMultiAudioStreamRecordParams@proto@sdk@electron@com@@UEAAPEBDPEBDPEAVParseContext@internal@protobuf@google@@@Z 0000000180018240 f   electron_sdk.pb.obj
 0001:00017240       ?_InternalParse@EnableOptimizeFor3rdPartyVideoEditorParams@proto@sdk@electron@com@@UEAAPEBDPEBDPEAVParseContext@internal@protobuf@google@@@Z 0000000180018240 f   electron_sdk.pb.obj
 0001:00017240       ?_InternalParse@EnableParticipantsCreateWithoutHostParams@proto@sdk@electron@com@@UEAAPEBDPEBDPEAVParseContext@internal@protobuf@google@@@Z 0000000180018240 f   electron_sdk.pb.obj
 0001:00017240       ?_InternalParse@EnablePlaceVideoNextToShareInRecordParams@proto@sdk@electron@com@@UEAAPEBDPEBDPEAVParseContext@internal@protobuf@google@@@Z 0000000180018240 f   electron_sdk.pb.obj
 0001:00017240       ?_InternalParse@EnablePlayChimeWhenEnterOrExitParams@proto@sdk@electron@com@@UEAAPEBDPEBDPEAVParseContext@internal@protobuf@google@@@Z 0000000180018240 f   electron_sdk.pb.obj
 0001:00017240       ?_InternalParse@EnablePlayMeetingAudioParams@proto@sdk@electron@com@@UEAAPEBDPEBDPEAVParseContext@internal@protobuf@google@@@Z 0000000180018240 f   electron_sdk.pb.obj
 0001:00017240       ?_InternalParse@EnableRemoteControlAllApplicationsParams@proto@sdk@electron@com@@UEAAPEBDPEBDPEAVParseContext@internal@protobuf@google@@@Z 0000000180018240 f   electron_sdk.pb.obj
 0001:00017240       ?_InternalParse@EnableSelectRecordFileLocationAfterMeetingParams@proto@sdk@electron@com@@UEAAPEBDPEBDPEAVParseContext@internal@protobuf@google@@@Z 0000000180018240 f   electron_sdk.pb.obj
 0001:00017240       ?_InternalParse@EnableShareIOSDeviceParams@proto@sdk@electron@com@@UEAAPEBDPEBDPEAVParseContext@internal@protobuf@google@@@Z 0000000180018240 f   electron_sdk.pb.obj
 0001:00017240       ?_InternalParse@EnableShareWhiteBoardParams@proto@sdk@electron@com@@UEAAPEBDPEBDPEAVParseContext@internal@protobuf@google@@@Z 0000000180018240 f   electron_sdk.pb.obj
 0001:00017240       ?_InternalParse@EnableShowMyMeetingElapseTimeParams@proto@sdk@electron@com@@UEAAPEBDPEBDPEAVParseContext@internal@protobuf@google@@@Z 0000000180018240 f   electron_sdk.pb.obj
 0001:00017240       ?_InternalParse@EnableShowShareSwitchMultiToSingleConfirmDlgParams@proto@sdk@electron@com@@UEAAPEBDPEBDPEAVParseContext@internal@protobuf@google@@@Z 0000000180018240 f   electron_sdk.pb.obj
 0001:00017240       ?_InternalParse@EnableShowVideoThumbnailWhenShareParams@proto@sdk@electron@com@@UEAAPEBDPEBDPEAVParseContext@internal@protobuf@google@@@Z 0000000180018240 f   electron_sdk.pb.obj
 0001:00017240       ?_InternalParse@EnableSplitScreenModeParams@proto@sdk@electron@com@@UEAAPEBDPEBDPEAVParseContext@internal@protobuf@google@@@Z 0000000180018240 f   electron_sdk.pb.obj
 0001:00017240       ?_InternalParse@EnableSpotlightSelfParams@proto@sdk@electron@com@@UEAAPEBDPEBDPEAVParseContext@internal@protobuf@google@@@Z 0000000180018240 f   electron_sdk.pb.obj
 0001:00017240       ?_InternalParse@EnableStereoAudioParams@proto@sdk@electron@com@@UEAAPEBDPEBDPEAVParseContext@internal@protobuf@google@@@Z 0000000180018240 f   electron_sdk.pb.obj
 0001:00017240       ?_InternalParse@EnableSuppressAudioNotifyParams@proto@sdk@electron@com@@UEAAPEBDPEBDPEAVParseContext@internal@protobuf@google@@@Z 0000000180018240 f   electron_sdk.pb.obj
 0001:00017240       ?_InternalParse@EnableToolTipsShowParams@proto@sdk@electron@com@@UEAAPEBDPEBDPEAVParseContext@internal@protobuf@google@@@Z 0000000180018240 f   electron_sdk.pb.obj
 0001:00017240       ?_InternalParse@EnableVideoButtonOnMeetingUIParams@proto@sdk@electron@com@@UEAAPEBDPEBDPEAVParseContext@internal@protobuf@google@@@Z 0000000180018240 f   electron_sdk.pb.obj
 0001:00017240       ?_InternalParse@EnableVideoMirrorEffectParams@proto@sdk@electron@com@@UEAAPEBDPEBDPEAVParseContext@internal@protobuf@google@@@Z 0000000180018240 f   electron_sdk.pb.obj
 0001:00017240       ?_InternalParse@EnableVideoPreviewDialogParams@proto@sdk@electron@com@@UEAAPEBDPEBDPEAVParseContext@internal@protobuf@google@@@Z 0000000180018240 f   electron_sdk.pb.obj
 0001:00017240       ?_InternalParse@EnableWaitingRoomOnEntryParams@proto@sdk@electron@com@@UEAAPEBDPEBDPEAVParseContext@internal@protobuf@google@@@Z 0000000180018240 f   electron_sdk.pb.obj
 0001:00017240       ?_InternalParse@EnableZoomAuthRealNameMeetingUIShownParams@proto@sdk@electron@com@@UEAAPEBDPEBDPEAVParseContext@internal@protobuf@google@@@Z 0000000180018240 f   electron_sdk.pb.obj
 0001:00017240       ?_InternalParse@EnableZoomDocsParams@proto@sdk@electron@com@@UEAAPEBDPEBDPEAVParseContext@internal@protobuf@google@@@Z 0000000180018240 f   electron_sdk.pb.obj
 0001:00017240       ?_InternalParse@ForceDisableMultiShareParams@proto@sdk@electron@com@@UEAAPEBDPEBDPEAVParseContext@internal@protobuf@google@@@Z 0000000180018240 f   electron_sdk.pb.obj
 0001:00017240       ?_InternalParse@HideAutoCopyInviteLinkCheckBoxParams@proto@sdk@electron@com@@UEAAPEBDPEBDPEAVParseContext@internal@protobuf@google@@@Z 0000000180018240 f   electron_sdk.pb.obj
 0001:00017240       ?_InternalParse@HideChatItemOnMeetingUIParams@proto@sdk@electron@com@@UEAAPEBDPEBDPEAVParseContext@internal@protobuf@google@@@Z 0000000180018240 f   electron_sdk.pb.obj
 0001:00017240       ?_InternalParse@HideCopyInvitationOnInviteWindowParams@proto@sdk@electron@com@@UEAAPEBDPEBDPEAVParseContext@internal@protobuf@google@@@Z 0000000180018240 f   electron_sdk.pb.obj
 0001:00017240       ?_InternalParse@HideCopyUrlOnInviteWindowParams@proto@sdk@electron@com@@UEAAPEBDPEBDPEAVParseContext@internal@protobuf@google@@@Z 0000000180018240 f   electron_sdk.pb.obj
 0001:00017240       ?_InternalParse@HideKeypadButtonOnMeetingWindowParams@proto@sdk@electron@com@@UEAAPEBDPEBDPEAVParseContext@internal@protobuf@google@@@Z 0000000180018240 f   electron_sdk.pb.obj
 0001:00017240       ?_InternalParse@HideOrShowNoVideoUserOnVideoWallParams@proto@sdk@electron@com@@UEAAPEBDPEBDPEAVParseContext@internal@protobuf@google@@@Z 0000000180018240 f   electron_sdk.pb.obj
 0001:00017240       ?_InternalParse@HidePollOnMeetingUIParams@proto@sdk@electron@com@@UEAAPEBDPEBDPEAVParseContext@internal@protobuf@google@@@Z 0000000180018240 f   electron_sdk.pb.obj
 0001:00017240       ?_InternalParse@HideQAOnMeetingUIParams@proto@sdk@electron@com@@UEAAPEBDPEBDPEAVParseContext@internal@protobuf@google@@@Z 0000000180018240 f   electron_sdk.pb.obj
 0001:00017240       ?_InternalParse@HideRecordItemOnMeetingUIParams@proto@sdk@electron@com@@UEAAPEBDPEBDPEAVParseContext@internal@protobuf@google@@@Z 0000000180018240 f   electron_sdk.pb.obj
 0001:00017240       ?_InternalParse@HideRemoteControlOnMeetingUIParams@proto@sdk@electron@com@@UEAAPEBDPEBDPEAVParseContext@internal@protobuf@google@@@Z 0000000180018240 f   electron_sdk.pb.obj
 0001:00017240       ?_InternalParse@HideSwitchCameraButtonParams@proto@sdk@electron@com@@UEAAPEBDPEBDPEAVParseContext@internal@protobuf@google@@@Z 0000000180018240 f   electron_sdk.pb.obj
 0001:00017240       ?_InternalParse@HideUpgradeFreeMeetingButtonParams@proto@sdk@electron@com@@UEAAPEBDPEBDPEAVParseContext@internal@protobuf@google@@@Z 0000000180018240 f   electron_sdk.pb.obj
 0001:00017240       ?_InternalParse@JoinWithArchiveParams@proto@sdk@electron@com@@UEAAPEBDPEBDPEAVParseContext@internal@protobuf@google@@@Z 0000000180018240 f   electron_sdk.pb.obj
 0001:00017240       ?_InternalParse@LeaveMeetingParams@proto@sdk@electron@com@@UEAAPEBDPEBDPEAVParseContext@internal@protobuf@google@@@Z 0000000180018240 f   electron_sdk.pb.obj
 0001:00017240       ?_InternalParse@RedirectClickAudioBTNEventParams@proto@sdk@electron@com@@UEAAPEBDPEBDPEAVParseContext@internal@protobuf@google@@@Z 0000000180018240 f   electron_sdk.pb.obj
 0001:00017240       ?_InternalParse@RedirectClickAudioMenuBTNEventParams@proto@sdk@electron@com@@UEAAPEBDPEBDPEAVParseContext@internal@protobuf@google@@@Z 0000000180018240 f   electron_sdk.pb.obj
 0001:00017240       ?_InternalParse@RedirectClickCCBTNEventParams@proto@sdk@electron@com@@UEAAPEBDPEBDPEAVParseContext@internal@protobuf@google@@@Z 0000000180018240 f   electron_sdk.pb.obj
 0001:00017240       ?_InternalParse@RedirectClickCustomLiveStreamMenuEventParams@proto@sdk@electron@com@@UEAAPEBDPEBDPEAVParseContext@internal@protobuf@google@@@Z 0000000180018240 f   electron_sdk.pb.obj
 0001:00017240       ?_InternalParse@RedirectClickEndMeetingBTNEventParams@proto@sdk@electron@com@@UEAAPEBDPEBDPEAVParseContext@internal@protobuf@google@@@Z 0000000180018240 f   electron_sdk.pb.obj
 0001:00017240       ?_InternalParse@RedirectClickParticipantListBTNEventParams@proto@sdk@electron@com@@UEAAPEBDPEBDPEAVParseContext@internal@protobuf@google@@@Z 0000000180018240 f   electron_sdk.pb.obj
 0001:00017240       ?_InternalParse@RedirectClickShareBTNEventParams@proto@sdk@electron@com@@UEAAPEBDPEBDPEAVParseContext@internal@protobuf@google@@@Z 0000000180018240 f   electron_sdk.pb.obj
 0001:00017240       ?_InternalParse@RedirectConfirmStartArchiveDialogParams@proto@sdk@electron@com@@UEAAPEBDPEBDPEAVParseContext@internal@protobuf@google@@@Z 0000000180018240 f   electron_sdk.pb.obj
 0001:00017240       ?_InternalParse@RedirectEndOtherMeetingParams@proto@sdk@electron@com@@UEAAPEBDPEBDPEAVParseContext@internal@protobuf@google@@@Z 0000000180018240 f   electron_sdk.pb.obj
 0001:00017240       ?_InternalParse@RedirectFreeMeetingEndingReminderDlgParams@proto@sdk@electron@com@@UEAAPEBDPEBDPEAVParseContext@internal@protobuf@google@@@Z 0000000180018240 f   electron_sdk.pb.obj
 0001:00017240       ?_InternalParse@RedirectMeetingInputUserInfoDialogParams@proto@sdk@electron@com@@UEAAPEBDPEBDPEAVParseContext@internal@protobuf@google@@@Z 0000000180018240 f   electron_sdk.pb.obj
 0001:00017240       ?_InternalParse@RedirectWebinarNeedRegisterParams@proto@sdk@electron@com@@UEAAPEBDPEBDPEAVParseContext@internal@protobuf@google@@@Z 0000000180018240 f   electron_sdk.pb.obj
 0001:00017240       ?_InternalParse@SetBottomFloatToolBarWndVisibilityParams@proto@sdk@electron@com@@UEAAPEBDPEBDPEAVParseContext@internal@protobuf@google@@@Z 0000000180018240 f   electron_sdk.pb.obj
 0001:00017240       ?_InternalParse@SetFloatVideoWndVisibilityParams@proto@sdk@electron@com@@UEAAPEBDPEBDPEAVParseContext@internal@protobuf@google@@@Z 0000000180018240 f   electron_sdk.pb.obj
 0001:00017240       ?_InternalParse@SetSharingToolBarVisibilityParams@proto@sdk@electron@com@@UEAAPEBDPEBDPEAVParseContext@internal@protobuf@google@@@Z 0000000180018240 f   electron_sdk.pb.obj
 0001:00017240       ?_InternalParse@SetShowAudioUseComputerSoundChkboxParams@proto@sdk@electron@com@@UEAAPEBDPEBDPEAVParseContext@internal@protobuf@google@@@Z 0000000180018240 f   electron_sdk.pb.obj
 0001:00017240       ?_InternalParse@SetShowCallInTabParams@proto@sdk@electron@com@@UEAAPEBDPEBDPEAVParseContext@internal@protobuf@google@@@Z 0000000180018240 f   electron_sdk.pb.obj
 0001:00017240       ?_InternalParse@SetShowCallMeTabParams@proto@sdk@electron@com@@UEAAPEBDPEBDPEAVParseContext@internal@protobuf@google@@@Z 0000000180018240 f   electron_sdk.pb.obj
 0001:00017240       ?_InternalParse@SetShowVideoOptimizeChkboxParams@proto@sdk@electron@com@@UEAAPEBDPEBDPEAVParseContext@internal@protobuf@google@@@Z 0000000180018240 f   electron_sdk.pb.obj
 0001:00017240       ?_InternalParse@SetUsingGreenScreenParams@proto@sdk@electron@com@@UEAAPEBDPEBDPEAVParseContext@internal@protobuf@google@@@Z 0000000180018240 f   electron_sdk.pb.obj
 0001:00017240       ?_InternalParse@ShowBottomFloatToolbarWndParams@proto@sdk@electron@com@@UEAAPEBDPEBDPEAVParseContext@internal@protobuf@google@@@Z 0000000180018240 f   electron_sdk.pb.obj
 0001:00017240       ?_InternalParse@ShowParticipantsListWndParams@proto@sdk@electron@com@@UEAAPEBDPEBDPEAVParseContext@internal@protobuf@google@@@Z 0000000180018240 f   electron_sdk.pb.obj
 0001:00017240       ?_InternalParse@ShowPreOrNextPageVideoParams@proto@sdk@electron@com@@UEAAPEBDPEBDPEAVParseContext@internal@protobuf@google@@@Z 0000000180018240 f   electron_sdk.pb.obj
 0001:00017240       ?_InternalParse@ShowSharingFrameWindowsParams@proto@sdk@electron@com@@UEAAPEBDPEBDPEAVParseContext@internal@protobuf@google@@@Z 0000000180018240 f   electron_sdk.pb.obj
 0001:00017240       ?_InternalParse@ShowSharingToolbarParams@proto@sdk@electron@com@@UEAAPEBDPEBDPEAVParseContext@internal@protobuf@google@@@Z 0000000180018240 f   electron_sdk.pb.obj
 0001:00017240       ?_InternalParse@SwapToShowShareViewOrVideoParams@proto@sdk@electron@com@@UEAAPEBDPEBDPEAVParseContext@internal@protobuf@google@@@Z 0000000180018240 f   electron_sdk.pb.obj
 0001:00017240       ?_InternalParse@SwitchSplitScreenModeParams@proto@sdk@electron@com@@UEAAPEBDPEBDPEAVParseContext@internal@protobuf@google@@@Z 0000000180018240 f   electron_sdk.pb.obj
 0001:00017240       ?_InternalParse@TurnOffAeroModeInSharingParams@proto@sdk@electron@com@@UEAAPEBDPEBDPEAVParseContext@internal@protobuf@google@@@Z 0000000180018240 f   electron_sdk.pb.obj
 0001:00017240       ?_InternalParse@TurnOffAllAICompanionsParams@proto@sdk@electron@com@@UEAAPEBDPEBDPEAVParseContext@internal@protobuf@google@@@Z 0000000180018240 f   electron_sdk.pb.obj
 0001:00017390       ?_InternalSerialize@ActionConfirmEnableSmartRecordingParams@proto@sdk@electron@com@@UEBAPEAEPEAEPEAVEpsCopyOutputStream@io@protobuf@google@@@Z 0000000180018390 f   electron_sdk.pb.obj
 0001:00017390       ?_InternalSerialize@AgreeAICompanionFeatureSwitchParams@proto@sdk@electron@com@@UEBAPEAEPEAEPEAVEpsCopyOutputStream@io@protobuf@google@@@Z 0000000180018390 f   electron_sdk.pb.obj
 0001:00017390       ?_InternalSerialize@AgreeToEnableAndStartSmartRecordingParams@proto@sdk@electron@com@@UEBAPEAEPEAEPEAVEpsCopyOutputStream@io@protobuf@google@@@Z 0000000180018390 f   electron_sdk.pb.obj
 0001:00017390       ?_InternalSerialize@AllowParticipantsToRequestCloudRecordingParams@proto@sdk@electron@com@@UEBAPEAEPEAEPEAVEpsCopyOutputStream@io@protobuf@google@@@Z 0000000180018390 f   electron_sdk.pb.obj
 0001:00017390       ?_InternalSerialize@AlwaysShowIconOnTaskBarParams@proto@sdk@electron@com@@UEBAPEAEPEAEPEAVEpsCopyOutputStream@io@protobuf@google@@@Z 0000000180018390 f   electron_sdk.pb.obj
 0001:00017390       ?_InternalSerialize@DeclineEnableAndStartSmartRecordingParams@proto@sdk@electron@com@@UEBAPEAEPEAEPEAVEpsCopyOutputStream@io@protobuf@google@@@Z 0000000180018390 f   electron_sdk.pb.obj
 0001:00017390       ?_InternalSerialize@DeclineEnableParams@proto@sdk@electron@com@@UEBAPEAEPEAEPEAVEpsCopyOutputStream@io@protobuf@google@@@Z 0000000180018390 f   electron_sdk.pb.obj
 0001:00017390       ?_InternalSerialize@DeclineSendQueryParams@proto@sdk@electron@com@@UEBAPEAEPEAEPEAVEpsCopyOutputStream@io@protobuf@google@@@Z 0000000180018390 f   electron_sdk.pb.obj
 0001:00017390       ?_InternalSerialize@DenyRequestStartCloudRecordingParams@proto@sdk@electron@com@@UEBAPEAEPEAEPEAVEpsCopyOutputStream@io@protobuf@google@@@Z 0000000180018390 f   electron_sdk.pb.obj
 0001:00017390       ?_InternalSerialize@DisableAccountSettingTabPageParams@proto@sdk@electron@com@@UEBAPEAEPEAEPEAVEpsCopyOutputStream@io@protobuf@google@@@Z 0000000180018390 f   electron_sdk.pb.obj
 0001:00017390       ?_InternalSerialize@DisableAdvancedFeatures4GeneralSettingParams@proto@sdk@electron@com@@UEBAPEAEPEAEPEAVEpsCopyOutputStream@io@protobuf@google@@@Z 0000000180018390 f   electron_sdk.pb.obj
 0001:00017390       ?_InternalSerialize@DisableAutoShowSelectJoinAudioDlgWhenJoinMeetingParams@proto@sdk@electron@com@@UEBAPEAEPEAEPEAVEpsCopyOutputStream@io@protobuf@google@@@Z 0000000180018390 f   electron_sdk.pb.obj
 0001:00017390       ?_InternalSerialize@DisableFreeMeetingRemainTimeNotifyParams@proto@sdk@electron@com@@UEBAPEAEPEAEPEAVEpsCopyOutputStream@io@protobuf@google@@@Z 0000000180018390 f   electron_sdk.pb.obj
 0001:00017390       ?_InternalSerialize@DisablePopupMeetingWrongPSWDlgParams@proto@sdk@electron@com@@UEBAPEAEPEAEPEAVEpsCopyOutputStream@io@protobuf@google@@@Z 0000000180018390 f   electron_sdk.pb.obj
 0001:00017390       ?_InternalSerialize@DisableShowJoinMeetingWndParams@proto@sdk@electron@com@@UEBAPEAEPEAEPEAVEpsCopyOutputStream@io@protobuf@google@@@Z 0000000180018390 f   electron_sdk.pb.obj
 0001:00017390       ?_InternalSerialize@DisableSplitScreenModeUIElementsParams@proto@sdk@electron@com@@UEBAPEAEPEAEPEAVEpsCopyOutputStream@io@protobuf@google@@@Z 0000000180018390 f   electron_sdk.pb.obj
 0001:00017390       ?_InternalSerialize@DisableToolbarInviteButtonClickOriginActionParams@proto@sdk@electron@com@@UEBAPEAEPEAEPEAVEpsCopyOutputStream@io@protobuf@google@@@Z 0000000180018390 f   electron_sdk.pb.obj
 0001:00017390       ?_InternalSerialize@DisableTopMostAttr4SettingDialogParams@proto@sdk@electron@com@@UEBAPEAEPEAEPEAVEpsCopyOutputStream@io@protobuf@google@@@Z 0000000180018390 f   electron_sdk.pb.obj
 0001:00017390       ?_InternalSerialize@DisableWaitingForHostDialogParams@proto@sdk@electron@com@@UEBAPEAEPEAEPEAVEpsCopyOutputStream@io@protobuf@google@@@Z 0000000180018390 f   electron_sdk.pb.obj
 0001:00017390       ?_InternalSerialize@Enable49VideoesInGallaryViewParams@proto@sdk@electron@com@@UEBAPEAEPEAEPEAVEpsCopyOutputStream@io@protobuf@google@@@Z 0000000180018390 f   electron_sdk.pb.obj
 0001:00017390       ?_InternalSerialize@EnableAccelerateGPUWhenShareParams@proto@sdk@electron@com@@UEBAPEAEPEAEPEAVEpsCopyOutputStream@io@protobuf@google@@@Z 0000000180018390 f   electron_sdk.pb.obj
 0001:00017390       ?_InternalSerialize@EnableAddTimestampWatermarkParams@proto@sdk@electron@com@@UEBAPEAEPEAEPEAVEpsCopyOutputStream@io@protobuf@google@@@Z 0000000180018390 f   electron_sdk.pb.obj
 0001:00017390       ?_InternalSerialize@EnableAirplayInstructionWindowParams@proto@sdk@electron@com@@UEBAPEAEPEAEPEAVEpsCopyOutputStream@io@protobuf@google@@@Z 0000000180018390 f   electron_sdk.pb.obj
 0001:00017390       ?_InternalSerialize@EnableAlwaysMuteMicWhenJoinVoipParams@proto@sdk@electron@com@@UEBAPEAEPEAEPEAVEpsCopyOutputStream@io@protobuf@google@@@Z 0000000180018390 f   electron_sdk.pb.obj
 0001:00017390       ?_InternalSerialize@EnableAlwaysShowMeetingControlsParams@proto@sdk@electron@com@@UEBAPEAEPEAEPEAVEpsCopyOutputStream@io@protobuf@google@@@Z 0000000180018390 f   electron_sdk.pb.obj
 0001:00017390       ?_InternalSerialize@EnableAlwaysShowNameOnVideoParams@proto@sdk@electron@com@@UEBAPEAEPEAEPEAVEpsCopyOutputStream@io@protobuf@google@@@Z 0000000180018390 f   electron_sdk.pb.obj
 0001:00017390       ?_InternalSerialize@EnableApproveRemoteControlDlgParams@proto@sdk@electron@com@@UEBAPEAEPEAEPEAVEpsCopyOutputStream@io@protobuf@google@@@Z 0000000180018390 f   electron_sdk.pb.obj
 0001:00017390       ?_InternalSerialize@EnableAudioButtonOnMeetingUIParams@proto@sdk@electron@com@@UEBAPEAEPEAEPEAVEpsCopyOutputStream@io@protobuf@google@@@Z 0000000180018390 f   electron_sdk.pb.obj
 0001:00017390       ?_InternalSerialize@EnableAutoAdjustMicParams@proto@sdk@electron@com@@UEBAPEAEPEAEPEAVEpsCopyOutputStream@io@protobuf@google@@@Z 0000000180018390 f   electron_sdk.pb.obj
 0001:00017390       ?_InternalSerialize@EnableAutoAdjustMicVolumeWhenJoinAudioParams@proto@sdk@electron@com@@UEBAPEAEPEAEPEAVEpsCopyOutputStream@io@protobuf@google@@@Z 0000000180018390 f   electron_sdk.pb.obj
 0001:00017390       ?_InternalSerialize@EnableAutoAdjustSpeakerVolumeWhenJoinAudioParams@proto@sdk@electron@com@@UEBAPEAEPEAEPEAVEpsCopyOutputStream@io@protobuf@google@@@Z 0000000180018390 f   electron_sdk.pb.obj
 0001:00017390       ?_InternalSerialize@EnableAutoEndOtherMeetingWhenStartMeetingParams@proto@sdk@electron@com@@UEBAPEAEPEAEPEAVEpsCopyOutputStream@io@protobuf@google@@@Z 0000000180018390 f   electron_sdk.pb.obj
 0001:00017390       ?_InternalSerialize@EnableAutoFitToWindowWhenViewSharingParams@proto@sdk@electron@com@@UEBAPEAEPEAEPEAVEpsCopyOutputStream@io@protobuf@google@@@Z 0000000180018390 f   electron_sdk.pb.obj
 0001:00017390       ?_InternalSerialize@EnableAutoFullScreenVideoWhenJoinMeetingParams@proto@sdk@electron@com@@UEBAPEAEPEAEPEAVEpsCopyOutputStream@io@protobuf@google@@@Z 0000000180018390 f   electron_sdk.pb.obj
 0001:00017390       ?_InternalSerialize@EnableAutoFullScreenVideoWhenViewShareParams@proto@sdk@electron@com@@UEBAPEAEPEAEPEAVEpsCopyOutputStream@io@protobuf@google@@@Z 0000000180018390 f   electron_sdk.pb.obj
 0001:00017390       ?_InternalSerialize@EnableAutoHideJoinAudioDialogParams@proto@sdk@electron@com@@UEBAPEAEPEAEPEAVEpsCopyOutputStream@io@protobuf@google@@@Z 0000000180018390 f   electron_sdk.pb.obj
 0001:00017390       ?_InternalSerialize@EnableAutoJoinAudioParams@proto@sdk@electron@com@@UEBAPEAEPEAEPEAVEpsCopyOutputStream@io@protobuf@google@@@Z 0000000180018390 f   electron_sdk.pb.obj
 0001:00017390       ?_InternalSerialize@EnableAutoTurnOffVideoWhenJoinMeetingParams@proto@sdk@electron@com@@UEBAPEAEPEAEPEAVEpsCopyOutputStream@io@protobuf@google@@@Z 0000000180018390 f   electron_sdk.pb.obj
 0001:00017390       ?_InternalSerialize@EnableClaimHostFeatureParams@proto@sdk@electron@com@@UEBAPEAEPEAEPEAVEpsCopyOutputStream@io@protobuf@google@@@Z 0000000180018390 f   electron_sdk.pb.obj
 0001:00017390       ?_InternalSerialize@EnableDeclineRemoteControlResponseDlgParams@proto@sdk@electron@com@@UEBAPEAEPEAEPEAVEpsCopyOutputStream@io@protobuf@google@@@Z 0000000180018390 f   electron_sdk.pb.obj
 0001:00017390       ?_InternalSerialize@EnableDisplayReminderWindowWhenExitParams@proto@sdk@electron@com@@UEBAPEAEPEAEPEAVEpsCopyOutputStream@io@protobuf@google@@@Z 0000000180018390 f   electron_sdk.pb.obj
 0001:00017390       ?_InternalSerialize@EnableDualScreenModeParams@proto@sdk@electron@com@@UEBAPEAEPEAEPEAVEpsCopyOutputStream@io@protobuf@google@@@Z 0000000180018390 f   electron_sdk.pb.obj
 0001:00017390       ?_InternalSerialize@EnableEnterAndExitFullScreenButtonOnMeetingUIParams@proto@sdk@electron@com@@UEBAPEAEPEAEPEAVEpsCopyOutputStream@io@protobuf@google@@@Z 0000000180018390 f   electron_sdk.pb.obj
 0001:00017390       ?_InternalSerialize@EnableFaceBeautyEffectParams@proto@sdk@electron@com@@UEBAPEAEPEAEPEAVEpsCopyOutputStream@io@protobuf@google@@@Z 0000000180018390 f   electron_sdk.pb.obj
 0001:00017390       ?_InternalSerialize@EnableForceAutoStartMyVideoWhenJoinMeetingParams@proto@sdk@electron@com@@UEBAPEAEPEAEPEAVEpsCopyOutputStream@io@protobuf@google@@@Z 0000000180018390 f   electron_sdk.pb.obj
 0001:00017390       ?_InternalSerialize@EnableForceAutoStopMyVideoWhenJoinMeetingParams@proto@sdk@electron@com@@UEBAPEAEPEAEPEAVEpsCopyOutputStream@io@protobuf@google@@@Z 0000000180018390 f   electron_sdk.pb.obj
 0001:00017390       ?_InternalSerialize@EnableGrabShareWithoutReminderParams@proto@sdk@electron@com@@UEBAPEAEPEAEPEAVEpsCopyOutputStream@io@protobuf@google@@@Z 0000000180018390 f   electron_sdk.pb.obj
 0001:00017390       ?_InternalSerialize@EnableHDVideoParams@proto@sdk@electron@com@@UEBAPEAEPEAEPEAVEpsCopyOutputStream@io@protobuf@google@@@Z 0000000180018390 f   electron_sdk.pb.obj
 0001:00017390       ?_InternalSerialize@EnableHIdeFullPhoneNumber4PureCallinUserParams@proto@sdk@electron@com@@UEBAPEAEPEAEPEAVEpsCopyOutputStream@io@protobuf@google@@@Z 0000000180018390 f   electron_sdk.pb.obj
 0001:00017390       ?_InternalSerialize@EnableHideNoVideoUsersOnWallViewParams@proto@sdk@electron@com@@UEBAPEAEPEAEPEAVEpsCopyOutputStream@io@protobuf@google@@@Z 0000000180018390 f   electron_sdk.pb.obj
 0001:00017390       ?_InternalSerialize@EnableHoldSpaceKeyToSpeakParams@proto@sdk@electron@com@@UEBAPEAEPEAEPEAVEpsCopyOutputStream@io@protobuf@google@@@Z 0000000180018390 f   electron_sdk.pb.obj
 0001:00017390       ?_InternalSerialize@EnableInputMeetingPasswordDlgParams@proto@sdk@electron@com@@UEBAPEAEPEAEPEAVEpsCopyOutputStream@io@protobuf@google@@@Z 0000000180018390 f   electron_sdk.pb.obj
 0001:00017390       ?_InternalSerialize@EnableInputMeetingScreenNameDlgParams@proto@sdk@electron@com@@UEBAPEAEPEAEPEAVEpsCopyOutputStream@io@protobuf@google@@@Z 0000000180018390 f   electron_sdk.pb.obj
 0001:00017390       ?_InternalSerialize@EnableInviteButtonOnMeetingUIParams@proto@sdk@electron@com@@UEBAPEAEPEAEPEAVEpsCopyOutputStream@io@protobuf@google@@@Z 0000000180018390 f   electron_sdk.pb.obj
 0001:00017390       ?_InternalSerialize@EnableInviteLinkOnMeetingUIParams@proto@sdk@electron@com@@UEBAPEAEPEAEPEAVEpsCopyOutputStream@io@protobuf@google@@@Z 0000000180018390 f   electron_sdk.pb.obj
 0001:00017390       ?_InternalSerialize@EnableLButtonDBClick4SwitchFullScreenModeParams@proto@sdk@electron@com@@UEBAPEAEPEAEPEAVEpsCopyOutputStream@io@protobuf@google@@@Z 0000000180018390 f   electron_sdk.pb.obj
 0001:00017390       ?_InternalSerialize@EnableLeaveMeetingOptionForHostParams@proto@sdk@electron@com@@UEBAPEAEPEAEPEAVEpsCopyOutputStream@io@protobuf@google@@@Z 0000000180018390 f   electron_sdk.pb.obj
 0001:00017390       ?_InternalSerialize@EnableLengthLimitationOfMeetingNumberParams@proto@sdk@electron@com@@UEBAPEAEPEAEPEAVEpsCopyOutputStream@io@protobuf@google@@@Z 0000000180018390 f   electron_sdk.pb.obj
 0001:00017390       ?_InternalSerialize@EnableLiveStreamReminderParams@proto@sdk@electron@com@@UEBAPEAEPEAEPEAVEpsCopyOutputStream@io@protobuf@google@@@Z 0000000180018390 f   electron_sdk.pb.obj
 0001:00017390       ?_InternalSerialize@EnableLocalRecordingConverProgressBarDialogParams@proto@sdk@electron@com@@UEBAPEAEPEAEPEAVEpsCopyOutputStream@io@protobuf@google@@@Z 0000000180018390 f   electron_sdk.pb.obj
 0001:00017390       ?_InternalSerialize@EnableMicOriginalInputParams@proto@sdk@electron@com@@UEBAPEAEPEAEPEAVEpsCopyOutputStream@io@protobuf@google@@@Z 0000000180018390 f   electron_sdk.pb.obj
 0001:00017390       ?_InternalSerialize@EnableMultiAudioStreamRecordParams@proto@sdk@electron@com@@UEBAPEAEPEAEPEAVEpsCopyOutputStream@io@protobuf@google@@@Z 0000000180018390 f   electron_sdk.pb.obj
 0001:00017390       ?_InternalSerialize@EnableOptimizeFor3rdPartyVideoEditorParams@proto@sdk@electron@com@@UEBAPEAEPEAEPEAVEpsCopyOutputStream@io@protobuf@google@@@Z 0000000180018390 f   electron_sdk.pb.obj
 0001:00017390       ?_InternalSerialize@EnableParticipantsCreateWithoutHostParams@proto@sdk@electron@com@@UEBAPEAEPEAEPEAVEpsCopyOutputStream@io@protobuf@google@@@Z 0000000180018390 f   electron_sdk.pb.obj
 0001:00017390       ?_InternalSerialize@EnablePlaceVideoNextToShareInRecordParams@proto@sdk@electron@com@@UEBAPEAEPEAEPEAVEpsCopyOutputStream@io@protobuf@google@@@Z 0000000180018390 f   electron_sdk.pb.obj
 0001:00017390       ?_InternalSerialize@EnablePlayChimeWhenEnterOrExitParams@proto@sdk@electron@com@@UEBAPEAEPEAEPEAVEpsCopyOutputStream@io@protobuf@google@@@Z 0000000180018390 f   electron_sdk.pb.obj
 0001:00017390       ?_InternalSerialize@EnablePlayMeetingAudioParams@proto@sdk@electron@com@@UEBAPEAEPEAEPEAVEpsCopyOutputStream@io@protobuf@google@@@Z 0000000180018390 f   electron_sdk.pb.obj
 0001:00017390       ?_InternalSerialize@EnableRemoteControlAllApplicationsParams@proto@sdk@electron@com@@UEBAPEAEPEAEPEAVEpsCopyOutputStream@io@protobuf@google@@@Z 0000000180018390 f   electron_sdk.pb.obj
 0001:00017390       ?_InternalSerialize@EnableSelectRecordFileLocationAfterMeetingParams@proto@sdk@electron@com@@UEBAPEAEPEAEPEAVEpsCopyOutputStream@io@protobuf@google@@@Z 0000000180018390 f   electron_sdk.pb.obj
 0001:00017390       ?_InternalSerialize@EnableShareIOSDeviceParams@proto@sdk@electron@com@@UEBAPEAEPEAEPEAVEpsCopyOutputStream@io@protobuf@google@@@Z 0000000180018390 f   electron_sdk.pb.obj
 0001:00017390       ?_InternalSerialize@EnableShareWhiteBoardParams@proto@sdk@electron@com@@UEBAPEAEPEAEPEAVEpsCopyOutputStream@io@protobuf@google@@@Z 0000000180018390 f   electron_sdk.pb.obj
 0001:00017390       ?_InternalSerialize@EnableShowMyMeetingElapseTimeParams@proto@sdk@electron@com@@UEBAPEAEPEAEPEAVEpsCopyOutputStream@io@protobuf@google@@@Z 0000000180018390 f   electron_sdk.pb.obj
 0001:00017390       ?_InternalSerialize@EnableShowShareSwitchMultiToSingleConfirmDlgParams@proto@sdk@electron@com@@UEBAPEAEPEAEPEAVEpsCopyOutputStream@io@protobuf@google@@@Z 0000000180018390 f   electron_sdk.pb.obj
 0001:00017390       ?_InternalSerialize@EnableShowVideoThumbnailWhenShareParams@proto@sdk@electron@com@@UEBAPEAEPEAEPEAVEpsCopyOutputStream@io@protobuf@google@@@Z 0000000180018390 f   electron_sdk.pb.obj
 0001:00017390       ?_InternalSerialize@EnableSplitScreenModeParams@proto@sdk@electron@com@@UEBAPEAEPEAEPEAVEpsCopyOutputStream@io@protobuf@google@@@Z 0000000180018390 f   electron_sdk.pb.obj
 0001:00017390       ?_InternalSerialize@EnableSpotlightSelfParams@proto@sdk@electron@com@@UEBAPEAEPEAEPEAVEpsCopyOutputStream@io@protobuf@google@@@Z 0000000180018390 f   electron_sdk.pb.obj
 0001:00017390       ?_InternalSerialize@EnableStereoAudioParams@proto@sdk@electron@com@@UEBAPEAEPEAEPEAVEpsCopyOutputStream@io@protobuf@google@@@Z 0000000180018390 f   electron_sdk.pb.obj
 0001:00017390       ?_InternalSerialize@EnableSuppressAudioNotifyParams@proto@sdk@electron@com@@UEBAPEAEPEAEPEAVEpsCopyOutputStream@io@protobuf@google@@@Z 0000000180018390 f   electron_sdk.pb.obj
 0001:00017390       ?_InternalSerialize@EnableToolTipsShowParams@proto@sdk@electron@com@@UEBAPEAEPEAEPEAVEpsCopyOutputStream@io@protobuf@google@@@Z 0000000180018390 f   electron_sdk.pb.obj
 0001:00017390       ?_InternalSerialize@EnableVideoButtonOnMeetingUIParams@proto@sdk@electron@com@@UEBAPEAEPEAEPEAVEpsCopyOutputStream@io@protobuf@google@@@Z 0000000180018390 f   electron_sdk.pb.obj
 0001:00017390       ?_InternalSerialize@EnableVideoMirrorEffectParams@proto@sdk@electron@com@@UEBAPEAEPEAEPEAVEpsCopyOutputStream@io@protobuf@google@@@Z 0000000180018390 f   electron_sdk.pb.obj
 0001:00017390       ?_InternalSerialize@EnableVideoPreviewDialogParams@proto@sdk@electron@com@@UEBAPEAEPEAEPEAVEpsCopyOutputStream@io@protobuf@google@@@Z 0000000180018390 f   electron_sdk.pb.obj
 0001:00017390       ?_InternalSerialize@EnableWaitingRoomOnEntryParams@proto@sdk@electron@com@@UEBAPEAEPEAEPEAVEpsCopyOutputStream@io@protobuf@google@@@Z 0000000180018390 f   electron_sdk.pb.obj
 0001:00017390       ?_InternalSerialize@EnableZoomAuthRealNameMeetingUIShownParams@proto@sdk@electron@com@@UEBAPEAEPEAEPEAVEpsCopyOutputStream@io@protobuf@google@@@Z 0000000180018390 f   electron_sdk.pb.obj
 0001:00017390       ?_InternalSerialize@EnableZoomDocsParams@proto@sdk@electron@com@@UEBAPEAEPEAEPEAVEpsCopyOutputStream@io@protobuf@google@@@Z 0000000180018390 f   electron_sdk.pb.obj
 0001:00017390       ?_InternalSerialize@ForceDisableMultiShareParams@proto@sdk@electron@com@@UEBAPEAEPEAEPEAVEpsCopyOutputStream@io@protobuf@google@@@Z 0000000180018390 f   electron_sdk.pb.obj
 0001:00017390       ?_InternalSerialize@HideAutoCopyInviteLinkCheckBoxParams@proto@sdk@electron@com@@UEBAPEAEPEAEPEAVEpsCopyOutputStream@io@protobuf@google@@@Z 0000000180018390 f   electron_sdk.pb.obj
 0001:00017390       ?_InternalSerialize@HideChatItemOnMeetingUIParams@proto@sdk@electron@com@@UEBAPEAEPEAEPEAVEpsCopyOutputStream@io@protobuf@google@@@Z 0000000180018390 f   electron_sdk.pb.obj
 0001:00017390       ?_InternalSerialize@HideCopyInvitationOnInviteWindowParams@proto@sdk@electron@com@@UEBAPEAEPEAEPEAVEpsCopyOutputStream@io@protobuf@google@@@Z 0000000180018390 f   electron_sdk.pb.obj
 0001:00017390       ?_InternalSerialize@HideCopyUrlOnInviteWindowParams@proto@sdk@electron@com@@UEBAPEAEPEAEPEAVEpsCopyOutputStream@io@protobuf@google@@@Z 0000000180018390 f   electron_sdk.pb.obj
 0001:00017390       ?_InternalSerialize@HideKeypadButtonOnMeetingWindowParams@proto@sdk@electron@com@@UEBAPEAEPEAEPEAVEpsCopyOutputStream@io@protobuf@google@@@Z 0000000180018390 f   electron_sdk.pb.obj
 0001:00017390       ?_InternalSerialize@HideOrShowNoVideoUserOnVideoWallParams@proto@sdk@electron@com@@UEBAPEAEPEAEPEAVEpsCopyOutputStream@io@protobuf@google@@@Z 0000000180018390 f   electron_sdk.pb.obj
 0001:00017390       ?_InternalSerialize@HidePollOnMeetingUIParams@proto@sdk@electron@com@@UEBAPEAEPEAEPEAVEpsCopyOutputStream@io@protobuf@google@@@Z 0000000180018390 f   electron_sdk.pb.obj
 0001:00017390       ?_InternalSerialize@HideQAOnMeetingUIParams@proto@sdk@electron@com@@UEBAPEAEPEAEPEAVEpsCopyOutputStream@io@protobuf@google@@@Z 0000000180018390 f   electron_sdk.pb.obj
 0001:00017390       ?_InternalSerialize@HideRecordItemOnMeetingUIParams@proto@sdk@electron@com@@UEBAPEAEPEAEPEAVEpsCopyOutputStream@io@protobuf@google@@@Z 0000000180018390 f   electron_sdk.pb.obj
 0001:00017390       ?_InternalSerialize@HideRemoteControlOnMeetingUIParams@proto@sdk@electron@com@@UEBAPEAEPEAEPEAVEpsCopyOutputStream@io@protobuf@google@@@Z 0000000180018390 f   electron_sdk.pb.obj
 0001:00017390       ?_InternalSerialize@HideSwitchCameraButtonParams@proto@sdk@electron@com@@UEBAPEAEPEAEPEAVEpsCopyOutputStream@io@protobuf@google@@@Z 0000000180018390 f   electron_sdk.pb.obj
 0001:00017390       ?_InternalSerialize@HideUpgradeFreeMeetingButtonParams@proto@sdk@electron@com@@UEBAPEAEPEAEPEAVEpsCopyOutputStream@io@protobuf@google@@@Z 0000000180018390 f   electron_sdk.pb.obj
 0001:00017390       ?_InternalSerialize@JoinWithArchiveParams@proto@sdk@electron@com@@UEBAPEAEPEAEPEAVEpsCopyOutputStream@io@protobuf@google@@@Z 0000000180018390 f   electron_sdk.pb.obj
 0001:00017390       ?_InternalSerialize@LeaveMeetingParams@proto@sdk@electron@com@@UEBAPEAEPEAEPEAVEpsCopyOutputStream@io@protobuf@google@@@Z 0000000180018390 f   electron_sdk.pb.obj
 0001:00017390       ?_InternalSerialize@RedirectClickAudioBTNEventParams@proto@sdk@electron@com@@UEBAPEAEPEAEPEAVEpsCopyOutputStream@io@protobuf@google@@@Z 0000000180018390 f   electron_sdk.pb.obj
 0001:00017390       ?_InternalSerialize@RedirectClickAudioMenuBTNEventParams@proto@sdk@electron@com@@UEBAPEAEPEAEPEAVEpsCopyOutputStream@io@protobuf@google@@@Z 0000000180018390 f   electron_sdk.pb.obj
 0001:00017390       ?_InternalSerialize@RedirectClickCCBTNEventParams@proto@sdk@electron@com@@UEBAPEAEPEAEPEAVEpsCopyOutputStream@io@protobuf@google@@@Z 0000000180018390 f   electron_sdk.pb.obj
 0001:00017390       ?_InternalSerialize@RedirectClickCustomLiveStreamMenuEventParams@proto@sdk@electron@com@@UEBAPEAEPEAEPEAVEpsCopyOutputStream@io@protobuf@google@@@Z 0000000180018390 f   electron_sdk.pb.obj
 0001:00017390       ?_InternalSerialize@RedirectClickEndMeetingBTNEventParams@proto@sdk@electron@com@@UEBAPEAEPEAEPEAVEpsCopyOutputStream@io@protobuf@google@@@Z 0000000180018390 f   electron_sdk.pb.obj
 0001:00017390       ?_InternalSerialize@RedirectClickParticipantListBTNEventParams@proto@sdk@electron@com@@UEBAPEAEPEAEPEAVEpsCopyOutputStream@io@protobuf@google@@@Z 0000000180018390 f   electron_sdk.pb.obj
 0001:00017390       ?_InternalSerialize@RedirectClickShareBTNEventParams@proto@sdk@electron@com@@UEBAPEAEPEAEPEAVEpsCopyOutputStream@io@protobuf@google@@@Z 0000000180018390 f   electron_sdk.pb.obj
 0001:00017390       ?_InternalSerialize@RedirectConfirmStartArchiveDialogParams@proto@sdk@electron@com@@UEBAPEAEPEAEPEAVEpsCopyOutputStream@io@protobuf@google@@@Z 0000000180018390 f   electron_sdk.pb.obj
 0001:00017390       ?_InternalSerialize@RedirectEndOtherMeetingParams@proto@sdk@electron@com@@UEBAPEAEPEAEPEAVEpsCopyOutputStream@io@protobuf@google@@@Z 0000000180018390 f   electron_sdk.pb.obj
 0001:00017390       ?_InternalSerialize@RedirectFreeMeetingEndingReminderDlgParams@proto@sdk@electron@com@@UEBAPEAEPEAEPEAVEpsCopyOutputStream@io@protobuf@google@@@Z 0000000180018390 f   electron_sdk.pb.obj
 0001:00017390       ?_InternalSerialize@RedirectMeetingInputUserInfoDialogParams@proto@sdk@electron@com@@UEBAPEAEPEAEPEAVEpsCopyOutputStream@io@protobuf@google@@@Z 0000000180018390 f   electron_sdk.pb.obj
 0001:00017390       ?_InternalSerialize@RedirectWebinarNeedRegisterParams@proto@sdk@electron@com@@UEBAPEAEPEAEPEAVEpsCopyOutputStream@io@protobuf@google@@@Z 0000000180018390 f   electron_sdk.pb.obj
 0001:00017390       ?_InternalSerialize@SetBottomFloatToolBarWndVisibilityParams@proto@sdk@electron@com@@UEBAPEAEPEAEPEAVEpsCopyOutputStream@io@protobuf@google@@@Z 0000000180018390 f   electron_sdk.pb.obj
 0001:00017390       ?_InternalSerialize@SetFloatVideoWndVisibilityParams@proto@sdk@electron@com@@UEBAPEAEPEAEPEAVEpsCopyOutputStream@io@protobuf@google@@@Z 0000000180018390 f   electron_sdk.pb.obj
 0001:00017390       ?_InternalSerialize@SetSharingToolBarVisibilityParams@proto@sdk@electron@com@@UEBAPEAEPEAEPEAVEpsCopyOutputStream@io@protobuf@google@@@Z 0000000180018390 f   electron_sdk.pb.obj
 0001:00017390       ?_InternalSerialize@SetShowAudioUseComputerSoundChkboxParams@proto@sdk@electron@com@@UEBAPEAEPEAEPEAVEpsCopyOutputStream@io@protobuf@google@@@Z 0000000180018390 f   electron_sdk.pb.obj
 0001:00017390       ?_InternalSerialize@SetShowCallInTabParams@proto@sdk@electron@com@@UEBAPEAEPEAEPEAVEpsCopyOutputStream@io@protobuf@google@@@Z 0000000180018390 f   electron_sdk.pb.obj
 0001:00017390       ?_InternalSerialize@SetShowCallMeTabParams@proto@sdk@electron@com@@UEBAPEAEPEAEPEAVEpsCopyOutputStream@io@protobuf@google@@@Z 0000000180018390 f   electron_sdk.pb.obj
 0001:00017390       ?_InternalSerialize@SetShowVideoOptimizeChkboxParams@proto@sdk@electron@com@@UEBAPEAEPEAEPEAVEpsCopyOutputStream@io@protobuf@google@@@Z 0000000180018390 f   electron_sdk.pb.obj
 0001:00017390       ?_InternalSerialize@SetUsingGreenScreenParams@proto@sdk@electron@com@@UEBAPEAEPEAEPEAVEpsCopyOutputStream@io@protobuf@google@@@Z 0000000180018390 f   electron_sdk.pb.obj
 0001:00017390       ?_InternalSerialize@ShowBottomFloatToolbarWndParams@proto@sdk@electron@com@@UEBAPEAEPEAEPEAVEpsCopyOutputStream@io@protobuf@google@@@Z 0000000180018390 f   electron_sdk.pb.obj
 0001:00017390       ?_InternalSerialize@ShowParticipantsListWndParams@proto@sdk@electron@com@@UEBAPEAEPEAEPEAVEpsCopyOutputStream@io@protobuf@google@@@Z 0000000180018390 f   electron_sdk.pb.obj
 0001:00017390       ?_InternalSerialize@ShowPreOrNextPageVideoParams@proto@sdk@electron@com@@UEBAPEAEPEAEPEAVEpsCopyOutputStream@io@protobuf@google@@@Z 0000000180018390 f   electron_sdk.pb.obj
 0001:00017390       ?_InternalSerialize@ShowSharingFrameWindowsParams@proto@sdk@electron@com@@UEBAPEAEPEAEPEAVEpsCopyOutputStream@io@protobuf@google@@@Z 0000000180018390 f   electron_sdk.pb.obj
 0001:00017390       ?_InternalSerialize@ShowSharingToolbarParams@proto@sdk@electron@com@@UEBAPEAEPEAEPEAVEpsCopyOutputStream@io@protobuf@google@@@Z 0000000180018390 f   electron_sdk.pb.obj
 0001:00017390       ?_InternalSerialize@SwapToShowShareViewOrVideoParams@proto@sdk@electron@com@@UEBAPEAEPEAEPEAVEpsCopyOutputStream@io@protobuf@google@@@Z 0000000180018390 f   electron_sdk.pb.obj
 0001:00017390       ?_InternalSerialize@SwitchSplitScreenModeParams@proto@sdk@electron@com@@UEBAPEAEPEAEPEAVEpsCopyOutputStream@io@protobuf@google@@@Z 0000000180018390 f   electron_sdk.pb.obj
 0001:00017390       ?_InternalSerialize@TurnOffAeroModeInSharingParams@proto@sdk@electron@com@@UEBAPEAEPEAEPEAVEpsCopyOutputStream@io@protobuf@google@@@Z 0000000180018390 f   electron_sdk.pb.obj
 0001:00017390       ?_InternalSerialize@TurnOffAllAICompanionsParams@proto@sdk@electron@com@@UEBAPEAEPEAEPEAVEpsCopyOutputStream@io@protobuf@google@@@Z 0000000180018390 f   electron_sdk.pb.obj
 0001:00017460       ?ByteSizeLong@ActionConfirmEnableSmartRecordingParams@proto@sdk@electron@com@@UEBA_KXZ 0000000180018460 f   electron_sdk.pb.obj
 0001:00017460       ?ByteSizeLong@AgreeAICompanionFeatureSwitchParams@proto@sdk@electron@com@@UEBA_KXZ 0000000180018460 f   electron_sdk.pb.obj
 0001:00017460       ?ByteSizeLong@AgreeToEnableAndStartSmartRecordingParams@proto@sdk@electron@com@@UEBA_KXZ 0000000180018460 f   electron_sdk.pb.obj
 0001:00017460       ?ByteSizeLong@AllowParticipantsToRequestCloudRecordingParams@proto@sdk@electron@com@@UEBA_KXZ 0000000180018460 f   electron_sdk.pb.obj
 0001:00017460       ?ByteSizeLong@AlwaysShowIconOnTaskBarParams@proto@sdk@electron@com@@UEBA_KXZ 0000000180018460 f   electron_sdk.pb.obj
 0001:00017460       ?ByteSizeLong@DeclineEnableAndStartSmartRecordingParams@proto@sdk@electron@com@@UEBA_KXZ 0000000180018460 f   electron_sdk.pb.obj
 0001:00017460       ?ByteSizeLong@DeclineEnableParams@proto@sdk@electron@com@@UEBA_KXZ 0000000180018460 f   electron_sdk.pb.obj
 0001:00017460       ?ByteSizeLong@DeclineSendQueryParams@proto@sdk@electron@com@@UEBA_KXZ 0000000180018460 f   electron_sdk.pb.obj
 0001:00017460       ?ByteSizeLong@DenyRequestStartCloudRecordingParams@proto@sdk@electron@com@@UEBA_KXZ 0000000180018460 f   electron_sdk.pb.obj
 0001:00017460       ?ByteSizeLong@DisableAccountSettingTabPageParams@proto@sdk@electron@com@@UEBA_KXZ 0000000180018460 f   electron_sdk.pb.obj
 0001:00017460       ?ByteSizeLong@DisableAdvancedFeatures4GeneralSettingParams@proto@sdk@electron@com@@UEBA_KXZ 0000000180018460 f   electron_sdk.pb.obj
 0001:00017460       ?ByteSizeLong@DisableAutoShowSelectJoinAudioDlgWhenJoinMeetingParams@proto@sdk@electron@com@@UEBA_KXZ 0000000180018460 f   electron_sdk.pb.obj
 0001:00017460       ?ByteSizeLong@DisableFreeMeetingRemainTimeNotifyParams@proto@sdk@electron@com@@UEBA_KXZ 0000000180018460 f   electron_sdk.pb.obj
 0001:00017460       ?ByteSizeLong@DisablePopupMeetingWrongPSWDlgParams@proto@sdk@electron@com@@UEBA_KXZ 0000000180018460 f   electron_sdk.pb.obj
 0001:00017460       ?ByteSizeLong@DisableShowJoinMeetingWndParams@proto@sdk@electron@com@@UEBA_KXZ 0000000180018460 f   electron_sdk.pb.obj
 0001:00017460       ?ByteSizeLong@DisableSplitScreenModeUIElementsParams@proto@sdk@electron@com@@UEBA_KXZ 0000000180018460 f   electron_sdk.pb.obj
 0001:00017460       ?ByteSizeLong@DisableToolbarInviteButtonClickOriginActionParams@proto@sdk@electron@com@@UEBA_KXZ 0000000180018460 f   electron_sdk.pb.obj
 0001:00017460       ?ByteSizeLong@DisableTopMostAttr4SettingDialogParams@proto@sdk@electron@com@@UEBA_KXZ 0000000180018460 f   electron_sdk.pb.obj
 0001:00017460       ?ByteSizeLong@DisableWaitingForHostDialogParams@proto@sdk@electron@com@@UEBA_KXZ 0000000180018460 f   electron_sdk.pb.obj
 0001:00017460       ?ByteSizeLong@Enable49VideoesInGallaryViewParams@proto@sdk@electron@com@@UEBA_KXZ 0000000180018460 f   electron_sdk.pb.obj
 0001:00017460       ?ByteSizeLong@EnableAccelerateGPUWhenShareParams@proto@sdk@electron@com@@UEBA_KXZ 0000000180018460 f   electron_sdk.pb.obj
 0001:00017460       ?ByteSizeLong@EnableAddTimestampWatermarkParams@proto@sdk@electron@com@@UEBA_KXZ 0000000180018460 f   electron_sdk.pb.obj
 0001:00017460       ?ByteSizeLong@EnableAirplayInstructionWindowParams@proto@sdk@electron@com@@UEBA_KXZ 0000000180018460 f   electron_sdk.pb.obj
 0001:00017460       ?ByteSizeLong@EnableAlwaysMuteMicWhenJoinVoipParams@proto@sdk@electron@com@@UEBA_KXZ 0000000180018460 f   electron_sdk.pb.obj
 0001:00017460       ?ByteSizeLong@EnableAlwaysShowMeetingControlsParams@proto@sdk@electron@com@@UEBA_KXZ 0000000180018460 f   electron_sdk.pb.obj
 0001:00017460       ?ByteSizeLong@EnableAlwaysShowNameOnVideoParams@proto@sdk@electron@com@@UEBA_KXZ 0000000180018460 f   electron_sdk.pb.obj
 0001:00017460       ?ByteSizeLong@EnableApproveRemoteControlDlgParams@proto@sdk@electron@com@@UEBA_KXZ 0000000180018460 f   electron_sdk.pb.obj
 0001:00017460       ?ByteSizeLong@EnableAudioButtonOnMeetingUIParams@proto@sdk@electron@com@@UEBA_KXZ 0000000180018460 f   electron_sdk.pb.obj
 0001:00017460       ?ByteSizeLong@EnableAutoAdjustMicParams@proto@sdk@electron@com@@UEBA_KXZ 0000000180018460 f   electron_sdk.pb.obj
 0001:00017460       ?ByteSizeLong@EnableAutoAdjustMicVolumeWhenJoinAudioParams@proto@sdk@electron@com@@UEBA_KXZ 0000000180018460 f   electron_sdk.pb.obj
 0001:00017460       ?ByteSizeLong@EnableAutoAdjustSpeakerVolumeWhenJoinAudioParams@proto@sdk@electron@com@@UEBA_KXZ 0000000180018460 f   electron_sdk.pb.obj
 0001:00017460       ?ByteSizeLong@EnableAutoEndOtherMeetingWhenStartMeetingParams@proto@sdk@electron@com@@UEBA_KXZ 0000000180018460 f   electron_sdk.pb.obj
 0001:00017460       ?ByteSizeLong@EnableAutoFitToWindowWhenViewSharingParams@proto@sdk@electron@com@@UEBA_KXZ 0000000180018460 f   electron_sdk.pb.obj
 0001:00017460       ?ByteSizeLong@EnableAutoFullScreenVideoWhenJoinMeetingParams@proto@sdk@electron@com@@UEBA_KXZ 0000000180018460 f   electron_sdk.pb.obj
 0001:00017460       ?ByteSizeLong@EnableAutoFullScreenVideoWhenViewShareParams@proto@sdk@electron@com@@UEBA_KXZ 0000000180018460 f   electron_sdk.pb.obj
 0001:00017460       ?ByteSizeLong@EnableAutoHideJoinAudioDialogParams@proto@sdk@electron@com@@UEBA_KXZ 0000000180018460 f   electron_sdk.pb.obj
 0001:00017460       ?ByteSizeLong@EnableAutoJoinAudioParams@proto@sdk@electron@com@@UEBA_KXZ 0000000180018460 f   electron_sdk.pb.obj
 0001:00017460       ?ByteSizeLong@EnableAutoTurnOffVideoWhenJoinMeetingParams@proto@sdk@electron@com@@UEBA_KXZ 0000000180018460 f   electron_sdk.pb.obj
 0001:00017460       ?ByteSizeLong@EnableClaimHostFeatureParams@proto@sdk@electron@com@@UEBA_KXZ 0000000180018460 f   electron_sdk.pb.obj
 0001:00017460       ?ByteSizeLong@EnableDeclineRemoteControlResponseDlgParams@proto@sdk@electron@com@@UEBA_KXZ 0000000180018460 f   electron_sdk.pb.obj
 0001:00017460       ?ByteSizeLong@EnableDisplayReminderWindowWhenExitParams@proto@sdk@electron@com@@UEBA_KXZ 0000000180018460 f   electron_sdk.pb.obj
 0001:00017460       ?ByteSizeLong@EnableDualScreenModeParams@proto@sdk@electron@com@@UEBA_KXZ 0000000180018460 f   electron_sdk.pb.obj
 0001:00017460       ?ByteSizeLong@EnableEnterAndExitFullScreenButtonOnMeetingUIParams@proto@sdk@electron@com@@UEBA_KXZ 0000000180018460 f   electron_sdk.pb.obj
 0001:00017460       ?ByteSizeLong@EnableFaceBeautyEffectParams@proto@sdk@electron@com@@UEBA_KXZ 0000000180018460 f   electron_sdk.pb.obj
 0001:00017460       ?ByteSizeLong@EnableForceAutoStartMyVideoWhenJoinMeetingParams@proto@sdk@electron@com@@UEBA_KXZ 0000000180018460 f   electron_sdk.pb.obj
 0001:00017460       ?ByteSizeLong@EnableForceAutoStopMyVideoWhenJoinMeetingParams@proto@sdk@electron@com@@UEBA_KXZ 0000000180018460 f   electron_sdk.pb.obj
 0001:00017460       ?ByteSizeLong@EnableGrabShareWithoutReminderParams@proto@sdk@electron@com@@UEBA_KXZ 0000000180018460 f   electron_sdk.pb.obj
 0001:00017460       ?ByteSizeLong@EnableHDVideoParams@proto@sdk@electron@com@@UEBA_KXZ 0000000180018460 f   electron_sdk.pb.obj
 0001:00017460       ?ByteSizeLong@EnableHIdeFullPhoneNumber4PureCallinUserParams@proto@sdk@electron@com@@UEBA_KXZ 0000000180018460 f   electron_sdk.pb.obj
 0001:00017460       ?ByteSizeLong@EnableHideNoVideoUsersOnWallViewParams@proto@sdk@electron@com@@UEBA_KXZ 0000000180018460 f   electron_sdk.pb.obj
 0001:00017460       ?ByteSizeLong@EnableHoldSpaceKeyToSpeakParams@proto@sdk@electron@com@@UEBA_KXZ 0000000180018460 f   electron_sdk.pb.obj
 0001:00017460       ?ByteSizeLong@EnableInputMeetingPasswordDlgParams@proto@sdk@electron@com@@UEBA_KXZ 0000000180018460 f   electron_sdk.pb.obj
 0001:00017460       ?ByteSizeLong@EnableInputMeetingScreenNameDlgParams@proto@sdk@electron@com@@UEBA_KXZ 0000000180018460 f   electron_sdk.pb.obj
 0001:00017460       ?ByteSizeLong@EnableInviteButtonOnMeetingUIParams@proto@sdk@electron@com@@UEBA_KXZ 0000000180018460 f   electron_sdk.pb.obj
 0001:00017460       ?ByteSizeLong@EnableInviteLinkOnMeetingUIParams@proto@sdk@electron@com@@UEBA_KXZ 0000000180018460 f   electron_sdk.pb.obj
 0001:00017460       ?ByteSizeLong@EnableLButtonDBClick4SwitchFullScreenModeParams@proto@sdk@electron@com@@UEBA_KXZ 0000000180018460 f   electron_sdk.pb.obj
 0001:00017460       ?ByteSizeLong@EnableLeaveMeetingOptionForHostParams@proto@sdk@electron@com@@UEBA_KXZ 0000000180018460 f   electron_sdk.pb.obj
 0001:00017460       ?ByteSizeLong@EnableLengthLimitationOfMeetingNumberParams@proto@sdk@electron@com@@UEBA_KXZ 0000000180018460 f   electron_sdk.pb.obj
 0001:00017460       ?ByteSizeLong@EnableLiveStreamReminderParams@proto@sdk@electron@com@@UEBA_KXZ 0000000180018460 f   electron_sdk.pb.obj
 0001:00017460       ?ByteSizeLong@EnableLocalRecordingConverProgressBarDialogParams@proto@sdk@electron@com@@UEBA_KXZ 0000000180018460 f   electron_sdk.pb.obj
 0001:00017460       ?ByteSizeLong@EnableMicOriginalInputParams@proto@sdk@electron@com@@UEBA_KXZ 0000000180018460 f   electron_sdk.pb.obj
 0001:00017460       ?ByteSizeLong@EnableMultiAudioStreamRecordParams@proto@sdk@electron@com@@UEBA_KXZ 0000000180018460 f   electron_sdk.pb.obj
 0001:00017460       ?ByteSizeLong@EnableOptimizeFor3rdPartyVideoEditorParams@proto@sdk@electron@com@@UEBA_KXZ 0000000180018460 f   electron_sdk.pb.obj
 0001:00017460       ?ByteSizeLong@EnableParticipantsCreateWithoutHostParams@proto@sdk@electron@com@@UEBA_KXZ 0000000180018460 f   electron_sdk.pb.obj
 0001:00017460       ?ByteSizeLong@EnablePlaceVideoNextToShareInRecordParams@proto@sdk@electron@com@@UEBA_KXZ 0000000180018460 f   electron_sdk.pb.obj
 0001:00017460       ?ByteSizeLong@EnablePlayChimeWhenEnterOrExitParams@proto@sdk@electron@com@@UEBA_KXZ 0000000180018460 f   electron_sdk.pb.obj
 0001:00017460       ?ByteSizeLong@EnablePlayMeetingAudioParams@proto@sdk@electron@com@@UEBA_KXZ 0000000180018460 f   electron_sdk.pb.obj
 0001:00017460       ?ByteSizeLong@EnableRemoteControlAllApplicationsParams@proto@sdk@electron@com@@UEBA_KXZ 0000000180018460 f   electron_sdk.pb.obj
 0001:00017460       ?ByteSizeLong@EnableSelectRecordFileLocationAfterMeetingParams@proto@sdk@electron@com@@UEBA_KXZ 0000000180018460 f   electron_sdk.pb.obj
 0001:00017460       ?ByteSizeLong@EnableShareIOSDeviceParams@proto@sdk@electron@com@@UEBA_KXZ 0000000180018460 f   electron_sdk.pb.obj
 0001:00017460       ?ByteSizeLong@EnableShareWhiteBoardParams@proto@sdk@electron@com@@UEBA_KXZ 0000000180018460 f   electron_sdk.pb.obj
 0001:00017460       ?ByteSizeLong@EnableShowMyMeetingElapseTimeParams@proto@sdk@electron@com@@UEBA_KXZ 0000000180018460 f   electron_sdk.pb.obj
 0001:00017460       ?ByteSizeLong@EnableShowShareSwitchMultiToSingleConfirmDlgParams@proto@sdk@electron@com@@UEBA_KXZ 0000000180018460 f   electron_sdk.pb.obj
 0001:00017460       ?ByteSizeLong@EnableShowVideoThumbnailWhenShareParams@proto@sdk@electron@com@@UEBA_KXZ 0000000180018460 f   electron_sdk.pb.obj
 0001:00017460       ?ByteSizeLong@EnableSplitScreenModeParams@proto@sdk@electron@com@@UEBA_KXZ 0000000180018460 f   electron_sdk.pb.obj
 0001:00017460       ?ByteSizeLong@EnableSpotlightSelfParams@proto@sdk@electron@com@@UEBA_KXZ 0000000180018460 f   electron_sdk.pb.obj
 0001:00017460       ?ByteSizeLong@EnableStereoAudioParams@proto@sdk@electron@com@@UEBA_KXZ 0000000180018460 f   electron_sdk.pb.obj
 0001:00017460       ?ByteSizeLong@EnableSuppressAudioNotifyParams@proto@sdk@electron@com@@UEBA_KXZ 0000000180018460 f   electron_sdk.pb.obj
 0001:00017460       ?ByteSizeLong@EnableToolTipsShowParams@proto@sdk@electron@com@@UEBA_KXZ 0000000180018460 f   electron_sdk.pb.obj
 0001:00017460       ?ByteSizeLong@EnableVideoButtonOnMeetingUIParams@proto@sdk@electron@com@@UEBA_KXZ 0000000180018460 f   electron_sdk.pb.obj
 0001:00017460       ?ByteSizeLong@EnableVideoMirrorEffectParams@proto@sdk@electron@com@@UEBA_KXZ 0000000180018460 f   electron_sdk.pb.obj
 0001:00017460       ?ByteSizeLong@EnableVideoPreviewDialogParams@proto@sdk@electron@com@@UEBA_KXZ 0000000180018460 f   electron_sdk.pb.obj
 0001:00017460       ?ByteSizeLong@EnableWaitingRoomOnEntryParams@proto@sdk@electron@com@@UEBA_KXZ 0000000180018460 f   electron_sdk.pb.obj
 0001:00017460       ?ByteSizeLong@EnableZoomAuthRealNameMeetingUIShownParams@proto@sdk@electron@com@@UEBA_KXZ 0000000180018460 f   electron_sdk.pb.obj
 0001:00017460       ?ByteSizeLong@EnableZoomDocsParams@proto@sdk@electron@com@@UEBA_KXZ 0000000180018460 f   electron_sdk.pb.obj
 0001:00017460       ?ByteSizeLong@ForceDisableMultiShareParams@proto@sdk@electron@com@@UEBA_KXZ 0000000180018460 f   electron_sdk.pb.obj
 0001:00017460       ?ByteSizeLong@HideAutoCopyInviteLinkCheckBoxParams@proto@sdk@electron@com@@UEBA_KXZ 0000000180018460 f   electron_sdk.pb.obj
 0001:00017460       ?ByteSizeLong@HideChatItemOnMeetingUIParams@proto@sdk@electron@com@@UEBA_KXZ 0000000180018460 f   electron_sdk.pb.obj
 0001:00017460       ?ByteSizeLong@HideCopyInvitationOnInviteWindowParams@proto@sdk@electron@com@@UEBA_KXZ 0000000180018460 f   electron_sdk.pb.obj
 0001:00017460       ?ByteSizeLong@HideCopyUrlOnInviteWindowParams@proto@sdk@electron@com@@UEBA_KXZ 0000000180018460 f   electron_sdk.pb.obj
 0001:00017460       ?ByteSizeLong@HideKeypadButtonOnMeetingWindowParams@proto@sdk@electron@com@@UEBA_KXZ 0000000180018460 f   electron_sdk.pb.obj
 0001:00017460       ?ByteSizeLong@HideOrShowNoVideoUserOnVideoWallParams@proto@sdk@electron@com@@UEBA_KXZ 0000000180018460 f   electron_sdk.pb.obj
 0001:00017460       ?ByteSizeLong@HidePollOnMeetingUIParams@proto@sdk@electron@com@@UEBA_KXZ 0000000180018460 f   electron_sdk.pb.obj
 0001:00017460       ?ByteSizeLong@HideQAOnMeetingUIParams@proto@sdk@electron@com@@UEBA_KXZ 0000000180018460 f   electron_sdk.pb.obj
 0001:00017460       ?ByteSizeLong@HideRecordItemOnMeetingUIParams@proto@sdk@electron@com@@UEBA_KXZ 0000000180018460 f   electron_sdk.pb.obj
 0001:00017460       ?ByteSizeLong@HideRemoteControlOnMeetingUIParams@proto@sdk@electron@com@@UEBA_KXZ 0000000180018460 f   electron_sdk.pb.obj
 0001:00017460       ?ByteSizeLong@HideSwitchCameraButtonParams@proto@sdk@electron@com@@UEBA_KXZ 0000000180018460 f   electron_sdk.pb.obj
 0001:00017460       ?ByteSizeLong@HideUpgradeFreeMeetingButtonParams@proto@sdk@electron@com@@UEBA_KXZ 0000000180018460 f   electron_sdk.pb.obj
 0001:00017460       ?ByteSizeLong@JoinWithArchiveParams@proto@sdk@electron@com@@UEBA_KXZ 0000000180018460 f   electron_sdk.pb.obj
 0001:00017460       ?ByteSizeLong@LeaveMeetingParams@proto@sdk@electron@com@@UEBA_KXZ 0000000180018460 f   electron_sdk.pb.obj
 0001:00017460       ?ByteSizeLong@RedirectClickAudioBTNEventParams@proto@sdk@electron@com@@UEBA_KXZ 0000000180018460 f   electron_sdk.pb.obj
 0001:00017460       ?ByteSizeLong@RedirectClickAudioMenuBTNEventParams@proto@sdk@electron@com@@UEBA_KXZ 0000000180018460 f   electron_sdk.pb.obj
 0001:00017460       ?ByteSizeLong@RedirectClickCCBTNEventParams@proto@sdk@electron@com@@UEBA_KXZ 0000000180018460 f   electron_sdk.pb.obj
 0001:00017460       ?ByteSizeLong@RedirectClickCustomLiveStreamMenuEventParams@proto@sdk@electron@com@@UEBA_KXZ 0000000180018460 f   electron_sdk.pb.obj
 0001:00017460       ?ByteSizeLong@RedirectClickEndMeetingBTNEventParams@proto@sdk@electron@com@@UEBA_KXZ 0000000180018460 f   electron_sdk.pb.obj
 0001:00017460       ?ByteSizeLong@RedirectClickParticipantListBTNEventParams@proto@sdk@electron@com@@UEBA_KXZ 0000000180018460 f   electron_sdk.pb.obj
 0001:00017460       ?ByteSizeLong@RedirectClickShareBTNEventParams@proto@sdk@electron@com@@UEBA_KXZ 0000000180018460 f   electron_sdk.pb.obj
 0001:00017460       ?ByteSizeLong@RedirectConfirmStartArchiveDialogParams@proto@sdk@electron@com@@UEBA_KXZ 0000000180018460 f   electron_sdk.pb.obj
 0001:00017460       ?ByteSizeLong@RedirectEndOtherMeetingParams@proto@sdk@electron@com@@UEBA_KXZ 0000000180018460 f   electron_sdk.pb.obj
 0001:00017460       ?ByteSizeLong@RedirectFreeMeetingEndingReminderDlgParams@proto@sdk@electron@com@@UEBA_KXZ 0000000180018460 f   electron_sdk.pb.obj
 0001:00017460       ?ByteSizeLong@RedirectMeetingInputUserInfoDialogParams@proto@sdk@electron@com@@UEBA_KXZ 0000000180018460 f   electron_sdk.pb.obj
 0001:00017460       ?ByteSizeLong@RedirectWebinarNeedRegisterParams@proto@sdk@electron@com@@UEBA_KXZ 0000000180018460 f   electron_sdk.pb.obj
 0001:00017460       ?ByteSizeLong@SetBottomFloatToolBarWndVisibilityParams@proto@sdk@electron@com@@UEBA_KXZ 0000000180018460 f   electron_sdk.pb.obj
 0001:00017460       ?ByteSizeLong@SetFloatVideoWndVisibilityParams@proto@sdk@electron@com@@UEBA_KXZ 0000000180018460 f   electron_sdk.pb.obj
 0001:00017460       ?ByteSizeLong@SetSharingToolBarVisibilityParams@proto@sdk@electron@com@@UEBA_KXZ 0000000180018460 f   electron_sdk.pb.obj
 0001:00017460       ?ByteSizeLong@SetShowAudioUseComputerSoundChkboxParams@proto@sdk@electron@com@@UEBA_KXZ 0000000180018460 f   electron_sdk.pb.obj
 0001:00017460       ?ByteSizeLong@SetShowCallInTabParams@proto@sdk@electron@com@@UEBA_KXZ 0000000180018460 f   electron_sdk.pb.obj
 0001:00017460       ?ByteSizeLong@SetShowCallMeTabParams@proto@sdk@electron@com@@UEBA_KXZ 0000000180018460 f   electron_sdk.pb.obj
 0001:00017460       ?ByteSizeLong@SetShowVideoOptimizeChkboxParams@proto@sdk@electron@com@@UEBA_KXZ 0000000180018460 f   electron_sdk.pb.obj
 0001:00017460       ?ByteSizeLong@SetUsingGreenScreenParams@proto@sdk@electron@com@@UEBA_KXZ 0000000180018460 f   electron_sdk.pb.obj
 0001:00017460       ?ByteSizeLong@ShowBottomFloatToolbarWndParams@proto@sdk@electron@com@@UEBA_KXZ 0000000180018460 f   electron_sdk.pb.obj
 0001:00017460       ?ByteSizeLong@ShowParticipantsListWndParams@proto@sdk@electron@com@@UEBA_KXZ 0000000180018460 f   electron_sdk.pb.obj
 0001:00017460       ?ByteSizeLong@ShowPreOrNextPageVideoParams@proto@sdk@electron@com@@UEBA_KXZ 0000000180018460 f   electron_sdk.pb.obj
 0001:00017460       ?ByteSizeLong@ShowSharingFrameWindowsParams@proto@sdk@electron@com@@UEBA_KXZ 0000000180018460 f   electron_sdk.pb.obj
 0001:00017460       ?ByteSizeLong@ShowSharingToolbarParams@proto@sdk@electron@com@@UEBA_KXZ 0000000180018460 f   electron_sdk.pb.obj
 0001:00017460       ?ByteSizeLong@SwapToShowShareViewOrVideoParams@proto@sdk@electron@com@@UEBA_KXZ 0000000180018460 f   electron_sdk.pb.obj
 0001:00017460       ?ByteSizeLong@SwitchSplitScreenModeParams@proto@sdk@electron@com@@UEBA_KXZ 0000000180018460 f   electron_sdk.pb.obj
 0001:00017460       ?ByteSizeLong@TurnOffAeroModeInSharingParams@proto@sdk@electron@com@@UEBA_KXZ 0000000180018460 f   electron_sdk.pb.obj
 0001:00017460       ?ByteSizeLong@TurnOffAllAICompanionsParams@proto@sdk@electron@com@@UEBA_KXZ 0000000180018460 f   electron_sdk.pb.obj
 0001:00017490       ?CheckTypeAndMergeFrom@LeaveMeetingParams@proto@sdk@electron@com@@UEAAXAEBVMessageLite@protobuf@google@@@Z 0000000180018490 f   electron_sdk.pb.obj
 0001:000174a0       ?MergeFrom@LeaveMeetingParams@proto@sdk@electron@com@@QEAAXAEBV12345@@Z 00000001800184a0 f   electron_sdk.pb.obj
 0001:00017550       ?GetTypeName@LeaveMeetingParams@proto@sdk@electron@com@@UEBA?AV?$basic_string@DU?$char_traits@D@std@@V?$allocator@D@2@@std@@XZ 0000000180018550 f   electron_sdk.pb.obj
 0001:00017580       ?CheckTypeAndMergeFrom@SetMeetingTopicParam@proto@sdk@electron@com@@UEAAXAEBVMessageLite@protobuf@google@@@Z 0000000180018580 f   electron_sdk.pb.obj
 0001:00017590       ?MergeFrom@SetMeetingTopicParam@proto@sdk@electron@com@@QEAAXAEBV12345@@Z 0000000180018590 f   electron_sdk.pb.obj
 0001:00017660       ?GetTypeName@SetMeetingTopicParam@proto@sdk@electron@com@@UEBA?AV?$basic_string@DU?$char_traits@D@std@@V?$allocator@D@2@@std@@XZ 0000000180018660 f   electron_sdk.pb.obj
 0001:00017690       ?CheckTypeAndMergeFrom@HandleZoomWebUriProtocolActionParams@proto@sdk@electron@com@@UEAAXAEBVMessageLite@protobuf@google@@@Z 0000000180018690 f   electron_sdk.pb.obj
 0001:000176a0       ?MergeFrom@HandleZoomWebUriProtocolActionParams@proto@sdk@electron@com@@QEAAXAEBV12345@@Z 00000001800186a0 f   electron_sdk.pb.obj
 0001:00017770       ?GetTypeName@HandleZoomWebUriProtocolActionParams@proto@sdk@electron@com@@UEBA?AV?$basic_string@DU?$char_traits@D@std@@V?$allocator@D@2@@std@@XZ 0000000180018770 f   electron_sdk.pb.obj
 0001:000177a0       ?Clear@ShowChatDlgParams@proto@sdk@electron@com@@UEAAXXZ 00000001800187a0 f   electron_sdk.pb.obj
 0001:00017870       ?_InternalParse@ShowChatDlgParams@proto@sdk@electron@com@@UEAAPEBDPEBDPEAVParseContext@internal@protobuf@google@@@Z 0000000180018870 f   electron_sdk.pb.obj
 0001:00017a20       ?_InternalSerialize@ShowChatDlgParams@proto@sdk@electron@com@@UEBAPEAEPEAEPEAVEpsCopyOutputStream@io@protobuf@google@@@Z 0000000180018a20 f   electron_sdk.pb.obj
 0001:00017b60       ?ByteSizeLong@ShowChatDlgParams@proto@sdk@electron@com@@UEBA_KXZ 0000000180018b60 f   electron_sdk.pb.obj
 0001:00017d10       ?CheckTypeAndMergeFrom@ShowChatDlgParams@proto@sdk@electron@com@@UEAAXAEBVMessageLite@protobuf@google@@@Z 0000000180018d10 f   electron_sdk.pb.obj
 0001:00017d20       ?MergeFrom@ShowChatDlgParams@proto@sdk@electron@com@@QEAAXAEBV12345@@Z 0000000180018d20 f   electron_sdk.pb.obj
 0001:00017ec0       ?GetTypeName@ShowChatDlgParams@proto@sdk@electron@com@@UEBA?AV?$basic_string@DU?$char_traits@D@std@@V?$allocator@D@2@@std@@XZ 0000000180018ec0 f   electron_sdk.pb.obj
 0001:00017ef0       ?Clear@EnableMuteOnEntryParams@proto@sdk@electron@com@@UEAAXXZ 0000000180018ef0 f   electron_sdk.pb.obj
 0001:00017ef0       ?Clear@EnterFullScreenParams@proto@sdk@electron@com@@UEAAXXZ 0000000180018ef0 f   electron_sdk.pb.obj
 0001:00017ef0       ?Clear@ExitFullScreenParams@proto@sdk@electron@com@@UEAAXXZ 0000000180018ef0 f   electron_sdk.pb.obj
 0001:00017ef0       ?Clear@RedirectMeetingWarningMsgParams@proto@sdk@electron@com@@UEAAXXZ 0000000180018ef0 f   electron_sdk.pb.obj
 0001:00017f10       ?_InternalParse@EnableMuteOnEntryParams@proto@sdk@electron@com@@UEAAPEBDPEBDPEAVParseContext@internal@protobuf@google@@@Z 0000000180018f10 f   electron_sdk.pb.obj
 0001:00017f10       ?_InternalParse@EnterFullScreenParams@proto@sdk@electron@com@@UEAAPEBDPEBDPEAVParseContext@internal@protobuf@google@@@Z 0000000180018f10 f   electron_sdk.pb.obj
 0001:00017f10       ?_InternalParse@ExitFullScreenParams@proto@sdk@electron@com@@UEAAPEBDPEBDPEAVParseContext@internal@protobuf@google@@@Z 0000000180018f10 f   electron_sdk.pb.obj
 0001:00017f10       ?_InternalParse@RedirectMeetingWarningMsgParams@proto@sdk@electron@com@@UEAAPEBDPEBDPEAVParseContext@internal@protobuf@google@@@Z 0000000180018f10 f   electron_sdk.pb.obj
 0001:000180c0       ?_InternalSerialize@EnableMuteOnEntryParams@proto@sdk@electron@com@@UEBAPEAEPEAEPEAVEpsCopyOutputStream@io@protobuf@google@@@Z 00000001800190c0 f   electron_sdk.pb.obj
 0001:000180c0       ?_InternalSerialize@EnterFullScreenParams@proto@sdk@electron@com@@UEBAPEAEPEAEPEAVEpsCopyOutputStream@io@protobuf@google@@@Z 00000001800190c0 f   electron_sdk.pb.obj
 0001:000180c0       ?_InternalSerialize@ExitFullScreenParams@proto@sdk@electron@com@@UEBAPEAEPEAEPEAVEpsCopyOutputStream@io@protobuf@google@@@Z 00000001800190c0 f   electron_sdk.pb.obj
 0001:000180c0       ?_InternalSerialize@RedirectMeetingWarningMsgParams@proto@sdk@electron@com@@UEBAPEAEPEAEPEAVEpsCopyOutputStream@io@protobuf@google@@@Z 00000001800190c0 f   electron_sdk.pb.obj
 0001:000181b0       ?ByteSizeLong@EnableMuteOnEntryParams@proto@sdk@electron@com@@UEBA_KXZ 00000001800191b0 f   electron_sdk.pb.obj
 0001:000181b0       ?ByteSizeLong@EnterFullScreenParams@proto@sdk@electron@com@@UEBA_KXZ 00000001800191b0 f   electron_sdk.pb.obj
 0001:000181b0       ?ByteSizeLong@ExitFullScreenParams@proto@sdk@electron@com@@UEBA_KXZ 00000001800191b0 f   electron_sdk.pb.obj
 0001:000181b0       ?ByteSizeLong@RedirectMeetingWarningMsgParams@proto@sdk@electron@com@@UEBA_KXZ 00000001800191b0 f   electron_sdk.pb.obj
 0001:000181f0       ?CheckTypeAndMergeFrom@EnterFullScreenParams@proto@sdk@electron@com@@UEAAXAEBVMessageLite@protobuf@google@@@Z 00000001800191f0 f   electron_sdk.pb.obj
 0001:00018200       ?MergeFrom@EnterFullScreenParams@proto@sdk@electron@com@@QEAAXAEBV12345@@Z 0000000180019200 f   electron_sdk.pb.obj
 0001:000182c0       ?GetTypeName@EnterFullScreenParams@proto@sdk@electron@com@@UEBA?AV?$basic_string@DU?$char_traits@D@std@@V?$allocator@D@2@@std@@XZ 00000001800192c0 f   electron_sdk.pb.obj
 0001:000182f0       ?CheckTypeAndMergeFrom@ExitFullScreenParams@proto@sdk@electron@com@@UEAAXAEBVMessageLite@protobuf@google@@@Z 00000001800192f0 f   electron_sdk.pb.obj
 0001:00018300       ?MergeFrom@ExitFullScreenParams@proto@sdk@electron@com@@QEAAXAEBV12345@@Z 0000000180019300 f   electron_sdk.pb.obj
 0001:000183c0       ?GetTypeName@ExitFullScreenParams@proto@sdk@electron@com@@UEBA?AV?$basic_string@DU?$char_traits@D@std@@V?$allocator@D@2@@std@@XZ 00000001800193c0 f   electron_sdk.pb.obj
 0001:000183f0       ?Clear@AddCustomizedPictureResourceParams@proto@sdk@electron@com@@UEAAXXZ 00000001800193f0 f   electron_sdk.pb.obj
 0001:000183f0       ?Clear@AnswerQuestionParams@proto@sdk@electron@com@@UEAAXXZ 00000001800193f0 f   electron_sdk.pb.obj
 0001:000183f0       ?Clear@InputMeetingIDAndScreenNameParams@proto@sdk@electron@com@@UEAAXXZ 00000001800193f0 f   electron_sdk.pb.obj
 0001:000183f0       ?Clear@InputMeetingPasswordAndScreenNameParams@proto@sdk@electron@com@@UEAAXXZ 00000001800193f0 f   electron_sdk.pb.obj
 0001:000183f0       ?Clear@InputUserInfoParams@proto@sdk@electron@com@@UEAAXXZ 00000001800193f0 f   electron_sdk.pb.obj
 0001:000183f0       ?Clear@InputWebinarRegisterEmailAndScreenNameParams@proto@sdk@electron@com@@UEAAXXZ 00000001800193f0 f   electron_sdk.pb.obj
 0001:000183f0       ?Clear@MoveFloatVideoWndParams@proto@sdk@electron@com@@UEAAXXZ 00000001800193f0 f   electron_sdk.pb.obj
 0001:000183f0       ?Clear@PrePopulateWebinarRegistrationInfoParams@proto@sdk@electron@com@@UEAAXXZ 00000001800193f0 f   electron_sdk.pb.obj
 0001:000183f0       ?Clear@QuestionCaseSensitiveParams@proto@sdk@electron@com@@UEAAXXZ 00000001800193f0 f   electron_sdk.pb.obj
 0001:000183f0       ?Clear@QuestionImagePathParams@proto@sdk@electron@com@@UEAAXXZ 00000001800193f0 f   electron_sdk.pb.obj
 0001:000183f0       ?Clear@RetrieveParams@proto@sdk@electron@com@@UEAAXXZ 00000001800193f0 f   electron_sdk.pb.obj
 0001:000183f0       ?Clear@SelectMicParams@proto@sdk@electron@com@@UEAAXXZ 00000001800193f0 f   electron_sdk.pb.obj
 0001:000183f0       ?Clear@SelectSpeakerParams@proto@sdk@electron@com@@UEAAXXZ 00000001800193f0 f   electron_sdk.pb.obj
 0001:000183f0       ?Clear@SetDefaultCellPhoneInfoParams@proto@sdk@electron@com@@UEAAXXZ 00000001800193f0 f   electron_sdk.pb.obj
 0001:00018450       ?_InternalParse@AddCustomizedPictureResourceParams@proto@sdk@electron@com@@UEAAPEBDPEBDPEAVParseContext@internal@protobuf@google@@@Z 0000000180019450 f   electron_sdk.pb.obj
 0001:00018450       ?_InternalParse@AnswerQuestionParams@proto@sdk@electron@com@@UEAAPEBDPEBDPEAVParseContext@internal@protobuf@google@@@Z 0000000180019450 f   electron_sdk.pb.obj
 0001:00018450       ?_InternalParse@InputMeetingIDAndScreenNameParams@proto@sdk@electron@com@@UEAAPEBDPEBDPEAVParseContext@internal@protobuf@google@@@Z 0000000180019450 f   electron_sdk.pb.obj
 0001:00018450       ?_InternalParse@InputMeetingPasswordAndScreenNameParams@proto@sdk@electron@com@@UEAAPEBDPEBDPEAVParseContext@internal@protobuf@google@@@Z 0000000180019450 f   electron_sdk.pb.obj
 0001:00018450       ?_InternalParse@InputUserInfoParams@proto@sdk@electron@com@@UEAAPEBDPEBDPEAVParseContext@internal@protobuf@google@@@Z 0000000180019450 f   electron_sdk.pb.obj
 0001:00018450       ?_InternalParse@InputWebinarRegisterEmailAndScreenNameParams@proto@sdk@electron@com@@UEAAPEBDPEBDPEAVParseContext@internal@protobuf@google@@@Z 0000000180019450 f   electron_sdk.pb.obj
 0001:00018450       ?_InternalParse@MoveFloatVideoWndParams@proto@sdk@electron@com@@UEAAPEBDPEBDPEAVParseContext@internal@protobuf@google@@@Z 0000000180019450 f   electron_sdk.pb.obj
 0001:00018450       ?_InternalParse@PrePopulateWebinarRegistrationInfoParams@proto@sdk@electron@com@@UEAAPEBDPEBDPEAVParseContext@internal@protobuf@google@@@Z 0000000180019450 f   electron_sdk.pb.obj
 0001:00018450       ?_InternalParse@QuestionCaseSensitiveParams@proto@sdk@electron@com@@UEAAPEBDPEBDPEAVParseContext@internal@protobuf@google@@@Z 0000000180019450 f   electron_sdk.pb.obj
 0001:00018450       ?_InternalParse@QuestionImagePathParams@proto@sdk@electron@com@@UEAAPEBDPEBDPEAVParseContext@internal@protobuf@google@@@Z 0000000180019450 f   electron_sdk.pb.obj
 0001:00018450       ?_InternalParse@RetrieveParams@proto@sdk@electron@com@@UEAAPEBDPEBDPEAVParseContext@internal@protobuf@google@@@Z 0000000180019450 f   electron_sdk.pb.obj
 0001:00018450       ?_InternalParse@SelectMicParams@proto@sdk@electron@com@@UEAAPEBDPEBDPEAVParseContext@internal@protobuf@google@@@Z 0000000180019450 f   electron_sdk.pb.obj
 0001:00018450       ?_InternalParse@SelectSpeakerParams@proto@sdk@electron@com@@UEAAPEBDPEBDPEAVParseContext@internal@protobuf@google@@@Z 0000000180019450 f   electron_sdk.pb.obj
 0001:00018450       ?_InternalParse@SetDefaultCellPhoneInfoParams@proto@sdk@electron@com@@UEAAPEBDPEBDPEAVParseContext@internal@protobuf@google@@@Z 0000000180019450 f   electron_sdk.pb.obj
 0001:000185c0       ?_InternalSerialize@AddCustomizedPictureResourceParams@proto@sdk@electron@com@@UEBAPEAEPEAEPEAVEpsCopyOutputStream@io@protobuf@google@@@Z 00000001800195c0 f   electron_sdk.pb.obj
 0001:000185c0       ?_InternalSerialize@AnswerQuestionParams@proto@sdk@electron@com@@UEBAPEAEPEAEPEAVEpsCopyOutputStream@io@protobuf@google@@@Z 00000001800195c0 f   electron_sdk.pb.obj
 0001:000185c0       ?_InternalSerialize@InputMeetingIDAndScreenNameParams@proto@sdk@electron@com@@UEBAPEAEPEAEPEAVEpsCopyOutputStream@io@protobuf@google@@@Z 00000001800195c0 f   electron_sdk.pb.obj
 0001:000185c0       ?_InternalSerialize@InputMeetingPasswordAndScreenNameParams@proto@sdk@electron@com@@UEBAPEAEPEAEPEAVEpsCopyOutputStream@io@protobuf@google@@@Z 00000001800195c0 f   electron_sdk.pb.obj
 0001:000185c0       ?_InternalSerialize@InputUserInfoParams@proto@sdk@electron@com@@UEBAPEAEPEAEPEAVEpsCopyOutputStream@io@protobuf@google@@@Z 00000001800195c0 f   electron_sdk.pb.obj
 0001:000185c0       ?_InternalSerialize@InputWebinarRegisterEmailAndScreenNameParams@proto@sdk@electron@com@@UEBAPEAEPEAEPEAVEpsCopyOutputStream@io@protobuf@google@@@Z 00000001800195c0 f   electron_sdk.pb.obj
 0001:000185c0       ?_InternalSerialize@MoveFloatVideoWndParams@proto@sdk@electron@com@@UEBAPEAEPEAEPEAVEpsCopyOutputStream@io@protobuf@google@@@Z 00000001800195c0 f   electron_sdk.pb.obj
 0001:000185c0       ?_InternalSerialize@PrePopulateWebinarRegistrationInfoParams@proto@sdk@electron@com@@UEBAPEAEPEAEPEAVEpsCopyOutputStream@io@protobuf@google@@@Z 00000001800195c0 f   electron_sdk.pb.obj
 0001:000185c0       ?_InternalSerialize@QuestionCaseSensitiveParams@proto@sdk@electron@com@@UEBAPEAEPEAEPEAVEpsCopyOutputStream@io@protobuf@google@@@Z 00000001800195c0 f   electron_sdk.pb.obj
 0001:000185c0       ?_InternalSerialize@QuestionImagePathParams@proto@sdk@electron@com@@UEBAPEAEPEAEPEAVEpsCopyOutputStream@io@protobuf@google@@@Z 00000001800195c0 f   electron_sdk.pb.obj
 0001:000185c0       ?_InternalSerialize@RetrieveParams@proto@sdk@electron@com@@UEBAPEAEPEAEPEAVEpsCopyOutputStream@io@protobuf@google@@@Z 00000001800195c0 f   electron_sdk.pb.obj
 0001:000185c0       ?_InternalSerialize@SelectMicParams@proto@sdk@electron@com@@UEBAPEAEPEAEPEAVEpsCopyOutputStream@io@protobuf@google@@@Z 00000001800195c0 f   electron_sdk.pb.obj
 0001:000185c0       ?_InternalSerialize@SelectSpeakerParams@proto@sdk@electron@com@@UEBAPEAEPEAEPEAVEpsCopyOutputStream@io@protobuf@google@@@Z 00000001800195c0 f   electron_sdk.pb.obj
 0001:000185c0       ?_InternalSerialize@SetDefaultCellPhoneInfoParams@proto@sdk@electron@com@@UEBAPEAEPEAEPEAVEpsCopyOutputStream@io@protobuf@google@@@Z 00000001800195c0 f   electron_sdk.pb.obj
 0001:00018690       ?ByteSizeLong@AddCustomizedPictureResourceParams@proto@sdk@electron@com@@UEBA_KXZ 0000000180019690 f   electron_sdk.pb.obj
 0001:00018690       ?ByteSizeLong@AnswerQuestionParams@proto@sdk@electron@com@@UEBA_KXZ 0000000180019690 f   electron_sdk.pb.obj
 0001:00018690       ?ByteSizeLong@InputMeetingIDAndScreenNameParams@proto@sdk@electron@com@@UEBA_KXZ 0000000180019690 f   electron_sdk.pb.obj
 0001:00018690       ?ByteSizeLong@InputMeetingPasswordAndScreenNameParams@proto@sdk@electron@com@@UEBA_KXZ 0000000180019690 f   electron_sdk.pb.obj
 0001:00018690       ?ByteSizeLong@InputUserInfoParams@proto@sdk@electron@com@@UEBA_KXZ 0000000180019690 f   electron_sdk.pb.obj
 0001:00018690       ?ByteSizeLong@InputWebinarRegisterEmailAndScreenNameParams@proto@sdk@electron@com@@UEBA_KXZ 0000000180019690 f   electron_sdk.pb.obj
 0001:00018690       ?ByteSizeLong@MoveFloatVideoWndParams@proto@sdk@electron@com@@UEBA_KXZ 0000000180019690 f   electron_sdk.pb.obj
 0001:00018690       ?ByteSizeLong@PrePopulateWebinarRegistrationInfoParams@proto@sdk@electron@com@@UEBA_KXZ 0000000180019690 f   electron_sdk.pb.obj
 0001:00018690       ?ByteSizeLong@QuestionCaseSensitiveParams@proto@sdk@electron@com@@UEBA_KXZ 0000000180019690 f   electron_sdk.pb.obj
 0001:00018690       ?ByteSizeLong@QuestionImagePathParams@proto@sdk@electron@com@@UEBA_KXZ 0000000180019690 f   electron_sdk.pb.obj
 0001:00018690       ?ByteSizeLong@RetrieveParams@proto@sdk@electron@com@@UEBA_KXZ 0000000180019690 f   electron_sdk.pb.obj
 0001:00018690       ?ByteSizeLong@SelectMicParams@proto@sdk@electron@com@@UEBA_KXZ 0000000180019690 f   electron_sdk.pb.obj
 0001:00018690       ?ByteSizeLong@SelectSpeakerParams@proto@sdk@electron@com@@UEBA_KXZ 0000000180019690 f   electron_sdk.pb.obj
 0001:00018690       ?ByteSizeLong@SetDefaultCellPhoneInfoParams@proto@sdk@electron@com@@UEBA_KXZ 0000000180019690 f   electron_sdk.pb.obj
 0001:00018760       ?CheckTypeAndMergeFrom@MoveFloatVideoWndParams@proto@sdk@electron@com@@UEAAXAEBVMessageLite@protobuf@google@@@Z 0000000180019760 f   electron_sdk.pb.obj
 0001:00018770       ?MergeFrom@MoveFloatVideoWndParams@proto@sdk@electron@com@@QEAAXAEBV12345@@Z 0000000180019770 f   electron_sdk.pb.obj
 0001:000188a0       ?GetTypeName@MoveFloatVideoWndParams@proto@sdk@electron@com@@UEBA?AV?$basic_string@DU?$char_traits@D@std@@V?$allocator@D@2@@std@@XZ 00000001800198a0 f   electron_sdk.pb.obj
 0001:000188d0       ?CheckTypeAndMergeFrom@ShowSharingToolbarParams@proto@sdk@electron@com@@UEAAXAEBVMessageLite@protobuf@google@@@Z 00000001800198d0 f   electron_sdk.pb.obj
 0001:000188e0       ?MergeFrom@ShowSharingToolbarParams@proto@sdk@electron@com@@QEAAXAEBV12345@@Z 00000001800198e0 f   electron_sdk.pb.obj
 0001:00018990       ?GetTypeName@ShowSharingToolbarParams@proto@sdk@electron@com@@UEBA?AV?$basic_string@DU?$char_traits@D@std@@V?$allocator@D@2@@std@@XZ 0000000180019990 f   electron_sdk.pb.obj
 0001:000189c0       ?Clear@AICompanionQueryFeedbackParams@proto@sdk@electron@com@@UEAAXXZ 00000001800199c0 f   electron_sdk.pb.obj
 0001:000189c0       ?Clear@AdmitToMeetingParams@proto@sdk@electron@com@@UEAAXXZ 00000001800199c0 f   electron_sdk.pb.obj
 0001:000189c0       ?Clear@AllowLocalRecordingParams@proto@sdk@electron@com@@UEAAXXZ 00000001800199c0 f   electron_sdk.pb.obj
 0001:000189c0       ?Clear@ChangeFloatToActiveSpkVideoSizeParams@proto@sdk@electron@com@@UEAAXXZ 00000001800199c0 f   electron_sdk.pb.obj
 0001:000189c0       ?Clear@ChangeQuerySettingsParams@proto@sdk@electron@com@@UEAAXXZ 00000001800199c0 f   electron_sdk.pb.obj
 0001:000189c0       ?Clear@DisAllowLocalRecordingParams@proto@sdk@electron@com@@UEAAXXZ 00000001800199c0 f   electron_sdk.pb.obj
 0001:000189c0       ?Clear@ExpelUserParams@proto@sdk@electron@com@@UEAAXXZ 00000001800199c0 f   electron_sdk.pb.obj
 0001:000189c0       ?Clear@GetAuthorizedBotListByUserIDParams@proto@sdk@electron@com@@UEAAXXZ 00000001800199c0 f   electron_sdk.pb.obj
 0001:000189c0       ?Clear@GetBotAuthorizedUserInfoByUserIDParams@proto@sdk@electron@com@@UEAAXXZ 00000001800199c0 f   electron_sdk.pb.obj
 0001:000189c0       ?Clear@GetDocsSharingSourceInfoListParams@proto@sdk@electron@com@@UEAAXXZ 00000001800199c0 f   electron_sdk.pb.obj
 0001:000189c0       ?Clear@GetUserInfoByUserIDParams@proto@sdk@electron@com@@UEAAXXZ 00000001800199c0 f   electron_sdk.pb.obj
 0001:000189c0       ?Clear@GetWaitingRoomUserInfoByIDParams@proto@sdk@electron@com@@UEAAXXZ 00000001800199c0 f   electron_sdk.pb.obj
 0001:000189c0       ?Clear@IsHardwareEncodeEnabledParams@proto@sdk@electron@com@@UEAAXXZ 00000001800199c0 f   electron_sdk.pb.obj
 0001:000189c0       ?Clear@IsSupportLocalRecordingParams@proto@sdk@electron@com@@UEAAXXZ 00000001800199c0 f   electron_sdk.pb.obj
 0001:000189c0       ?Clear@MuteVideoParams@proto@sdk@electron@com@@UEAAXXZ 00000001800199c0 f   electron_sdk.pb.obj
 0001:000189c0       ?Clear@PinVideoToFirstViewParams@proto@sdk@electron@com@@UEAAXXZ 00000001800199c0 f   electron_sdk.pb.obj
 0001:000189c0       ?Clear@PutInWaitingRoomParams@proto@sdk@electron@com@@UEAAXXZ 00000001800199c0 f   electron_sdk.pb.obj
 0001:000189c0       ?Clear@RedoParams@proto@sdk@electron@com@@UEAAXXZ 00000001800199c0 f   electron_sdk.pb.obj
 0001:000189c0       ?Clear@RemoveRawLiveStreamPrivilegeParams@proto@sdk@electron@com@@UEAAXXZ 00000001800199c0 f   electron_sdk.pb.obj
 0001:000189c0       ?Clear@SetAttendeeViewModeParams@proto@sdk@electron@com@@UEAAXXZ 00000001800199c0 f   electron_sdk.pb.obj
 0001:000189c0       ?Clear@SetAudioShareModeParams@proto@sdk@electron@com@@UEAAXXZ 00000001800199c0 f   electron_sdk.pb.obj
 0001:000189c0       ?Clear@SetDocsCreateOptionParams@proto@sdk@electron@com@@UEAAXXZ 00000001800199c0 f   electron_sdk.pb.obj
 0001:000189c0       ?Clear@SetDocsShareOptionParams@proto@sdk@electron@com@@UEAAXXZ 00000001800199c0 f   electron_sdk.pb.obj
 0001:000189c0       ?Clear@SetEchoCancellationLevelParams@proto@sdk@electron@com@@UEAAXXZ 00000001800199c0 f   electron_sdk.pb.obj
 0001:000189c0       ?Clear@SetEnableOptionParams@proto@sdk@electron@com@@UEAAXXZ 00000001800199c0 f   electron_sdk.pb.obj
 0001:000189c0       ?Clear@SetMaxDurationForOnlyHostInMeetingParams@proto@sdk@electron@com@@UEAAXXZ 00000001800199c0 f   electron_sdk.pb.obj
 0001:000189c0       ?Clear@SetMicVolParams@proto@sdk@electron@com@@UEAAXXZ 00000001800199c0 f   electron_sdk.pb.obj
 0001:000189c0       ?Clear@SetPanelistChatPrivilegeParams@proto@sdk@electron@com@@UEAAXXZ 00000001800199c0 f   electron_sdk.pb.obj
 0001:000189c0       ?Clear@SetParticipantsChatPrivilegeParams@proto@sdk@electron@com@@UEAAXXZ 00000001800199c0 f   electron_sdk.pb.obj
 0001:000189c0       ?Clear@SetSpeakerVolParams@proto@sdk@electron@com@@UEAAXXZ 00000001800199c0 f   electron_sdk.pb.obj
 0001:000189c0       ?Clear@SetWhiteboardCreateOptionParams@proto@sdk@electron@com@@UEAAXXZ 00000001800199c0 f   electron_sdk.pb.obj
 0001:000189c0       ?Clear@SetWhiteboardShareOptionParams@proto@sdk@electron@com@@UEAAXXZ 00000001800199c0 f   electron_sdk.pb.obj
 0001:000189c0       ?Clear@ShowDocsViewWindowParams@proto@sdk@electron@com@@UEAAXXZ 00000001800199c0 f   electron_sdk.pb.obj
 0001:000189c0       ?Clear@SpotlightVideoParams@proto@sdk@electron@com@@UEAAXXZ 00000001800199c0 f   electron_sdk.pb.obj
 0001:000189c0       ?Clear@StopAnnotationParams@proto@sdk@electron@com@@UEAAXXZ 00000001800199c0 f   electron_sdk.pb.obj
 0001:000189c0       ?Clear@SwitchMinimizeUIMode4FirstScreenMeetingUIWndParams@proto@sdk@electron@com@@UEAAXXZ 00000001800199c0 f   electron_sdk.pb.obj
 0001:000189c0       ?Clear@UnMuteVideoParams@proto@sdk@electron@com@@UEAAXXZ 00000001800199c0 f   electron_sdk.pb.obj
 0001:000189c0       ?Clear@UndoParams@proto@sdk@electron@com@@UEAAXXZ 00000001800199c0 f   electron_sdk.pb.obj
 0001:000189c0       ?Clear@UnmuteAudioParams@proto@sdk@electron@com@@UEAAXXZ 00000001800199c0 f   electron_sdk.pb.obj
 0001:000189c0       ?Clear@WebinarAttendeeParams@proto@sdk@electron@com@@UEAAXXZ 00000001800199c0 f   electron_sdk.pb.obj
 0001:000189e0       ?_InternalParse@AICompanionQueryFeedbackParams@proto@sdk@electron@com@@UEAAPEBDPEBDPEAVParseContext@internal@protobuf@google@@@Z 00000001800199e0 f   electron_sdk.pb.obj
 0001:000189e0       ?_InternalParse@AdmitToMeetingParams@proto@sdk@electron@com@@UEAAPEBDPEBDPEAVParseContext@internal@protobuf@google@@@Z 00000001800199e0 f   electron_sdk.pb.obj
 0001:000189e0       ?_InternalParse@AllowLocalRecordingParams@proto@sdk@electron@com@@UEAAPEBDPEBDPEAVParseContext@internal@protobuf@google@@@Z 00000001800199e0 f   electron_sdk.pb.obj
 0001:000189e0       ?_InternalParse@ChangeFloatToActiveSpkVideoSizeParams@proto@sdk@electron@com@@UEAAPEBDPEBDPEAVParseContext@internal@protobuf@google@@@Z 00000001800199e0 f   electron_sdk.pb.obj
 0001:000189e0       ?_InternalParse@ChangeQuerySettingsParams@proto@sdk@electron@com@@UEAAPEBDPEBDPEAVParseContext@internal@protobuf@google@@@Z 00000001800199e0 f   electron_sdk.pb.obj
 0001:000189e0       ?_InternalParse@DisAllowLocalRecordingParams@proto@sdk@electron@com@@UEAAPEBDPEBDPEAVParseContext@internal@protobuf@google@@@Z 00000001800199e0 f   electron_sdk.pb.obj
 0001:000189e0       ?_InternalParse@ExpelUserParams@proto@sdk@electron@com@@UEAAPEBDPEBDPEAVParseContext@internal@protobuf@google@@@Z 00000001800199e0 f   electron_sdk.pb.obj
 0001:000189e0       ?_InternalParse@GetAuthorizedBotListByUserIDParams@proto@sdk@electron@com@@UEAAPEBDPEBDPEAVParseContext@internal@protobuf@google@@@Z 00000001800199e0 f   electron_sdk.pb.obj
 0001:000189e0       ?_InternalParse@GetBotAuthorizedUserInfoByUserIDParams@proto@sdk@electron@com@@UEAAPEBDPEBDPEAVParseContext@internal@protobuf@google@@@Z 00000001800199e0 f   electron_sdk.pb.obj
 0001:000189e0       ?_InternalParse@GetDocsSharingSourceInfoListParams@proto@sdk@electron@com@@UEAAPEBDPEBDPEAVParseContext@internal@protobuf@google@@@Z 00000001800199e0 f   electron_sdk.pb.obj
 0001:000189e0       ?_InternalParse@GetUserInfoByUserIDParams@proto@sdk@electron@com@@UEAAPEBDPEBDPEAVParseContext@internal@protobuf@google@@@Z 00000001800199e0 f   electron_sdk.pb.obj
 0001:000189e0       ?_InternalParse@GetWaitingRoomUserInfoByIDParams@proto@sdk@electron@com@@UEAAPEBDPEBDPEAVParseContext@internal@protobuf@google@@@Z 00000001800199e0 f   electron_sdk.pb.obj
 0001:000189e0       ?_InternalParse@IsHardwareEncodeEnabledParams@proto@sdk@electron@com@@UEAAPEBDPEBDPEAVParseContext@internal@protobuf@google@@@Z 00000001800199e0 f   electron_sdk.pb.obj
 0001:000189e0       ?_InternalParse@IsSupportLocalRecordingParams@proto@sdk@electron@com@@UEAAPEBDPEBDPEAVParseContext@internal@protobuf@google@@@Z 00000001800199e0 f   electron_sdk.pb.obj
 0001:000189e0       ?_InternalParse@MuteVideoParams@proto@sdk@electron@com@@UEAAPEBDPEBDPEAVParseContext@internal@protobuf@google@@@Z 00000001800199e0 f   electron_sdk.pb.obj
 0001:000189e0       ?_InternalParse@PinVideoToFirstViewParams@proto@sdk@electron@com@@UEAAPEBDPEBDPEAVParseContext@internal@protobuf@google@@@Z 00000001800199e0 f   electron_sdk.pb.obj
 0001:000189e0       ?_InternalParse@PutInWaitingRoomParams@proto@sdk@electron@com@@UEAAPEBDPEBDPEAVParseContext@internal@protobuf@google@@@Z 00000001800199e0 f   electron_sdk.pb.obj
 0001:000189e0       ?_InternalParse@RedoParams@proto@sdk@electron@com@@UEAAPEBDPEBDPEAVParseContext@internal@protobuf@google@@@Z 00000001800199e0 f   electron_sdk.pb.obj
 0001:000189e0       ?_InternalParse@RemoveRawLiveStreamPrivilegeParams@proto@sdk@electron@com@@UEAAPEBDPEBDPEAVParseContext@internal@protobuf@google@@@Z 00000001800199e0 f   electron_sdk.pb.obj
 0001:000189e0       ?_InternalParse@SetAttendeeViewModeParams@proto@sdk@electron@com@@UEAAPEBDPEBDPEAVParseContext@internal@protobuf@google@@@Z 00000001800199e0 f   electron_sdk.pb.obj
 0001:000189e0       ?_InternalParse@SetAudioShareModeParams@proto@sdk@electron@com@@UEAAPEBDPEBDPEAVParseContext@internal@protobuf@google@@@Z 00000001800199e0 f   electron_sdk.pb.obj
 0001:000189e0       ?_InternalParse@SetDocsCreateOptionParams@proto@sdk@electron@com@@UEAAPEBDPEBDPEAVParseContext@internal@protobuf@google@@@Z 00000001800199e0 f   electron_sdk.pb.obj
 0001:000189e0       ?_InternalParse@SetDocsShareOptionParams@proto@sdk@electron@com@@UEAAPEBDPEBDPEAVParseContext@internal@protobuf@google@@@Z 00000001800199e0 f   electron_sdk.pb.obj
 0001:000189e0       ?_InternalParse@SetEchoCancellationLevelParams@proto@sdk@electron@com@@UEAAPEBDPEBDPEAVParseContext@internal@protobuf@google@@@Z 00000001800199e0 f   electron_sdk.pb.obj
 0001:000189e0       ?_InternalParse@SetEnableOptionParams@proto@sdk@electron@com@@UEAAPEBDPEBDPEAVParseContext@internal@protobuf@google@@@Z 00000001800199e0 f   electron_sdk.pb.obj
 0001:000189e0       ?_InternalParse@SetMaxDurationForOnlyHostInMeetingParams@proto@sdk@electron@com@@UEAAPEBDPEBDPEAVParseContext@internal@protobuf@google@@@Z 00000001800199e0 f   electron_sdk.pb.obj
 0001:000189e0       ?_InternalParse@SetPanelistChatPrivilegeParams@proto@sdk@electron@com@@UEAAPEBDPEBDPEAVParseContext@internal@protobuf@google@@@Z 00000001800199e0 f   electron_sdk.pb.obj
 0001:000189e0       ?_InternalParse@SetParticipantsChatPrivilegeParams@proto@sdk@electron@com@@UEAAPEBDPEBDPEAVParseContext@internal@protobuf@google@@@Z 00000001800199e0 f   electron_sdk.pb.obj
 0001:000189e0       ?_InternalParse@SetWhiteboardCreateOptionParams@proto@sdk@electron@com@@UEAAPEBDPEBDPEAVParseContext@internal@protobuf@google@@@Z 00000001800199e0 f   electron_sdk.pb.obj
 0001:000189e0       ?_InternalParse@SetWhiteboardShareOptionParams@proto@sdk@electron@com@@UEAAPEBDPEBDPEAVParseContext@internal@protobuf@google@@@Z 00000001800199e0 f   electron_sdk.pb.obj
 0001:000189e0       ?_InternalParse@ShowDocsViewWindowParams@proto@sdk@electron@com@@UEAAPEBDPEBDPEAVParseContext@internal@protobuf@google@@@Z 00000001800199e0 f   electron_sdk.pb.obj
 0001:000189e0       ?_InternalParse@SpotlightVideoParams@proto@sdk@electron@com@@UEAAPEBDPEBDPEAVParseContext@internal@protobuf@google@@@Z 00000001800199e0 f   electron_sdk.pb.obj
 0001:000189e0       ?_InternalParse@StopAnnotationParams@proto@sdk@electron@com@@UEAAPEBDPEBDPEAVParseContext@internal@protobuf@google@@@Z 00000001800199e0 f   electron_sdk.pb.obj
 0001:000189e0       ?_InternalParse@SwitchMinimizeUIMode4FirstScreenMeetingUIWndParams@proto@sdk@electron@com@@UEAAPEBDPEBDPEAVParseContext@internal@protobuf@google@@@Z 00000001800199e0 f   electron_sdk.pb.obj
 0001:000189e0       ?_InternalParse@UnMuteVideoParams@proto@sdk@electron@com@@UEAAPEBDPEBDPEAVParseContext@internal@protobuf@google@@@Z 00000001800199e0 f   electron_sdk.pb.obj
 0001:000189e0       ?_InternalParse@UndoParams@proto@sdk@electron@com@@UEAAPEBDPEBDPEAVParseContext@internal@protobuf@google@@@Z 00000001800199e0 f   electron_sdk.pb.obj
 0001:000189e0       ?_InternalParse@UnmuteAudioParams@proto@sdk@electron@com@@UEAAPEBDPEBDPEAVParseContext@internal@protobuf@google@@@Z 00000001800199e0 f   electron_sdk.pb.obj
 0001:000189e0       ?_InternalParse@WebinarAttendeeParams@proto@sdk@electron@com@@UEAAPEBDPEBDPEAVParseContext@internal@protobuf@google@@@Z 00000001800199e0 f   electron_sdk.pb.obj
 0001:00018b30       ?_InternalSerialize@AllowLocalRecordingParams@proto@sdk@electron@com@@UEBAPEAEPEAEPEAVEpsCopyOutputStream@io@protobuf@google@@@Z 0000000180019b30 f   electron_sdk.pb.obj
 0001:00018b30       ?_InternalSerialize@ChangeFloatToActiveSpkVideoSizeParams@proto@sdk@electron@com@@UEBAPEAEPEAEPEAVEpsCopyOutputStream@io@protobuf@google@@@Z 0000000180019b30 f   electron_sdk.pb.obj
 0001:00018b30       ?_InternalSerialize@IsHardwareEncodeEnabledParams@proto@sdk@electron@com@@UEBAPEAEPEAEPEAVEpsCopyOutputStream@io@protobuf@google@@@Z 0000000180019b30 f   electron_sdk.pb.obj
 0001:00018b30       ?_InternalSerialize@RedoParams@proto@sdk@electron@com@@UEBAPEAEPEAEPEAVEpsCopyOutputStream@io@protobuf@google@@@Z 0000000180019b30 f   electron_sdk.pb.obj
 0001:00018b30       ?_InternalSerialize@SetAudioShareModeParams@proto@sdk@electron@com@@UEBAPEAEPEAEPEAVEpsCopyOutputStream@io@protobuf@google@@@Z 0000000180019b30 f   electron_sdk.pb.obj
 0001:00018b30       ?_InternalSerialize@SetEchoCancellationLevelParams@proto@sdk@electron@com@@UEBAPEAEPEAEPEAVEpsCopyOutputStream@io@protobuf@google@@@Z 0000000180019b30 f   electron_sdk.pb.obj
 0001:00018b30       ?_InternalSerialize@SetMaxDurationForOnlyHostInMeetingParams@proto@sdk@electron@com@@UEBAPEAEPEAEPEAVEpsCopyOutputStream@io@protobuf@google@@@Z 0000000180019b30 f   electron_sdk.pb.obj
 0001:00018b30       ?_InternalSerialize@SetParticipantsChatPrivilegeParams@proto@sdk@electron@com@@UEBAPEAEPEAEPEAVEpsCopyOutputStream@io@protobuf@google@@@Z 0000000180019b30 f   electron_sdk.pb.obj
 0001:00018b30       ?_InternalSerialize@StopAnnotationParams@proto@sdk@electron@com@@UEBAPEAEPEAEPEAVEpsCopyOutputStream@io@protobuf@google@@@Z 0000000180019b30 f   electron_sdk.pb.obj
 0001:00018b30       ?_InternalSerialize@SwitchMinimizeUIMode4FirstScreenMeetingUIWndParams@proto@sdk@electron@com@@UEBAPEAEPEAEPEAVEpsCopyOutputStream@io@protobuf@google@@@Z 0000000180019b30 f   electron_sdk.pb.obj
 0001:00018b30       ?_InternalSerialize@UndoParams@proto@sdk@electron@com@@UEBAPEAEPEAEPEAVEpsCopyOutputStream@io@protobuf@google@@@Z 0000000180019b30 f   electron_sdk.pb.obj
 0001:00018b30       ?_InternalSerialize@UnmuteAudioParams@proto@sdk@electron@com@@UEBAPEAEPEAEPEAVEpsCopyOutputStream@io@protobuf@google@@@Z 0000000180019b30 f   electron_sdk.pb.obj
 0001:00018c20       ?ByteSizeLong@AllowLocalRecordingParams@proto@sdk@electron@com@@UEBA_KXZ 0000000180019c20 f   electron_sdk.pb.obj
 0001:00018c20       ?ByteSizeLong@ChangeFloatToActiveSpkVideoSizeParams@proto@sdk@electron@com@@UEBA_KXZ 0000000180019c20 f   electron_sdk.pb.obj
 0001:00018c20       ?ByteSizeLong@IsHardwareEncodeEnabledParams@proto@sdk@electron@com@@UEBA_KXZ 0000000180019c20 f   electron_sdk.pb.obj
 0001:00018c20       ?ByteSizeLong@RedoParams@proto@sdk@electron@com@@UEBA_KXZ 0000000180019c20 f   electron_sdk.pb.obj
 0001:00018c20       ?ByteSizeLong@SetAudioShareModeParams@proto@sdk@electron@com@@UEBA_KXZ 0000000180019c20 f   electron_sdk.pb.obj
 0001:00018c20       ?ByteSizeLong@SetEchoCancellationLevelParams@proto@sdk@electron@com@@UEBA_KXZ 0000000180019c20 f   electron_sdk.pb.obj
 0001:00018c20       ?ByteSizeLong@SetMaxDurationForOnlyHostInMeetingParams@proto@sdk@electron@com@@UEBA_KXZ 0000000180019c20 f   electron_sdk.pb.obj
 0001:00018c20       ?ByteSizeLong@SetParticipantsChatPrivilegeParams@proto@sdk@electron@com@@UEBA_KXZ 0000000180019c20 f   electron_sdk.pb.obj
 0001:00018c20       ?ByteSizeLong@StopAnnotationParams@proto@sdk@electron@com@@UEBA_KXZ 0000000180019c20 f   electron_sdk.pb.obj
 0001:00018c20       ?ByteSizeLong@SwitchMinimizeUIMode4FirstScreenMeetingUIWndParams@proto@sdk@electron@com@@UEBA_KXZ 0000000180019c20 f   electron_sdk.pb.obj
 0001:00018c20       ?ByteSizeLong@UndoParams@proto@sdk@electron@com@@UEBA_KXZ 0000000180019c20 f   electron_sdk.pb.obj
 0001:00018c20       ?ByteSizeLong@UnmuteAudioParams@proto@sdk@electron@com@@UEBA_KXZ 0000000180019c20 f   electron_sdk.pb.obj
 0001:00018c80       ?CheckTypeAndMergeFrom@ChangeFloatToActiveSpkVideoSizeParams@proto@sdk@electron@com@@UEAAXAEBVMessageLite@protobuf@google@@@Z 0000000180019c80 f   electron_sdk.pb.obj
 0001:00018c90       ?MergeFrom@ChangeFloatToActiveSpkVideoSizeParams@proto@sdk@electron@com@@QEAAXAEBV12345@@Z 0000000180019c90 f   electron_sdk.pb.obj
 0001:00018d40       ?GetTypeName@ChangeFloatToActiveSpkVideoSizeParams@proto@sdk@electron@com@@UEBA?AV?$basic_string@DU?$char_traits@D@std@@V?$allocator@D@2@@std@@XZ 0000000180019d40 f   electron_sdk.pb.obj
 0001:00018d70       ?CheckTypeAndMergeFrom@ShowParticipantsListWndParams@proto@sdk@electron@com@@UEAAXAEBVMessageLite@protobuf@google@@@Z 0000000180019d70 f   electron_sdk.pb.obj
 0001:00018d80       ?MergeFrom@ShowParticipantsListWndParams@proto@sdk@electron@com@@QEAAXAEBV12345@@Z 0000000180019d80 f   electron_sdk.pb.obj
 0001:00018e30       ?GetTypeName@ShowParticipantsListWndParams@proto@sdk@electron@com@@UEBA?AV?$basic_string@DU?$char_traits@D@std@@V?$allocator@D@2@@std@@XZ 0000000180019e30 f   electron_sdk.pb.obj
 0001:00018e60       ?CheckTypeAndMergeFrom@ShowBottomFloatToolbarWndParams@proto@sdk@electron@com@@UEAAXAEBVMessageLite@protobuf@google@@@Z 0000000180019e60 f   electron_sdk.pb.obj
 0001:00018e70       ?MergeFrom@ShowBottomFloatToolbarWndParams@proto@sdk@electron@com@@QEAAXAEBV12345@@Z 0000000180019e70 f   electron_sdk.pb.obj
 0001:00018f20       ?GetTypeName@ShowBottomFloatToolbarWndParams@proto@sdk@electron@com@@UEBA?AV?$basic_string@DU?$char_traits@D@std@@V?$allocator@D@2@@std@@XZ 0000000180019f20 f   electron_sdk.pb.obj
 0001:00018f50       ?CheckTypeAndMergeFrom@ShowPreOrNextPageVideoParams@proto@sdk@electron@com@@UEAAXAEBVMessageLite@protobuf@google@@@Z 0000000180019f50 f   electron_sdk.pb.obj
 0001:00018f60       ?MergeFrom@ShowPreOrNextPageVideoParams@proto@sdk@electron@com@@QEAAXAEBV12345@@Z 0000000180019f60 f   electron_sdk.pb.obj
 0001:00019010       ?GetTypeName@ShowPreOrNextPageVideoParams@proto@sdk@electron@com@@UEBA?AV?$basic_string@DU?$char_traits@D@std@@V?$allocator@D@2@@std@@XZ 000000018001a010 f   electron_sdk.pb.obj
 0001:00019040       ?CheckTypeAndMergeFrom@ShowSharingFrameWindowsParams@proto@sdk@electron@com@@UEAAXAEBVMessageLite@protobuf@google@@@Z 000000018001a040 f   electron_sdk.pb.obj
 0001:00019050       ?MergeFrom@ShowSharingFrameWindowsParams@proto@sdk@electron@com@@QEAAXAEBV12345@@Z 000000018001a050 f   electron_sdk.pb.obj
 0001:00019100       ?GetTypeName@ShowSharingFrameWindowsParams@proto@sdk@electron@com@@UEBA?AV?$basic_string@DU?$char_traits@D@std@@V?$allocator@D@2@@std@@XZ 000000018001a100 f   electron_sdk.pb.obj
 0001:00019130       ?CheckTypeAndMergeFrom@SwitchSplitScreenModeParams@proto@sdk@electron@com@@UEAAXAEBVMessageLite@protobuf@google@@@Z 000000018001a130 f   electron_sdk.pb.obj
 0001:00019140       ?MergeFrom@SwitchSplitScreenModeParams@proto@sdk@electron@com@@QEAAXAEBV12345@@Z 000000018001a140 f   electron_sdk.pb.obj
 0001:000191f0       ?GetTypeName@SwitchSplitScreenModeParams@proto@sdk@electron@com@@UEBA?AV?$basic_string@DU?$char_traits@D@std@@V?$allocator@D@2@@std@@XZ 000000018001a1f0 f   electron_sdk.pb.obj
 0001:00019220       ?CheckTypeAndMergeFrom@SwitchMinimizeUIMode4FirstScreenMeetingUIWndParams@proto@sdk@electron@com@@UEAAXAEBVMessageLite@protobuf@google@@@Z 000000018001a220 f   electron_sdk.pb.obj
 0001:00019230       ?MergeFrom@SwitchMinimizeUIMode4FirstScreenMeetingUIWndParams@proto@sdk@electron@com@@QEAAXAEBV12345@@Z 000000018001a230 f   electron_sdk.pb.obj
 0001:000192e0       ?GetTypeName@SwitchMinimizeUIMode4FirstScreenMeetingUIWndParams@proto@sdk@electron@com@@UEBA?AV?$basic_string@DU?$char_traits@D@std@@V?$allocator@D@2@@std@@XZ 000000018001a2e0 f   electron_sdk.pb.obj
 0001:00019310       ?CheckTypeAndMergeFrom@SwapToShowShareViewOrVideoParams@proto@sdk@electron@com@@UEAAXAEBVMessageLite@protobuf@google@@@Z 000000018001a310 f   electron_sdk.pb.obj
 0001:00019320       ?MergeFrom@SwapToShowShareViewOrVideoParams@proto@sdk@electron@com@@QEAAXAEBV12345@@Z 000000018001a320 f   electron_sdk.pb.obj
 0001:000193d0       ?GetTypeName@SwapToShowShareViewOrVideoParams@proto@sdk@electron@com@@UEBA?AV?$basic_string@DU?$char_traits@D@std@@V?$allocator@D@2@@std@@XZ 000000018001a3d0 f   electron_sdk.pb.obj
 0001:00019400       ?Clear@ShowSettingDlgParams@proto@sdk@electron@com@@UEAAXXZ 000000018001a400 f   electron_sdk.pb.obj
 0001:000194b0       ?_InternalParse@ShowSettingDlgParams@proto@sdk@electron@com@@UEAAPEBDPEBDPEAVParseContext@internal@protobuf@google@@@Z 000000018001a4b0 f   electron_sdk.pb.obj
 0001:000196b0       ?_InternalSerialize@ShowSettingDlgParams@proto@sdk@electron@com@@UEBAPEAEPEAEPEAVEpsCopyOutputStream@io@protobuf@google@@@Z 000000018001a6b0 f   electron_sdk.pb.obj
 0001:000197f0       ?ByteSizeLong@ShowSettingDlgParams@proto@sdk@electron@com@@UEBA_KXZ 000000018001a7f0 f   electron_sdk.pb.obj
 0001:00019970       ?CheckTypeAndMergeFrom@ShowSettingDlgParams@proto@sdk@electron@com@@UEAAXAEBVMessageLite@protobuf@google@@@Z 000000018001a970 f   electron_sdk.pb.obj
 0001:00019980       ?MergeFrom@ShowSettingDlgParams@proto@sdk@electron@com@@QEAAXAEBV12345@@Z 000000018001a980 f   electron_sdk.pb.obj
 0001:00019b10       ?GetTypeName@ShowSettingDlgParams@proto@sdk@electron@com@@UEBA?AV?$basic_string@DU?$char_traits@D@std@@V?$allocator@D@2@@std@@XZ 000000018001ab10 f   electron_sdk.pb.obj
 0001:00019b40       ?Clear@ScheduleMeetingWithWndParams@proto@sdk@electron@com@@UEAAXXZ 000000018001ab40 f   electron_sdk.pb.obj
 0001:00019b40       ?Clear@SetFloatVideoPosParams@proto@sdk@electron@com@@UEAAXXZ 000000018001ab40 f   electron_sdk.pb.obj
 0001:00019b40       ?Clear@SetMeetingUIPosParams@proto@sdk@electron@com@@UEAAXXZ 000000018001ab40 f   electron_sdk.pb.obj
 0001:00019bf0       ?_InternalParse@ScheduleMeetingWithWndParams@proto@sdk@electron@com@@UEAAPEBDPEBDPEAVParseContext@internal@protobuf@google@@@Z 000000018001abf0 f   electron_sdk.pb.obj
 0001:00019bf0       ?_InternalParse@SetFloatVideoPosParams@proto@sdk@electron@com@@UEAAPEBDPEBDPEAVParseContext@internal@protobuf@google@@@Z 000000018001abf0 f   electron_sdk.pb.obj
 0001:00019bf0       ?_InternalParse@SetMeetingUIPosParams@proto@sdk@electron@com@@UEAAPEBDPEBDPEAVParseContext@internal@protobuf@google@@@Z 000000018001abf0 f   electron_sdk.pb.obj
 0001:00019d90       ?_InternalSerialize@ScheduleMeetingWithWndParams@proto@sdk@electron@com@@UEBAPEAEPEAEPEAVEpsCopyOutputStream@io@protobuf@google@@@Z 000000018001ad90 f   electron_sdk.pb.obj
 0001:00019d90       ?_InternalSerialize@SetFloatVideoPosParams@proto@sdk@electron@com@@UEBAPEAEPEAEPEAVEpsCopyOutputStream@io@protobuf@google@@@Z 000000018001ad90 f   electron_sdk.pb.obj
 0001:00019d90       ?_InternalSerialize@SetMeetingUIPosParams@proto@sdk@electron@com@@UEBAPEAEPEAEPEAVEpsCopyOutputStream@io@protobuf@google@@@Z 000000018001ad90 f   electron_sdk.pb.obj
 0001:00019eb0       ?ByteSizeLong@ScheduleMeetingWithWndParams@proto@sdk@electron@com@@UEBA_KXZ 000000018001aeb0 f   electron_sdk.pb.obj
 0001:00019eb0       ?ByteSizeLong@SetFloatVideoPosParams@proto@sdk@electron@com@@UEBA_KXZ 000000018001aeb0 f   electron_sdk.pb.obj
 0001:00019eb0       ?ByteSizeLong@SetMeetingUIPosParams@proto@sdk@electron@com@@UEBA_KXZ 000000018001aeb0 f   electron_sdk.pb.obj
 0001:0001a020       ?CheckTypeAndMergeFrom@ScheduleMeetingWithWndParams@proto@sdk@electron@com@@UEAAXAEBVMessageLite@protobuf@google@@@Z 000000018001b020 f   electron_sdk.pb.obj
 0001:0001a030       ?MergeFrom@ScheduleMeetingWithWndParams@proto@sdk@electron@com@@QEAAXAEBV12345@@Z 000000018001b030 f   electron_sdk.pb.obj
 0001:0001a1a0       ?GetTypeName@ScheduleMeetingWithWndParams@proto@sdk@electron@com@@UEBA?AV?$basic_string@DU?$char_traits@D@std@@V?$allocator@D@2@@std@@XZ 000000018001b1a0 f   electron_sdk.pb.obj
 0001:0001a1d0       ?Clear@ConfSettingDialogShownTabPageParams@proto@sdk@electron@com@@UEAAXXZ 000000018001b1d0 f   electron_sdk.pb.obj
 0001:0001a1d0       ?Clear@ConfigToShowUrlLinksInSettingParams@proto@sdk@electron@com@@UEAAXXZ 000000018001b1d0 f   electron_sdk.pb.obj
 0001:0001a1d0       ?Clear@CreateRendererParams@proto@sdk@electron@com@@UEAAXXZ 000000018001b1d0 f   electron_sdk.pb.obj
 0001:0001a1d0       ?Clear@DeleteMeetingParams@proto@sdk@electron@com@@UEAAXXZ 000000018001b1d0 f   electron_sdk.pb.obj
 0001:0001a1d0       ?Clear@DestroyRendererParams@proto@sdk@electron@com@@UEAAXXZ 000000018001b1d0 f   electron_sdk.pb.obj
 0001:0001a1d0       ?Clear@EditMeetingParams@proto@sdk@electron@com@@UEAAXXZ 000000018001b1d0 f   electron_sdk.pb.obj
 0001:0001a1d0       ?Clear@GetLiveStreamItemInfoParams@proto@sdk@electron@com@@UEAAXXZ 000000018001b1d0 f   electron_sdk.pb.obj
 0001:0001a1d0       ?Clear@GetRawDataTypeParams@proto@sdk@electron@com@@UEAAXXZ 000000018001b1d0 f   electron_sdk.pb.obj
 0001:0001a1d0       ?Clear@GetResolutionParams@proto@sdk@electron@com@@UEAAXXZ 000000018001b1d0 f   electron_sdk.pb.obj
 0001:0001a1d0       ?Clear@GetSubscribeIdParams@proto@sdk@electron@com@@UEAAXXZ 000000018001b1d0 f   electron_sdk.pb.obj
 0001:0001a1d0       ?Clear@RemoveBGImageParams@proto@sdk@electron@com@@UEAAXXZ 000000018001b1d0 f   electron_sdk.pb.obj
 0001:0001a1d0       ?Clear@RemoveBGVideoParams@proto@sdk@electron@com@@UEAAXXZ 000000018001b1d0 f   electron_sdk.pb.obj
 0001:0001a1d0       ?Clear@StartLiveStreamParams@proto@sdk@electron@com@@UEAAXXZ 000000018001b1d0 f   electron_sdk.pb.obj
 0001:0001a1d0       ?Clear@TryWithMeetingNumberParams@proto@sdk@electron@com@@UEAAXXZ 000000018001b1d0 f   electron_sdk.pb.obj
 0001:0001a1d0       ?Clear@UnSubscribeParams@proto@sdk@electron@com@@UEAAXXZ 000000018001b1d0 f   electron_sdk.pb.obj
 0001:0001a1d0       ?Clear@UseBGImageParams@proto@sdk@electron@com@@UEAAXXZ 000000018001b1d0 f   electron_sdk.pb.obj
 0001:0001a1d0       ?Clear@UseBGVideoParams@proto@sdk@electron@com@@UEAAXXZ 000000018001b1d0 f   electron_sdk.pb.obj
 0001:0001a1f0       ?_InternalParse@ConfSettingDialogShownTabPageParams@proto@sdk@electron@com@@UEAAPEBDPEBDPEAVParseContext@internal@protobuf@google@@@Z 000000018001b1f0 f   electron_sdk.pb.obj
 0001:0001a1f0       ?_InternalParse@ConfigToShowUrlLinksInSettingParams@proto@sdk@electron@com@@UEAAPEBDPEBDPEAVParseContext@internal@protobuf@google@@@Z 000000018001b1f0 f   electron_sdk.pb.obj
 0001:0001a1f0       ?_InternalParse@CreateRendererParams@proto@sdk@electron@com@@UEAAPEBDPEBDPEAVParseContext@internal@protobuf@google@@@Z 000000018001b1f0 f   electron_sdk.pb.obj
 0001:0001a1f0       ?_InternalParse@DeleteMeetingParams@proto@sdk@electron@com@@UEAAPEBDPEBDPEAVParseContext@internal@protobuf@google@@@Z 000000018001b1f0 f   electron_sdk.pb.obj
 0001:0001a1f0       ?_InternalParse@DestroyRendererParams@proto@sdk@electron@com@@UEAAPEBDPEBDPEAVParseContext@internal@protobuf@google@@@Z 000000018001b1f0 f   electron_sdk.pb.obj
 0001:0001a1f0       ?_InternalParse@EditMeetingParams@proto@sdk@electron@com@@UEAAPEBDPEBDPEAVParseContext@internal@protobuf@google@@@Z 000000018001b1f0 f   electron_sdk.pb.obj
 0001:0001a1f0       ?_InternalParse@GetLiveStreamItemInfoParams@proto@sdk@electron@com@@UEAAPEBDPEBDPEAVParseContext@internal@protobuf@google@@@Z 000000018001b1f0 f   electron_sdk.pb.obj
 0001:0001a1f0       ?_InternalParse@GetRawDataTypeParams@proto@sdk@electron@com@@UEAAPEBDPEBDPEAVParseContext@internal@protobuf@google@@@Z 000000018001b1f0 f   electron_sdk.pb.obj
 0001:0001a1f0       ?_InternalParse@GetResolutionParams@proto@sdk@electron@com@@UEAAPEBDPEBDPEAVParseContext@internal@protobuf@google@@@Z 000000018001b1f0 f   electron_sdk.pb.obj
 0001:0001a1f0       ?_InternalParse@GetSubscribeIdParams@proto@sdk@electron@com@@UEAAPEBDPEBDPEAVParseContext@internal@protobuf@google@@@Z 000000018001b1f0 f   electron_sdk.pb.obj
 0001:0001a1f0       ?_InternalParse@RemoveBGImageParams@proto@sdk@electron@com@@UEAAPEBDPEBDPEAVParseContext@internal@protobuf@google@@@Z 000000018001b1f0 f   electron_sdk.pb.obj
 0001:0001a1f0       ?_InternalParse@RemoveBGVideoParams@proto@sdk@electron@com@@UEAAPEBDPEBDPEAVParseContext@internal@protobuf@google@@@Z 000000018001b1f0 f   electron_sdk.pb.obj
 0001:0001a1f0       ?_InternalParse@StartLiveStreamParams@proto@sdk@electron@com@@UEAAPEBDPEBDPEAVParseContext@internal@protobuf@google@@@Z 000000018001b1f0 f   electron_sdk.pb.obj
 0001:0001a1f0       ?_InternalParse@TryWithMeetingNumberParams@proto@sdk@electron@com@@UEAAPEBDPEBDPEAVParseContext@internal@protobuf@google@@@Z 000000018001b1f0 f   electron_sdk.pb.obj
 0001:0001a1f0       ?_InternalParse@UnSubscribeParams@proto@sdk@electron@com@@UEAAPEBDPEBDPEAVParseContext@internal@protobuf@google@@@Z 000000018001b1f0 f   electron_sdk.pb.obj
 0001:0001a1f0       ?_InternalParse@UseBGImageParams@proto@sdk@electron@com@@UEAAPEBDPEBDPEAVParseContext@internal@protobuf@google@@@Z 000000018001b1f0 f   electron_sdk.pb.obj
 0001:0001a1f0       ?_InternalParse@UseBGVideoParams@proto@sdk@electron@com@@UEAAPEBDPEBDPEAVParseContext@internal@protobuf@google@@@Z 000000018001b1f0 f   electron_sdk.pb.obj
 0001:0001a350       ?_InternalSerialize@ConfSettingDialogShownTabPageParams@proto@sdk@electron@com@@UEBAPEAEPEAEPEAVEpsCopyOutputStream@io@protobuf@google@@@Z 000000018001b350 f   electron_sdk.pb.obj
 0001:0001a350       ?_InternalSerialize@ConfigToShowUrlLinksInSettingParams@proto@sdk@electron@com@@UEBAPEAEPEAEPEAVEpsCopyOutputStream@io@protobuf@google@@@Z 000000018001b350 f   electron_sdk.pb.obj
 0001:0001a350       ?_InternalSerialize@CreateRendererParams@proto@sdk@electron@com@@UEBAPEAEPEAEPEAVEpsCopyOutputStream@io@protobuf@google@@@Z 000000018001b350 f   electron_sdk.pb.obj
 0001:0001a350       ?_InternalSerialize@DeleteMeetingParams@proto@sdk@electron@com@@UEBAPEAEPEAEPEAVEpsCopyOutputStream@io@protobuf@google@@@Z 000000018001b350 f   electron_sdk.pb.obj
 0001:0001a350       ?_InternalSerialize@DestroyRendererParams@proto@sdk@electron@com@@UEBAPEAEPEAEPEAVEpsCopyOutputStream@io@protobuf@google@@@Z 000000018001b350 f   electron_sdk.pb.obj
 0001:0001a350       ?_InternalSerialize@EditMeetingParams@proto@sdk@electron@com@@UEBAPEAEPEAEPEAVEpsCopyOutputStream@io@protobuf@google@@@Z 000000018001b350 f   electron_sdk.pb.obj
 0001:0001a350       ?_InternalSerialize@GetLiveStreamItemInfoParams@proto@sdk@electron@com@@UEBAPEAEPEAEPEAVEpsCopyOutputStream@io@protobuf@google@@@Z 000000018001b350 f   electron_sdk.pb.obj
 0001:0001a350       ?_InternalSerialize@GetRawDataTypeParams@proto@sdk@electron@com@@UEBAPEAEPEAEPEAVEpsCopyOutputStream@io@protobuf@google@@@Z 000000018001b350 f   electron_sdk.pb.obj
 0001:0001a350       ?_InternalSerialize@GetResolutionParams@proto@sdk@electron@com@@UEBAPEAEPEAEPEAVEpsCopyOutputStream@io@protobuf@google@@@Z 000000018001b350 f   electron_sdk.pb.obj
 0001:0001a350       ?_InternalSerialize@GetSubscribeIdParams@proto@sdk@electron@com@@UEBAPEAEPEAEPEAVEpsCopyOutputStream@io@protobuf@google@@@Z 000000018001b350 f   electron_sdk.pb.obj
 0001:0001a350       ?_InternalSerialize@RemoveBGImageParams@proto@sdk@electron@com@@UEBAPEAEPEAEPEAVEpsCopyOutputStream@io@protobuf@google@@@Z 000000018001b350 f   electron_sdk.pb.obj
 0001:0001a350       ?_InternalSerialize@RemoveBGVideoParams@proto@sdk@electron@com@@UEBAPEAEPEAEPEAVEpsCopyOutputStream@io@protobuf@google@@@Z 000000018001b350 f   electron_sdk.pb.obj
 0001:0001a350       ?_InternalSerialize@StartLiveStreamParams@proto@sdk@electron@com@@UEBAPEAEPEAEPEAVEpsCopyOutputStream@io@protobuf@google@@@Z 000000018001b350 f   electron_sdk.pb.obj
 0001:0001a350       ?_InternalSerialize@TryWithMeetingNumberParams@proto@sdk@electron@com@@UEBAPEAEPEAEPEAVEpsCopyOutputStream@io@protobuf@google@@@Z 000000018001b350 f   electron_sdk.pb.obj
 0001:0001a350       ?_InternalSerialize@UnSubscribeParams@proto@sdk@electron@com@@UEBAPEAEPEAEPEAVEpsCopyOutputStream@io@protobuf@google@@@Z 000000018001b350 f   electron_sdk.pb.obj
 0001:0001a350       ?_InternalSerialize@UseBGImageParams@proto@sdk@electron@com@@UEBAPEAEPEAEPEAVEpsCopyOutputStream@io@protobuf@google@@@Z 000000018001b350 f   electron_sdk.pb.obj
 0001:0001a350       ?_InternalSerialize@UseBGVideoParams@proto@sdk@electron@com@@UEBAPEAEPEAEPEAVEpsCopyOutputStream@io@protobuf@google@@@Z 000000018001b350 f   electron_sdk.pb.obj
 0001:0001a440       ?ByteSizeLong@ConfSettingDialogShownTabPageParams@proto@sdk@electron@com@@UEBA_KXZ 000000018001b440 f   electron_sdk.pb.obj
 0001:0001a440       ?ByteSizeLong@ConfigToShowUrlLinksInSettingParams@proto@sdk@electron@com@@UEBA_KXZ 000000018001b440 f   electron_sdk.pb.obj
 0001:0001a440       ?ByteSizeLong@CreateRendererParams@proto@sdk@electron@com@@UEBA_KXZ 000000018001b440 f   electron_sdk.pb.obj
 0001:0001a440       ?ByteSizeLong@DeleteMeetingParams@proto@sdk@electron@com@@UEBA_KXZ 000000018001b440 f   electron_sdk.pb.obj
 0001:0001a440       ?ByteSizeLong@DestroyRendererParams@proto@sdk@electron@com@@UEBA_KXZ 000000018001b440 f   electron_sdk.pb.obj
 0001:0001a440       ?ByteSizeLong@EditMeetingParams@proto@sdk@electron@com@@UEBA_KXZ 000000018001b440 f   electron_sdk.pb.obj
 0001:0001a440       ?ByteSizeLong@GetLiveStreamItemInfoParams@proto@sdk@electron@com@@UEBA_KXZ 000000018001b440 f   electron_sdk.pb.obj
 0001:0001a440       ?ByteSizeLong@GetRawDataTypeParams@proto@sdk@electron@com@@UEBA_KXZ 000000018001b440 f   electron_sdk.pb.obj
 0001:0001a440       ?ByteSizeLong@GetResolutionParams@proto@sdk@electron@com@@UEBA_KXZ 000000018001b440 f   electron_sdk.pb.obj
 0001:0001a440       ?ByteSizeLong@GetSubscribeIdParams@proto@sdk@electron@com@@UEBA_KXZ 000000018001b440 f   electron_sdk.pb.obj
 0001:0001a440       ?ByteSizeLong@RemoveBGImageParams@proto@sdk@electron@com@@UEBA_KXZ 000000018001b440 f   electron_sdk.pb.obj
 0001:0001a440       ?ByteSizeLong@RemoveBGVideoParams@proto@sdk@electron@com@@UEBA_KXZ 000000018001b440 f   electron_sdk.pb.obj
 0001:0001a440       ?ByteSizeLong@StartLiveStreamParams@proto@sdk@electron@com@@UEBA_KXZ 000000018001b440 f   electron_sdk.pb.obj
 0001:0001a440       ?ByteSizeLong@TryWithMeetingNumberParams@proto@sdk@electron@com@@UEBA_KXZ 000000018001b440 f   electron_sdk.pb.obj
 0001:0001a440       ?ByteSizeLong@UnSubscribeParams@proto@sdk@electron@com@@UEBA_KXZ 000000018001b440 f   electron_sdk.pb.obj
 0001:0001a440       ?ByteSizeLong@UseBGImageParams@proto@sdk@electron@com@@UEBA_KXZ 000000018001b440 f   electron_sdk.pb.obj
 0001:0001a440       ?ByteSizeLong@UseBGVideoParams@proto@sdk@electron@com@@UEBA_KXZ 000000018001b440 f   electron_sdk.pb.obj
 0001:0001a4a0       ?CheckTypeAndMergeFrom@EditMeetingParams@proto@sdk@electron@com@@UEAAXAEBVMessageLite@protobuf@google@@@Z 000000018001b4a0 f   electron_sdk.pb.obj
 0001:0001a4b0       ?MergeFrom@EditMeetingParams@proto@sdk@electron@com@@QEAAXAEBV12345@@Z 000000018001b4b0 f   electron_sdk.pb.obj
 0001:0001a560       ?GetTypeName@EditMeetingParams@proto@sdk@electron@com@@UEBA?AV?$basic_string@DU?$char_traits@D@std@@V?$allocator@D@2@@std@@XZ 000000018001b560 f   electron_sdk.pb.obj
 0001:0001a590       ?Clear@EditMeetingWithWndParams@proto@sdk@electron@com@@UEAAXXZ 000000018001b590 f   electron_sdk.pb.obj
 0001:0001a640       ?_InternalParse@EditMeetingWithWndParams@proto@sdk@electron@com@@UEAAPEBDPEBDPEAVParseContext@internal@protobuf@google@@@Z 000000018001b640 f   electron_sdk.pb.obj
 0001:0001a840       ?_InternalSerialize@EditMeetingWithWndParams@proto@sdk@electron@com@@UEBAPEAEPEAEPEAVEpsCopyOutputStream@io@protobuf@google@@@Z 000000018001b840 f   electron_sdk.pb.obj
 0001:0001a9a0       ?ByteSizeLong@EditMeetingWithWndParams@proto@sdk@electron@com@@UEBA_KXZ 000000018001b9a0 f   electron_sdk.pb.obj
 0001:0001ab50       ?CheckTypeAndMergeFrom@EditMeetingWithWndParams@proto@sdk@electron@com@@UEAAXAEBVMessageLite@protobuf@google@@@Z 000000018001bb50 f   electron_sdk.pb.obj
 0001:0001ab60       ?MergeFrom@EditMeetingWithWndParams@proto@sdk@electron@com@@QEAAXAEBV12345@@Z 000000018001bb60 f   electron_sdk.pb.obj
 0001:0001acf0       ?GetTypeName@EditMeetingWithWndParams@proto@sdk@electron@com@@UEBA?AV?$basic_string@DU?$char_traits@D@std@@V?$allocator@D@2@@std@@XZ 000000018001bcf0 f   electron_sdk.pb.obj
 0001:0001ad20       ?CheckTypeAndMergeFrom@DeleteMeetingParams@proto@sdk@electron@com@@UEAAXAEBVMessageLite@protobuf@google@@@Z 000000018001bd20 f   electron_sdk.pb.obj
 0001:0001ad30       ?MergeFrom@DeleteMeetingParams@proto@sdk@electron@com@@QEAAXAEBV12345@@Z 000000018001bd30 f   electron_sdk.pb.obj
 0001:0001ade0       ?GetTypeName@DeleteMeetingParams@proto@sdk@electron@com@@UEBA?AV?$basic_string@DU?$char_traits@D@std@@V?$allocator@D@2@@std@@XZ 000000018001bde0 f   electron_sdk.pb.obj
 0001:0001ae10       ?CheckTypeAndMergeFrom@AddCustomizedPictureResourceParams@proto@sdk@electron@com@@UEAAXAEBVMessageLite@protobuf@google@@@Z 000000018001be10 f   electron_sdk.pb.obj
 0001:0001ae20       ?MergeFrom@AddCustomizedPictureResourceParams@proto@sdk@electron@com@@QEAAXAEBV12345@@Z 000000018001be20 f   electron_sdk.pb.obj
 0001:0001af50       ?GetTypeName@AddCustomizedPictureResourceParams@proto@sdk@electron@com@@UEBA?AV?$basic_string@DU?$char_traits@D@std@@V?$allocator@D@2@@std@@XZ 000000018001bf50 f   electron_sdk.pb.obj
 0001:0001af80       ?Clear@AddCustomizedStringResourceParams@proto@sdk@electron@com@@UEAAXXZ 000000018001bf80 f   electron_sdk.pb.obj
 0001:0001af80       ?Clear@AddCustomizedURLResourceParams@proto@sdk@electron@com@@UEAAXXZ 000000018001bf80 f   electron_sdk.pb.obj
 0001:0001af80       ?Clear@RenameUserParams@proto@sdk@electron@com@@UEAAXXZ 000000018001bf80 f   electron_sdk.pb.obj
 0001:0001af80       ?Clear@SetColorParams@proto@sdk@electron@com@@UEAAXXZ 000000018001bf80 f   electron_sdk.pb.obj
 0001:0001af80       ?Clear@SetLineWidthParams@proto@sdk@electron@com@@UEAAXXZ 000000018001bf80 f   electron_sdk.pb.obj
 0001:0001af80       ?Clear@TransferFileParams@proto@sdk@electron@com@@UEAAXXZ 000000018001bf80 f   electron_sdk.pb.obj
 0001:0001afc0       ?_InternalParse@AddCustomizedStringResourceParams@proto@sdk@electron@com@@UEAAPEBDPEBDPEAVParseContext@internal@protobuf@google@@@Z 000000018001bfc0 f   electron_sdk.pb.obj
 0001:0001afc0       ?_InternalParse@AddCustomizedURLResourceParams@proto@sdk@electron@com@@UEAAPEBDPEBDPEAVParseContext@internal@protobuf@google@@@Z 000000018001bfc0 f   electron_sdk.pb.obj
 0001:0001afc0       ?_InternalParse@RenameUserParams@proto@sdk@electron@com@@UEAAPEBDPEBDPEAVParseContext@internal@protobuf@google@@@Z 000000018001bfc0 f   electron_sdk.pb.obj
 0001:0001afc0       ?_InternalParse@SetColorParams@proto@sdk@electron@com@@UEAAPEBDPEBDPEAVParseContext@internal@protobuf@google@@@Z 000000018001bfc0 f   electron_sdk.pb.obj
 0001:0001afc0       ?_InternalParse@SetLineWidthParams@proto@sdk@electron@com@@UEAAPEBDPEBDPEAVParseContext@internal@protobuf@google@@@Z 000000018001bfc0 f   electron_sdk.pb.obj
 0001:0001b160       ?_InternalSerialize@AddCustomizedStringResourceParams@proto@sdk@electron@com@@UEBAPEAEPEAEPEAVEpsCopyOutputStream@io@protobuf@google@@@Z 000000018001c160 f   electron_sdk.pb.obj
 0001:0001b160       ?_InternalSerialize@AddCustomizedURLResourceParams@proto@sdk@electron@com@@UEBAPEAEPEAEPEAVEpsCopyOutputStream@io@protobuf@google@@@Z 000000018001c160 f   electron_sdk.pb.obj
 0001:0001b160       ?_InternalSerialize@SetColorParams@proto@sdk@electron@com@@UEBAPEAEPEAEPEAVEpsCopyOutputStream@io@protobuf@google@@@Z 000000018001c160 f   electron_sdk.pb.obj
 0001:0001b160       ?_InternalSerialize@SetLineWidthParams@proto@sdk@electron@com@@UEBAPEAEPEAEPEAVEpsCopyOutputStream@io@protobuf@google@@@Z 000000018001c160 f   electron_sdk.pb.obj
 0001:0001b260       ?ByteSizeLong@AddCustomizedStringResourceParams@proto@sdk@electron@com@@UEBA_KXZ 000000018001c260 f   electron_sdk.pb.obj
 0001:0001b260       ?ByteSizeLong@AddCustomizedURLResourceParams@proto@sdk@electron@com@@UEBA_KXZ 000000018001c260 f   electron_sdk.pb.obj
 0001:0001b260       ?ByteSizeLong@SetColorParams@proto@sdk@electron@com@@UEBA_KXZ 000000018001c260 f   electron_sdk.pb.obj
 0001:0001b260       ?ByteSizeLong@SetLineWidthParams@proto@sdk@electron@com@@UEBA_KXZ 000000018001c260 f   electron_sdk.pb.obj
 0001:0001b320       ?CheckTypeAndMergeFrom@AddCustomizedStringResourceParams@proto@sdk@electron@com@@UEAAXAEBVMessageLite@protobuf@google@@@Z 000000018001c320 f   electron_sdk.pb.obj
 0001:0001b330       ?MergeFrom@AddCustomizedStringResourceParams@proto@sdk@electron@com@@QEAAXAEBV12345@@Z 000000018001c330 f   electron_sdk.pb.obj
 0001:0001b450       ?GetTypeName@AddCustomizedStringResourceParams@proto@sdk@electron@com@@UEBA?AV?$basic_string@DU?$char_traits@D@std@@V?$allocator@D@2@@std@@XZ 000000018001c450 f   electron_sdk.pb.obj
 0001:0001b480       ?CheckTypeAndMergeFrom@AddCustomizedURLResourceParams@proto@sdk@electron@com@@UEAAXAEBVMessageLite@protobuf@google@@@Z 000000018001c480 f   electron_sdk.pb.obj
 0001:0001b490       ?MergeFrom@AddCustomizedURLResourceParams@proto@sdk@electron@com@@QEAAXAEBV12345@@Z 000000018001c490 f   electron_sdk.pb.obj
 0001:0001b5b0       ?GetTypeName@AddCustomizedURLResourceParams@proto@sdk@electron@com@@UEBA?AV?$basic_string@DU?$char_traits@D@std@@V?$allocator@D@2@@std@@XZ 000000018001c5b0 f   electron_sdk.pb.obj
 0001:0001b5e0       ?CheckTypeAndMergeFrom@TryWithMeetingNumberParams@proto@sdk@electron@com@@UEAAXAEBVMessageLite@protobuf@google@@@Z 000000018001c5e0 f   electron_sdk.pb.obj
 0001:0001b5f0       ?MergeFrom@TryWithMeetingNumberParams@proto@sdk@electron@com@@QEAAXAEBV12345@@Z 000000018001c5f0 f   electron_sdk.pb.obj
 0001:0001b6a0       ?GetTypeName@TryWithMeetingNumberParams@proto@sdk@electron@com@@UEBA?AV?$basic_string@DU?$char_traits@D@std@@V?$allocator@D@2@@std@@XZ 000000018001c6a0 f   electron_sdk.pb.obj
 0001:0001b6d0       ?CheckTypeAndMergeFrom@TryWithPairingCodeParams@proto@sdk@electron@com@@UEAAXAEBVMessageLite@protobuf@google@@@Z 000000018001c6d0 f   electron_sdk.pb.obj
 0001:0001b6e0       ?MergeFrom@TryWithPairingCodeParams@proto@sdk@electron@com@@QEAAXAEBV12345@@Z 000000018001c6e0 f   electron_sdk.pb.obj
 0001:0001b7b0       ?GetTypeName@TryWithPairingCodeParams@proto@sdk@electron@com@@UEBA?AV?$basic_string@DU?$char_traits@D@std@@V?$allocator@D@2@@std@@XZ 000000018001c7b0 f   electron_sdk.pb.obj
 0001:0001b7e0       ?Clear@ShowAANPanelParams@proto@sdk@electron@com@@UEAAXXZ 000000018001c7e0 f   electron_sdk.pb.obj
 0001:0001b7e0       ?Clear@ShowIndicatorPanelParams@proto@sdk@electron@com@@UEAAXXZ 000000018001c7e0 f   electron_sdk.pb.obj
 0001:0001b7e0       ?Clear@ShowPanelParams@proto@sdk@electron@com@@UEAAXXZ 000000018001c7e0 f   electron_sdk.pb.obj
 0001:0001b7e0       ?Clear@SubscribeParams@proto@sdk@electron@com@@UEAAXXZ 000000018001c7e0 f   electron_sdk.pb.obj
 0001:0001b800       ?_InternalParse@ShowAANPanelParams@proto@sdk@electron@com@@UEAAPEBDPEBDPEAVParseContext@internal@protobuf@google@@@Z 000000018001c800 f   electron_sdk.pb.obj
 0001:0001b800       ?_InternalParse@ShowIndicatorPanelParams@proto@sdk@electron@com@@UEAAPEBDPEBDPEAVParseContext@internal@protobuf@google@@@Z 000000018001c800 f   electron_sdk.pb.obj
 0001:0001b800       ?_InternalParse@ShowPanelParams@proto@sdk@electron@com@@UEAAPEBDPEBDPEAVParseContext@internal@protobuf@google@@@Z 000000018001c800 f   electron_sdk.pb.obj
 0001:0001b800       ?_InternalParse@SubscribeParams@proto@sdk@electron@com@@UEAAPEBDPEBDPEAVParseContext@internal@protobuf@google@@@Z 000000018001c800 f   electron_sdk.pb.obj
 0001:0001ba40       ?_InternalSerialize@ShowAANPanelParams@proto@sdk@electron@com@@UEBAPEAEPEAEPEAVEpsCopyOutputStream@io@protobuf@google@@@Z 000000018001ca40 f   electron_sdk.pb.obj
 0001:0001ba40       ?_InternalSerialize@ShowIndicatorPanelParams@proto@sdk@electron@com@@UEBAPEAEPEAEPEAVEpsCopyOutputStream@io@protobuf@google@@@Z 000000018001ca40 f   electron_sdk.pb.obj
 0001:0001ba40       ?_InternalSerialize@ShowPanelParams@proto@sdk@electron@com@@UEBAPEAEPEAEPEAVEpsCopyOutputStream@io@protobuf@google@@@Z 000000018001ca40 f   electron_sdk.pb.obj
 0001:0001bbc0       ?ByteSizeLong@ShowAANPanelParams@proto@sdk@electron@com@@UEBA_KXZ 000000018001cbc0 f   electron_sdk.pb.obj
 0001:0001bbc0       ?ByteSizeLong@ShowIndicatorPanelParams@proto@sdk@electron@com@@UEBA_KXZ 000000018001cbc0 f   electron_sdk.pb.obj
 0001:0001bbc0       ?ByteSizeLong@ShowPanelParams@proto@sdk@electron@com@@UEBA_KXZ 000000018001cbc0 f   electron_sdk.pb.obj
 0001:0001bcb0       ?CheckTypeAndMergeFrom@ShowPanelParams@proto@sdk@electron@com@@UEAAXAEBVMessageLite@protobuf@google@@@Z 000000018001ccb0 f   electron_sdk.pb.obj
 0001:0001bcc0       ?MergeFrom@ShowPanelParams@proto@sdk@electron@com@@QEAAXAEBV12345@@Z 000000018001ccc0 f   electron_sdk.pb.obj
 0001:0001bd90       ?GetTypeName@ShowPanelParams@proto@sdk@electron@com@@UEBA?AV?$basic_string@DU?$char_traits@D@std@@V?$allocator@D@2@@std@@XZ 000000018001cd90 f   electron_sdk.pb.obj
 0001:0001bdc0       ?Clear@StartAnnotationParams@proto@sdk@electron@com@@UEAAXXZ 000000018001cdc0 f   electron_sdk.pb.obj
 0001:0001be30       ?_InternalParse@StartAnnotationParams@proto@sdk@electron@com@@UEAAPEBDPEBDPEAVParseContext@internal@protobuf@google@@@Z 000000018001ce30 f   electron_sdk.pb.obj
 0001:0001bff0       ?_InternalSerialize@StartAnnotationParams@proto@sdk@electron@com@@UEBAPEAEPEAEPEAVEpsCopyOutputStream@io@protobuf@google@@@Z 000000018001cff0 f   electron_sdk.pb.obj
 0001:0001c110       ?ByteSizeLong@StartAnnotationParams@proto@sdk@electron@com@@UEBA_KXZ 000000018001d110 f   electron_sdk.pb.obj
 0001:0001c230       ?CheckTypeAndMergeFrom@StartAnnotationParams@proto@sdk@electron@com@@UEAAXAEBVMessageLite@protobuf@google@@@Z 000000018001d230 f   electron_sdk.pb.obj
 0001:0001c240       ?MergeFrom@StartAnnotationParams@proto@sdk@electron@com@@QEAAXAEBV12345@@Z 000000018001d240 f   electron_sdk.pb.obj
 0001:0001c3b0       ?GetTypeName@StartAnnotationParams@proto@sdk@electron@com@@UEBA?AV?$basic_string@DU?$char_traits@D@std@@V?$allocator@D@2@@std@@XZ 000000018001d3b0 f   electron_sdk.pb.obj
 0001:0001c3e0       ?CheckTypeAndMergeFrom@StopAnnotationParams@proto@sdk@electron@com@@UEAAXAEBVMessageLite@protobuf@google@@@Z 000000018001d3e0 f   electron_sdk.pb.obj
 0001:0001c3f0       ?MergeFrom@StopAnnotationParams@proto@sdk@electron@com@@QEAAXAEBV12345@@Z 000000018001d3f0 f   electron_sdk.pb.obj
 0001:0001c4a0       ?GetTypeName@StopAnnotationParams@proto@sdk@electron@com@@UEBA?AV?$basic_string@DU?$char_traits@D@std@@V?$allocator@D@2@@std@@XZ 000000018001d4a0 f   electron_sdk.pb.obj
 0001:0001c4d0       ?Clear@CanStartRecordingParams@proto@sdk@electron@com@@UEAAXXZ 000000018001d4d0 f   electron_sdk.pb.obj
 0001:0001c4d0       ?Clear@ClearAnnotationParams@proto@sdk@electron@com@@UEAAXXZ 000000018001d4d0 f   electron_sdk.pb.obj
 0001:0001c4d0       ?Clear@EnableHardwareEncodeParams@proto@sdk@electron@com@@UEAAXXZ 000000018001d4d0 f   electron_sdk.pb.obj
 0001:0001c4d0       ?Clear@SetDashboardViewSizeParams@proto@sdk@electron@com@@UEAAXXZ 000000018001d4d0 f   electron_sdk.pb.obj
 0001:0001c4d0       ?Clear@SetDocDashboardSizeParams@proto@sdk@electron@com@@UEAAXXZ 000000018001d4d0 f   electron_sdk.pb.obj
 0001:0001c4d0       ?Clear@SetDocsViewPosParams@proto@sdk@electron@com@@UEAAXXZ 000000018001d4d0 f   electron_sdk.pb.obj
 0001:0001c4d0       ?Clear@SetDocsViewSizeParams@proto@sdk@electron@com@@UEAAXXZ 000000018001d4d0 f   electron_sdk.pb.obj
 0001:0001c4d0       ?Clear@SetToolParams@proto@sdk@electron@com@@UEAAXXZ 000000018001d4d0 f   electron_sdk.pb.obj
 0001:0001c4d0       ?Clear@SetWhiteboardViewPosParams@proto@sdk@electron@com@@UEAAXXZ 000000018001d4d0 f   electron_sdk.pb.obj
 0001:0001c4d0       ?Clear@SetWhiteboardViewSizeParams@proto@sdk@electron@com@@UEAAXXZ 000000018001d4d0 f   electron_sdk.pb.obj
 0001:0001c4d0       ?Clear@ShowDashboardViewParams@proto@sdk@electron@com@@UEAAXXZ 000000018001d4d0 f   electron_sdk.pb.obj
 0001:0001c4d0       ?Clear@ShowDocsDashboardParams@proto@sdk@electron@com@@UEAAXXZ 000000018001d4d0 f   electron_sdk.pb.obj
 0001:0001c4f0       ?_InternalParse@ClearAnnotationParams@proto@sdk@electron@com@@UEAAPEBDPEBDPEAVParseContext@internal@protobuf@google@@@Z 000000018001d4f0 f   electron_sdk.pb.obj
 0001:0001c4f0       ?_InternalParse@SetDashboardViewSizeParams@proto@sdk@electron@com@@UEAAPEBDPEBDPEAVParseContext@internal@protobuf@google@@@Z 000000018001d4f0 f   electron_sdk.pb.obj
 0001:0001c4f0       ?_InternalParse@SetDocDashboardSizeParams@proto@sdk@electron@com@@UEAAPEBDPEBDPEAVParseContext@internal@protobuf@google@@@Z 000000018001d4f0 f   electron_sdk.pb.obj
 0001:0001c4f0       ?_InternalParse@SetDocsViewPosParams@proto@sdk@electron@com@@UEAAPEBDPEBDPEAVParseContext@internal@protobuf@google@@@Z 000000018001d4f0 f   electron_sdk.pb.obj
 0001:0001c4f0       ?_InternalParse@SetDocsViewSizeParams@proto@sdk@electron@com@@UEAAPEBDPEBDPEAVParseContext@internal@protobuf@google@@@Z 000000018001d4f0 f   electron_sdk.pb.obj
 0001:0001c4f0       ?_InternalParse@SetToolParams@proto@sdk@electron@com@@UEAAPEBDPEBDPEAVParseContext@internal@protobuf@google@@@Z 000000018001d4f0 f   electron_sdk.pb.obj
 0001:0001c4f0       ?_InternalParse@SetWhiteboardViewPosParams@proto@sdk@electron@com@@UEAAPEBDPEBDPEAVParseContext@internal@protobuf@google@@@Z 000000018001d4f0 f   electron_sdk.pb.obj
 0001:0001c4f0       ?_InternalParse@SetWhiteboardViewSizeParams@proto@sdk@electron@com@@UEAAPEBDPEBDPEAVParseContext@internal@protobuf@google@@@Z 000000018001d4f0 f   electron_sdk.pb.obj
 0001:0001c4f0       ?_InternalParse@ShowDashboardViewParams@proto@sdk@electron@com@@UEAAPEBDPEBDPEAVParseContext@internal@protobuf@google@@@Z 000000018001d4f0 f   electron_sdk.pb.obj
 0001:0001c4f0       ?_InternalParse@ShowDocsDashboardParams@proto@sdk@electron@com@@UEAAPEBDPEBDPEAVParseContext@internal@protobuf@google@@@Z 000000018001d4f0 f   electron_sdk.pb.obj
 0001:0001c6a0       ?_InternalSerialize@ClearAnnotationParams@proto@sdk@electron@com@@UEBAPEAEPEAEPEAVEpsCopyOutputStream@io@protobuf@google@@@Z 000000018001d6a0 f   electron_sdk.pb.obj
 0001:0001c6a0       ?_InternalSerialize@SetDashboardViewSizeParams@proto@sdk@electron@com@@UEBAPEAEPEAEPEAVEpsCopyOutputStream@io@protobuf@google@@@Z 000000018001d6a0 f   electron_sdk.pb.obj
 0001:0001c6a0       ?_InternalSerialize@SetDocDashboardSizeParams@proto@sdk@electron@com@@UEBAPEAEPEAEPEAVEpsCopyOutputStream@io@protobuf@google@@@Z 000000018001d6a0 f   electron_sdk.pb.obj
 0001:0001c6a0       ?_InternalSerialize@SetDocsViewPosParams@proto@sdk@electron@com@@UEBAPEAEPEAEPEAVEpsCopyOutputStream@io@protobuf@google@@@Z 000000018001d6a0 f   electron_sdk.pb.obj
 0001:0001c6a0       ?_InternalSerialize@SetDocsViewSizeParams@proto@sdk@electron@com@@UEBAPEAEPEAEPEAVEpsCopyOutputStream@io@protobuf@google@@@Z 000000018001d6a0 f   electron_sdk.pb.obj
 0001:0001c6a0       ?_InternalSerialize@SetToolParams@proto@sdk@electron@com@@UEBAPEAEPEAEPEAVEpsCopyOutputStream@io@protobuf@google@@@Z 000000018001d6a0 f   electron_sdk.pb.obj
 0001:0001c6a0       ?_InternalSerialize@SetWhiteboardViewPosParams@proto@sdk@electron@com@@UEBAPEAEPEAEPEAVEpsCopyOutputStream@io@protobuf@google@@@Z 000000018001d6a0 f   electron_sdk.pb.obj
 0001:0001c6a0       ?_InternalSerialize@SetWhiteboardViewSizeParams@proto@sdk@electron@com@@UEBAPEAEPEAEPEAVEpsCopyOutputStream@io@protobuf@google@@@Z 000000018001d6a0 f   electron_sdk.pb.obj
 0001:0001c6a0       ?_InternalSerialize@ShowDashboardViewParams@proto@sdk@electron@com@@UEBAPEAEPEAEPEAVEpsCopyOutputStream@io@protobuf@google@@@Z 000000018001d6a0 f   electron_sdk.pb.obj
 0001:0001c6a0       ?_InternalSerialize@ShowDocsDashboardParams@proto@sdk@electron@com@@UEBAPEAEPEAEPEAVEpsCopyOutputStream@io@protobuf@google@@@Z 000000018001d6a0 f   electron_sdk.pb.obj
 0001:0001c7d0       ?ByteSizeLong@ClearAnnotationParams@proto@sdk@electron@com@@UEBA_KXZ 000000018001d7d0 f   electron_sdk.pb.obj
 0001:0001c7d0       ?ByteSizeLong@SetDashboardViewSizeParams@proto@sdk@electron@com@@UEBA_KXZ 000000018001d7d0 f   electron_sdk.pb.obj
 0001:0001c7d0       ?ByteSizeLong@SetDocDashboardSizeParams@proto@sdk@electron@com@@UEBA_KXZ 000000018001d7d0 f   electron_sdk.pb.obj
 0001:0001c7d0       ?ByteSizeLong@SetDocsViewPosParams@proto@sdk@electron@com@@UEBA_KXZ 000000018001d7d0 f   electron_sdk.pb.obj
 0001:0001c7d0       ?ByteSizeLong@SetDocsViewSizeParams@proto@sdk@electron@com@@UEBA_KXZ 000000018001d7d0 f   electron_sdk.pb.obj
 0001:0001c7d0       ?ByteSizeLong@SetToolParams@proto@sdk@electron@com@@UEBA_KXZ 000000018001d7d0 f   electron_sdk.pb.obj
 0001:0001c7d0       ?ByteSizeLong@SetWhiteboardViewPosParams@proto@sdk@electron@com@@UEBA_KXZ 000000018001d7d0 f   electron_sdk.pb.obj
 0001:0001c7d0       ?ByteSizeLong@SetWhiteboardViewSizeParams@proto@sdk@electron@com@@UEBA_KXZ 000000018001d7d0 f   electron_sdk.pb.obj
 0001:0001c7d0       ?ByteSizeLong@ShowDashboardViewParams@proto@sdk@electron@com@@UEBA_KXZ 000000018001d7d0 f   electron_sdk.pb.obj
 0001:0001c7d0       ?ByteSizeLong@ShowDocsDashboardParams@proto@sdk@electron@com@@UEBA_KXZ 000000018001d7d0 f   electron_sdk.pb.obj
 0001:0001c880       ?CheckTypeAndMergeFrom@SetToolParams@proto@sdk@electron@com@@UEAAXAEBVMessageLite@protobuf@google@@@Z 000000018001d880 f   electron_sdk.pb.obj
 0001:0001c890       ?MergeFrom@SetToolParams@proto@sdk@electron@com@@QEAAXAEBV12345@@Z 000000018001d890 f   electron_sdk.pb.obj
 0001:0001c950       ?GetTypeName@SetToolParams@proto@sdk@electron@com@@UEBA?AV?$basic_string@DU?$char_traits@D@std@@V?$allocator@D@2@@std@@XZ 000000018001d950 f   electron_sdk.pb.obj
 0001:0001c980       ?CheckTypeAndMergeFrom@ClearAnnotationParams@proto@sdk@electron@com@@UEAAXAEBVMessageLite@protobuf@google@@@Z 000000018001d980 f   electron_sdk.pb.obj
 0001:0001c990       ?MergeFrom@ClearAnnotationParams@proto@sdk@electron@com@@QEAAXAEBV12345@@Z 000000018001d990 f   electron_sdk.pb.obj
 0001:0001ca50       ?GetTypeName@ClearAnnotationParams@proto@sdk@electron@com@@UEBA?AV?$basic_string@DU?$char_traits@D@std@@V?$allocator@D@2@@std@@XZ 000000018001da50 f   electron_sdk.pb.obj
 0001:0001ca80       ?CheckTypeAndMergeFrom@SetColorParams@proto@sdk@electron@com@@UEAAXAEBVMessageLite@protobuf@google@@@Z 000000018001da80 f   electron_sdk.pb.obj
 0001:0001ca90       ?MergeFrom@SetColorParams@proto@sdk@electron@com@@QEAAXAEBV12345@@Z 000000018001da90 f   electron_sdk.pb.obj
 0001:0001cbb0       ?GetTypeName@SetColorParams@proto@sdk@electron@com@@UEBA?AV?$basic_string@DU?$char_traits@D@std@@V?$allocator@D@2@@std@@XZ 000000018001dbb0 f   electron_sdk.pb.obj
 0001:0001cbe0       ?CheckTypeAndMergeFrom@SetLineWidthParams@proto@sdk@electron@com@@UEAAXAEBVMessageLite@protobuf@google@@@Z 000000018001dbe0 f   electron_sdk.pb.obj
 0001:0001cbf0       ?MergeFrom@SetLineWidthParams@proto@sdk@electron@com@@QEAAXAEBV12345@@Z 000000018001dbf0 f   electron_sdk.pb.obj
 0001:0001cd10       ?GetTypeName@SetLineWidthParams@proto@sdk@electron@com@@UEBA?AV?$basic_string@DU?$char_traits@D@std@@V?$allocator@D@2@@std@@XZ 000000018001dd10 f   electron_sdk.pb.obj
 0001:0001cd40       ?CheckTypeAndMergeFrom@UndoParams@proto@sdk@electron@com@@UEAAXAEBVMessageLite@protobuf@google@@@Z 000000018001dd40 f   electron_sdk.pb.obj
 0001:0001cd50       ?MergeFrom@UndoParams@proto@sdk@electron@com@@QEAAXAEBV12345@@Z 000000018001dd50 f   electron_sdk.pb.obj
 0001:0001ce00       ?GetTypeName@UndoParams@proto@sdk@electron@com@@UEBA?AV?$basic_string@DU?$char_traits@D@std@@V?$allocator@D@2@@std@@XZ 000000018001de00 f   electron_sdk.pb.obj
 0001:0001ce30       ?CheckTypeAndMergeFrom@RedoParams@proto@sdk@electron@com@@UEAAXAEBVMessageLite@protobuf@google@@@Z 000000018001de30 f   electron_sdk.pb.obj
 0001:0001ce40       ?MergeFrom@RedoParams@proto@sdk@electron@com@@QEAAXAEBV12345@@Z 000000018001de40 f   electron_sdk.pb.obj
 0001:0001cef0       ?GetTypeName@RedoParams@proto@sdk@electron@com@@UEBA?AV?$basic_string@DU?$char_traits@D@std@@V?$allocator@D@2@@std@@XZ 000000018001def0 f   electron_sdk.pb.obj
 0001:0001cf20       ?Clear@MuteAudioParams@proto@sdk@electron@com@@UEAAXXZ 000000018001df20 f   electron_sdk.pb.obj
 0001:0001cf20       ?Clear@SetShowH323SubTabPageParams@proto@sdk@electron@com@@UEAAXXZ 000000018001df20 f   electron_sdk.pb.obj
 0001:0001cf20       ?Clear@SetShowInviteDlgTabPageParams@proto@sdk@electron@com@@UEAAXXZ 000000018001df20 f   electron_sdk.pb.obj
 0001:0001cf50       ?_InternalParse@MuteAudioParams@proto@sdk@electron@com@@UEAAPEBDPEBDPEAVParseContext@internal@protobuf@google@@@Z 000000018001df50 f   electron_sdk.pb.obj
 0001:0001cf50       ?_InternalParse@SetShowH323SubTabPageParams@proto@sdk@electron@com@@UEAAPEBDPEBDPEAVParseContext@internal@protobuf@google@@@Z 000000018001df50 f   electron_sdk.pb.obj
 0001:0001cf50       ?_InternalParse@SetShowInviteDlgTabPageParams@proto@sdk@electron@com@@UEAAPEBDPEBDPEAVParseContext@internal@protobuf@google@@@Z 000000018001df50 f   electron_sdk.pb.obj
 0001:0001d100       ?_InternalSerialize@MuteAudioParams@proto@sdk@electron@com@@UEBAPEAEPEAEPEAVEpsCopyOutputStream@io@protobuf@google@@@Z 000000018001e100 f   electron_sdk.pb.obj
 0001:0001d100       ?_InternalSerialize@SetShowH323SubTabPageParams@proto@sdk@electron@com@@UEBAPEAEPEAEPEAVEpsCopyOutputStream@io@protobuf@google@@@Z 000000018001e100 f   electron_sdk.pb.obj
 0001:0001d100       ?_InternalSerialize@SetShowInviteDlgTabPageParams@proto@sdk@electron@com@@UEBAPEAEPEAEPEAVEpsCopyOutputStream@io@protobuf@google@@@Z 000000018001e100 f   electron_sdk.pb.obj
 0001:0001d210       ?ByteSizeLong@MuteAudioParams@proto@sdk@electron@com@@UEBA_KXZ 000000018001e210 f   electron_sdk.pb.obj
 0001:0001d210       ?ByteSizeLong@SetShowH323SubTabPageParams@proto@sdk@electron@com@@UEBA_KXZ 000000018001e210 f   electron_sdk.pb.obj
 0001:0001d210       ?ByteSizeLong@SetShowInviteDlgTabPageParams@proto@sdk@electron@com@@UEBA_KXZ 000000018001e210 f   electron_sdk.pb.obj
 0001:0001d280       ?CheckTypeAndMergeFrom@MuteAudioParams@proto@sdk@electron@com@@UEAAXAEBVMessageLite@protobuf@google@@@Z 000000018001e280 f   electron_sdk.pb.obj
 0001:0001d290       ?MergeFrom@MuteAudioParams@proto@sdk@electron@com@@QEAAXAEBV12345@@Z 000000018001e290 f   electron_sdk.pb.obj
 0001:0001d350       ?GetTypeName@MuteAudioParams@proto@sdk@electron@com@@UEBA?AV?$basic_string@DU?$char_traits@D@std@@V?$allocator@D@2@@std@@XZ 000000018001e350 f   electron_sdk.pb.obj
 0001:0001d380       ?CheckTypeAndMergeFrom@UnmuteAudioParams@proto@sdk@electron@com@@UEAAXAEBVMessageLite@protobuf@google@@@Z 000000018001e380 f   electron_sdk.pb.obj
 0001:0001d390       ?MergeFrom@UnmuteAudioParams@proto@sdk@electron@com@@QEAAXAEBV12345@@Z 000000018001e390 f   electron_sdk.pb.obj
 0001:0001d440       ?GetTypeName@UnmuteAudioParams@proto@sdk@electron@com@@UEBA?AV?$basic_string@DU?$char_traits@D@std@@V?$allocator@D@2@@std@@XZ 000000018001e440 f   electron_sdk.pb.obj
 0001:0001d470       ?CheckTypeAndMergeFrom@EnablePlayChimeWhenEnterOrExitParams@proto@sdk@electron@com@@UEAAXAEBVMessageLite@protobuf@google@@@Z 000000018001e470 f   electron_sdk.pb.obj
 0001:0001d480       ?MergeFrom@EnablePlayChimeWhenEnterOrExitParams@proto@sdk@electron@com@@QEAAXAEBV12345@@Z 000000018001e480 f   electron_sdk.pb.obj
 0001:0001d530       ?GetTypeName@EnablePlayChimeWhenEnterOrExitParams@proto@sdk@electron@com@@UEBA?AV?$basic_string@DU?$char_traits@D@std@@V?$allocator@D@2@@std@@XZ 000000018001e530 f   electron_sdk.pb.obj
 0001:0001d560       ?CheckTypeAndMergeFrom@EnableMuteOnEntryParams@proto@sdk@electron@com@@UEAAXAEBVMessageLite@protobuf@google@@@Z 000000018001e560 f   electron_sdk.pb.obj
 0001:0001d570       ?MergeFrom@EnableMuteOnEntryParams@proto@sdk@electron@com@@QEAAXAEBV12345@@Z 000000018001e570 f   electron_sdk.pb.obj
 0001:0001d630       ?GetTypeName@EnableMuteOnEntryParams@proto@sdk@electron@com@@UEBA?AV?$basic_string@DU?$char_traits@D@std@@V?$allocator@D@2@@std@@XZ 000000018001e630 f   electron_sdk.pb.obj
 0001:0001d660       ?CheckTypeAndMergeFrom@EnablePlayMeetingAudioParams@proto@sdk@electron@com@@UEAAXAEBVMessageLite@protobuf@google@@@Z 000000018001e660 f   electron_sdk.pb.obj
 0001:0001d670       ?MergeFrom@EnablePlayMeetingAudioParams@proto@sdk@electron@com@@QEAAXAEBV12345@@Z 000000018001e670 f   electron_sdk.pb.obj
 0001:0001d720       ?GetTypeName@EnablePlayMeetingAudioParams@proto@sdk@electron@com@@UEBA?AV?$basic_string@DU?$char_traits@D@std@@V?$allocator@D@2@@std@@XZ 000000018001e720 f   electron_sdk.pb.obj
 0001:0001d750       ?CheckTypeAndMergeFrom@EnableInviteButtonOnMeetingUIParams@proto@sdk@electron@com@@UEAAXAEBVMessageLite@protobuf@google@@@Z 000000018001e750 f   electron_sdk.pb.obj
 0001:0001d760       ?MergeFrom@EnableInviteButtonOnMeetingUIParams@proto@sdk@electron@com@@QEAAXAEBV12345@@Z 000000018001e760 f   electron_sdk.pb.obj
 0001:0001d810       ?GetTypeName@EnableInviteButtonOnMeetingUIParams@proto@sdk@electron@com@@UEBA?AV?$basic_string@DU?$char_traits@D@std@@V?$allocator@D@2@@std@@XZ 000000018001e810 f   electron_sdk.pb.obj
 0001:0001d840       ?CheckTypeAndMergeFrom@SetFloatVideoPosParams@proto@sdk@electron@com@@UEAAXAEBVMessageLite@protobuf@google@@@Z 000000018001e840 f   electron_sdk.pb.obj
 0001:0001d850       ?MergeFrom@SetFloatVideoPosParams@proto@sdk@electron@com@@QEAAXAEBV12345@@Z 000000018001e850 f   electron_sdk.pb.obj
 0001:0001d9c0       ?GetTypeName@SetFloatVideoPosParams@proto@sdk@electron@com@@UEBA?AV?$basic_string@DU?$char_traits@D@std@@V?$allocator@D@2@@std@@XZ 000000018001e9c0 f   electron_sdk.pb.obj
 0001:0001d9f0       ?CheckTypeAndMergeFrom@SetBottomFloatToolBarWndVisibilityParams@proto@sdk@electron@com@@UEAAXAEBVMessageLite@protobuf@google@@@Z 000000018001e9f0 f   electron_sdk.pb.obj
 0001:0001da00       ?MergeFrom@SetBottomFloatToolBarWndVisibilityParams@proto@sdk@electron@com@@QEAAXAEBV12345@@Z 000000018001ea00 f   electron_sdk.pb.obj
 0001:0001dab0       ?GetTypeName@SetBottomFloatToolBarWndVisibilityParams@proto@sdk@electron@com@@UEBA?AV?$basic_string@DU?$char_traits@D@std@@V?$allocator@D@2@@std@@XZ 000000018001eab0 f   electron_sdk.pb.obj
 0001:0001dae0       ?CheckTypeAndMergeFrom@SetSharingToolBarVisibilityParams@proto@sdk@electron@com@@UEAAXAEBVMessageLite@protobuf@google@@@Z 000000018001eae0 f   electron_sdk.pb.obj
 0001:0001daf0       ?MergeFrom@SetSharingToolBarVisibilityParams@proto@sdk@electron@com@@QEAAXAEBV12345@@Z 000000018001eaf0 f   electron_sdk.pb.obj
 0001:0001dba0       ?GetTypeName@SetSharingToolBarVisibilityParams@proto@sdk@electron@com@@UEBA?AV?$basic_string@DU?$char_traits@D@std@@V?$allocator@D@2@@std@@XZ 000000018001eba0 f   electron_sdk.pb.obj
 0001:0001dbd0       ?CheckTypeAndMergeFrom@SetDirectShareMonitorIDParams@proto@sdk@electron@com@@UEAAXAEBVMessageLite@protobuf@google@@@Z 000000018001ebd0 f   electron_sdk.pb.obj
 0001:0001dbe0       ?MergeFrom@SetDirectShareMonitorIDParams@proto@sdk@electron@com@@QEAAXAEBV12345@@Z 000000018001ebe0 f   electron_sdk.pb.obj
 0001:0001dcb0       ?GetTypeName@SetDirectShareMonitorIDParams@proto@sdk@electron@com@@UEBA?AV?$basic_string@DU?$char_traits@D@std@@V?$allocator@D@2@@std@@XZ 000000018001ecb0 f   electron_sdk.pb.obj
 0001:0001dce0       ?CheckTypeAndMergeFrom@SetMeetingUIPosParams@proto@sdk@electron@com@@UEAAXAEBVMessageLite@protobuf@google@@@Z 000000018001ece0 f   electron_sdk.pb.obj
 0001:0001dcf0       ?MergeFrom@SetMeetingUIPosParams@proto@sdk@electron@com@@QEAAXAEBV12345@@Z 000000018001ecf0 f   electron_sdk.pb.obj
 0001:0001de60       ?GetTypeName@SetMeetingUIPosParams@proto@sdk@electron@com@@UEBA?AV?$basic_string@DU?$char_traits@D@std@@V?$allocator@D@2@@std@@XZ 000000018001ee60 f   electron_sdk.pb.obj
 0001:0001de90       ?CheckTypeAndMergeFrom@DisableWaitingForHostDialogParams@proto@sdk@electron@com@@UEAAXAEBVMessageLite@protobuf@google@@@Z 000000018001ee90 f   electron_sdk.pb.obj
 0001:0001dea0       ?MergeFrom@DisableWaitingForHostDialogParams@proto@sdk@electron@com@@QEAAXAEBV12345@@Z 000000018001eea0 f   electron_sdk.pb.obj
 0001:0001df50       ?GetTypeName@DisableWaitingForHostDialogParams@proto@sdk@electron@com@@UEBA?AV?$basic_string@DU?$char_traits@D@std@@V?$allocator@D@2@@std@@XZ 000000018001ef50 f   electron_sdk.pb.obj
 0001:0001df80       ?CheckTypeAndMergeFrom@DisablePopupMeetingWrongPSWDlgParams@proto@sdk@electron@com@@UEAAXAEBVMessageLite@protobuf@google@@@Z 000000018001ef80 f   electron_sdk.pb.obj
 0001:0001df90       ?MergeFrom@DisablePopupMeetingWrongPSWDlgParams@proto@sdk@electron@com@@QEAAXAEBV12345@@Z 000000018001ef90 f   electron_sdk.pb.obj
 0001:0001e040       ?GetTypeName@DisablePopupMeetingWrongPSWDlgParams@proto@sdk@electron@com@@UEBA?AV?$basic_string@DU?$char_traits@D@std@@V?$allocator@D@2@@std@@XZ 000000018001f040 f   electron_sdk.pb.obj
 0001:0001e070       ?CheckTypeAndMergeFrom@EnableAutoEndOtherMeetingWhenStartMeetingParams@proto@sdk@electron@com@@UEAAXAEBVMessageLite@protobuf@google@@@Z 000000018001f070 f   electron_sdk.pb.obj
 0001:0001e080       ?MergeFrom@EnableAutoEndOtherMeetingWhenStartMeetingParams@proto@sdk@electron@com@@QEAAXAEBV12345@@Z 000000018001f080 f   electron_sdk.pb.obj
 0001:0001e130       ?GetTypeName@EnableAutoEndOtherMeetingWhenStartMeetingParams@proto@sdk@electron@com@@UEBA?AV?$basic_string@DU?$char_traits@D@std@@V?$allocator@D@2@@std@@XZ 000000018001f130 f   electron_sdk.pb.obj
 0001:0001e160       ?CheckTypeAndMergeFrom@EnableLButtonDBClick4SwitchFullScreenModeParams@proto@sdk@electron@com@@UEAAXAEBVMessageLite@protobuf@google@@@Z 000000018001f160 f   electron_sdk.pb.obj
 0001:0001e170       ?MergeFrom@EnableLButtonDBClick4SwitchFullScreenModeParams@proto@sdk@electron@com@@QEAAXAEBV12345@@Z 000000018001f170 f   electron_sdk.pb.obj
 0001:0001e220       ?GetTypeName@EnableLButtonDBClick4SwitchFullScreenModeParams@proto@sdk@electron@com@@UEBA?AV?$basic_string@DU?$char_traits@D@std@@V?$allocator@D@2@@std@@XZ 000000018001f220 f   electron_sdk.pb.obj
 0001:0001e250       ?CheckTypeAndMergeFrom@SetFloatVideoWndVisibilityParams@proto@sdk@electron@com@@UEAAXAEBVMessageLite@protobuf@google@@@Z 000000018001f250 f   electron_sdk.pb.obj
 0001:0001e260       ?MergeFrom@SetFloatVideoWndVisibilityParams@proto@sdk@electron@com@@QEAAXAEBV12345@@Z 000000018001f260 f   electron_sdk.pb.obj
 0001:0001e310       ?GetTypeName@SetFloatVideoWndVisibilityParams@proto@sdk@electron@com@@UEBA?AV?$basic_string@DU?$char_traits@D@std@@V?$allocator@D@2@@std@@XZ 000000018001f310 f   electron_sdk.pb.obj
 0001:0001e340       ?CheckTypeAndMergeFrom@PrePopulateWebinarRegistrationInfoParams@proto@sdk@electron@com@@UEAAXAEBVMessageLite@protobuf@google@@@Z 000000018001f340 f   electron_sdk.pb.obj
 0001:0001e350       ?MergeFrom@PrePopulateWebinarRegistrationInfoParams@proto@sdk@electron@com@@QEAAXAEBV12345@@Z 000000018001f350 f   electron_sdk.pb.obj
 0001:0001e480       ?GetTypeName@PrePopulateWebinarRegistrationInfoParams@proto@sdk@electron@com@@UEBA?AV?$basic_string@DU?$char_traits@D@std@@V?$allocator@D@2@@std@@XZ 000000018001f480 f   electron_sdk.pb.obj
 0001:0001e4b0       ?CheckTypeAndMergeFrom@EnableAutoAdjustSpeakerVolumeWhenJoinAudioParams@proto@sdk@electron@com@@UEAAXAEBVMessageLite@protobuf@google@@@Z 000000018001f4b0 f   electron_sdk.pb.obj
 0001:0001e4c0       ?MergeFrom@EnableAutoAdjustSpeakerVolumeWhenJoinAudioParams@proto@sdk@electron@com@@QEAAXAEBV12345@@Z 000000018001f4c0 f   electron_sdk.pb.obj
 0001:0001e570       ?GetTypeName@EnableAutoAdjustSpeakerVolumeWhenJoinAudioParams@proto@sdk@electron@com@@UEBA?AV?$basic_string@DU?$char_traits@D@std@@V?$allocator@D@2@@std@@XZ 000000018001f570 f   electron_sdk.pb.obj
 0001:0001e5a0       ?CheckTypeAndMergeFrom@EnableAutoAdjustMicVolumeWhenJoinAudioParams@proto@sdk@electron@com@@UEAAXAEBVMessageLite@protobuf@google@@@Z 000000018001f5a0 f   electron_sdk.pb.obj
 0001:0001e5b0       ?MergeFrom@EnableAutoAdjustMicVolumeWhenJoinAudioParams@proto@sdk@electron@com@@QEAAXAEBV12345@@Z 000000018001f5b0 f   electron_sdk.pb.obj
 0001:0001e660       ?GetTypeName@EnableAutoAdjustMicVolumeWhenJoinAudioParams@proto@sdk@electron@com@@UEBA?AV?$basic_string@DU?$char_traits@D@std@@V?$allocator@D@2@@std@@XZ 000000018001f660 f   electron_sdk.pb.obj
 0001:0001e690       ?Clear@ConfigDSCPParams@proto@sdk@electron@com@@UEAAXXZ 000000018001f690 f   electron_sdk.pb.obj
 0001:0001e6c0       ?_InternalParse@ConfigDSCPParams@proto@sdk@electron@com@@UEAAPEBDPEBDPEAVParseContext@internal@protobuf@google@@@Z 000000018001f6c0 f   electron_sdk.pb.obj
 0001:0001e8f0       ?_InternalSerialize@ConfigDSCPParams@proto@sdk@electron@com@@UEBAPEAEPEAEPEAVEpsCopyOutputStream@io@protobuf@google@@@Z 000000018001f8f0 f   electron_sdk.pb.obj
 0001:0001ea50       ?ByteSizeLong@ConfigDSCPParams@proto@sdk@electron@com@@UEBA_KXZ 000000018001fa50 f   electron_sdk.pb.obj
 0001:0001eb10       ?CheckTypeAndMergeFrom@ConfigDSCPParams@proto@sdk@electron@com@@UEAAXAEBVMessageLite@protobuf@google@@@Z 000000018001fb10 f   electron_sdk.pb.obj
 0001:0001eb20       ?MergeFrom@ConfigDSCPParams@proto@sdk@electron@com@@QEAAXAEBV12345@@Z 000000018001fb20 f   electron_sdk.pb.obj
 0001:0001ebf0       ?GetTypeName@ConfigDSCPParams@proto@sdk@electron@com@@UEBA?AV?$basic_string@DU?$char_traits@D@std@@V?$allocator@D@2@@std@@XZ 000000018001fbf0 f   electron_sdk.pb.obj
 0001:0001ec20       ?CheckTypeAndMergeFrom@EnableHIdeFullPhoneNumber4PureCallinUserParams@proto@sdk@electron@com@@UEAAXAEBVMessageLite@protobuf@google@@@Z 000000018001fc20 f   electron_sdk.pb.obj
 0001:0001ec30       ?MergeFrom@EnableHIdeFullPhoneNumber4PureCallinUserParams@proto@sdk@electron@com@@QEAAXAEBV12345@@Z 000000018001fc30 f   electron_sdk.pb.obj
 0001:0001ece0       ?GetTypeName@EnableHIdeFullPhoneNumber4PureCallinUserParams@proto@sdk@electron@com@@UEBA?AV?$basic_string@DU?$char_traits@D@std@@V?$allocator@D@2@@std@@XZ 000000018001fce0 f   electron_sdk.pb.obj
 0001:0001ed10       ?CheckTypeAndMergeFrom@EnableShareIOSDeviceParams@proto@sdk@electron@com@@UEAAXAEBVMessageLite@protobuf@google@@@Z 000000018001fd10 f   electron_sdk.pb.obj
 0001:0001ed20       ?MergeFrom@EnableShareIOSDeviceParams@proto@sdk@electron@com@@QEAAXAEBV12345@@Z 000000018001fd20 f   electron_sdk.pb.obj
 0001:0001edd0       ?GetTypeName@EnableShareIOSDeviceParams@proto@sdk@electron@com@@UEBA?AV?$basic_string@DU?$char_traits@D@std@@V?$allocator@D@2@@std@@XZ 000000018001fdd0 f   electron_sdk.pb.obj
 0001:0001ee00       ?CheckTypeAndMergeFrom@EnableShareWhiteBoardParams@proto@sdk@electron@com@@UEAAXAEBVMessageLite@protobuf@google@@@Z 000000018001fe00 f   electron_sdk.pb.obj
 0001:0001ee10       ?MergeFrom@EnableShareWhiteBoardParams@proto@sdk@electron@com@@QEAAXAEBV12345@@Z 000000018001fe10 f   electron_sdk.pb.obj
 0001:0001eec0       ?GetTypeName@EnableShareWhiteBoardParams@proto@sdk@electron@com@@UEBA?AV?$basic_string@DU?$char_traits@D@std@@V?$allocator@D@2@@std@@XZ 000000018001fec0 f   electron_sdk.pb.obj
 0001:0001eef0       ?CheckTypeAndMergeFrom@EnableLengthLimitationOfMeetingNumberParams@proto@sdk@electron@com@@UEAAXAEBVMessageLite@protobuf@google@@@Z 000000018001fef0 f   electron_sdk.pb.obj
 0001:0001ef00       ?MergeFrom@EnableLengthLimitationOfMeetingNumberParams@proto@sdk@electron@com@@QEAAXAEBV12345@@Z 000000018001ff00 f   electron_sdk.pb.obj
 0001:0001efb0       ?GetTypeName@EnableLengthLimitationOfMeetingNumberParams@proto@sdk@electron@com@@UEBA?AV?$basic_string@DU?$char_traits@D@std@@V?$allocator@D@2@@std@@XZ 000000018001ffb0 f   electron_sdk.pb.obj
 0001:0001efe0       ?CheckTypeAndMergeFrom@ForceDisableMultiShareParams@proto@sdk@electron@com@@UEAAXAEBVMessageLite@protobuf@google@@@Z 000000018001ffe0 f   electron_sdk.pb.obj
 0001:0001eff0       ?MergeFrom@ForceDisableMultiShareParams@proto@sdk@electron@com@@QEAAXAEBV12345@@Z 000000018001fff0 f   electron_sdk.pb.obj
 0001:0001f0a0       ?GetTypeName@ForceDisableMultiShareParams@proto@sdk@electron@com@@UEBA?AV?$basic_string@DU?$char_traits@D@std@@V?$allocator@D@2@@std@@XZ 00000001800200a0 f   electron_sdk.pb.obj
 0001:0001f0d0       ?CheckTypeAndMergeFrom@EnableZoomDocsParams@proto@sdk@electron@com@@UEAAXAEBVMessageLite@protobuf@google@@@Z 00000001800200d0 f   electron_sdk.pb.obj
 0001:0001f0e0       ?MergeFrom@EnableZoomDocsParams@proto@sdk@electron@com@@QEAAXAEBV12345@@Z 00000001800200e0 f   electron_sdk.pb.obj
 0001:0001f190       ?GetTypeName@EnableZoomDocsParams@proto@sdk@electron@com@@UEBA?AV?$basic_string@DU?$char_traits@D@std@@V?$allocator@D@2@@std@@XZ 0000000180020190 f   electron_sdk.pb.obj
 0001:0001f1c0       ?CheckTypeAndMergeFrom@EnableLocalRecordingConverProgressBarDialogParams@proto@sdk@electron@com@@UEAAXAEBVMessageLite@protobuf@google@@@Z 00000001800201c0 f   electron_sdk.pb.obj
 0001:0001f1d0       ?MergeFrom@EnableLocalRecordingConverProgressBarDialogParams@proto@sdk@electron@com@@QEAAXAEBV12345@@Z 00000001800201d0 f   electron_sdk.pb.obj
 0001:0001f280       ?GetTypeName@EnableLocalRecordingConverProgressBarDialogParams@proto@sdk@electron@com@@UEBA?AV?$basic_string@DU?$char_traits@D@std@@V?$allocator@D@2@@std@@XZ 0000000180020280 f   electron_sdk.pb.obj
 0001:0001f2b0       ?CheckTypeAndMergeFrom@SetMaxDurationForOnlyHostInMeetingParams@proto@sdk@electron@com@@UEAAXAEBVMessageLite@protobuf@google@@@Z 00000001800202b0 f   electron_sdk.pb.obj
 0001:0001f2c0       ?MergeFrom@SetMaxDurationForOnlyHostInMeetingParams@proto@sdk@electron@com@@QEAAXAEBV12345@@Z 00000001800202c0 f   electron_sdk.pb.obj
 0001:0001f370       ?GetTypeName@SetMaxDurationForOnlyHostInMeetingParams@proto@sdk@electron@com@@UEBA?AV?$basic_string@DU?$char_traits@D@std@@V?$allocator@D@2@@std@@XZ 0000000180020370 f   electron_sdk.pb.obj
 0001:0001f3a0       ?CheckTypeAndMergeFrom@EnableApproveRemoteControlDlgParams@proto@sdk@electron@com@@UEAAXAEBVMessageLite@protobuf@google@@@Z 00000001800203a0 f   electron_sdk.pb.obj
 0001:0001f3b0       ?MergeFrom@EnableApproveRemoteControlDlgParams@proto@sdk@electron@com@@QEAAXAEBV12345@@Z 00000001800203b0 f   electron_sdk.pb.obj
 0001:0001f460       ?GetTypeName@EnableApproveRemoteControlDlgParams@proto@sdk@electron@com@@UEBA?AV?$basic_string@DU?$char_traits@D@std@@V?$allocator@D@2@@std@@XZ 0000000180020460 f   electron_sdk.pb.obj
 0001:0001f490       ?CheckTypeAndMergeFrom@EnableDeclineRemoteControlResponseDlgParams@proto@sdk@electron@com@@UEAAXAEBVMessageLite@protobuf@google@@@Z 0000000180020490 f   electron_sdk.pb.obj
 0001:0001f4a0       ?MergeFrom@EnableDeclineRemoteControlResponseDlgParams@proto@sdk@electron@com@@QEAAXAEBV12345@@Z 00000001800204a0 f   electron_sdk.pb.obj
 0001:0001f550       ?GetTypeName@EnableDeclineRemoteControlResponseDlgParams@proto@sdk@electron@com@@UEBA?AV?$basic_string@DU?$char_traits@D@std@@V?$allocator@D@2@@std@@XZ 0000000180020550 f   electron_sdk.pb.obj
 0001:0001f580       ?CheckTypeAndMergeFrom@EnableLeaveMeetingOptionForHostParams@proto@sdk@electron@com@@UEAAXAEBVMessageLite@protobuf@google@@@Z 0000000180020580 f   electron_sdk.pb.obj
 0001:0001f590       ?MergeFrom@EnableLeaveMeetingOptionForHostParams@proto@sdk@electron@com@@QEAAXAEBV12345@@Z 0000000180020590 f   electron_sdk.pb.obj
 0001:0001f640       ?GetTypeName@EnableLeaveMeetingOptionForHostParams@proto@sdk@electron@com@@UEBA?AV?$basic_string@DU?$char_traits@D@std@@V?$allocator@D@2@@std@@XZ 0000000180020640 f   electron_sdk.pb.obj
 0001:0001f670       ?CheckTypeAndMergeFrom@EnableVideoButtonOnMeetingUIParams@proto@sdk@electron@com@@UEAAXAEBVMessageLite@protobuf@google@@@Z 0000000180020670 f   electron_sdk.pb.obj
 0001:0001f680       ?MergeFrom@EnableVideoButtonOnMeetingUIParams@proto@sdk@electron@com@@QEAAXAEBV12345@@Z 0000000180020680 f   electron_sdk.pb.obj
 0001:0001f730       ?GetTypeName@EnableVideoButtonOnMeetingUIParams@proto@sdk@electron@com@@UEBA?AV?$basic_string@DU?$char_traits@D@std@@V?$allocator@D@2@@std@@XZ 0000000180020730 f   electron_sdk.pb.obj
 0001:0001f760       ?CheckTypeAndMergeFrom@EnableAudioButtonOnMeetingUIParams@proto@sdk@electron@com@@UEAAXAEBVMessageLite@protobuf@google@@@Z 0000000180020760 f   electron_sdk.pb.obj
 0001:0001f770       ?MergeFrom@EnableAudioButtonOnMeetingUIParams@proto@sdk@electron@com@@QEAAXAEBV12345@@Z 0000000180020770 f   electron_sdk.pb.obj
 0001:0001f820       ?GetTypeName@EnableAudioButtonOnMeetingUIParams@proto@sdk@electron@com@@UEBA?AV?$basic_string@DU?$char_traits@D@std@@V?$allocator@D@2@@std@@XZ 0000000180020820 f   electron_sdk.pb.obj
 0001:0001f850       ?CheckTypeAndMergeFrom@EnableEnterAndExitFullScreenButtonOnMeetingUIParams@proto@sdk@electron@com@@UEAAXAEBVMessageLite@protobuf@google@@@Z 0000000180020850 f   electron_sdk.pb.obj
 0001:0001f860       ?MergeFrom@EnableEnterAndExitFullScreenButtonOnMeetingUIParams@proto@sdk@electron@com@@QEAAXAEBV12345@@Z 0000000180020860 f   electron_sdk.pb.obj
 0001:0001f910       ?GetTypeName@EnableEnterAndExitFullScreenButtonOnMeetingUIParams@proto@sdk@electron@com@@UEBA?AV?$basic_string@DU?$char_traits@D@std@@V?$allocator@D@2@@std@@XZ 0000000180020910 f   electron_sdk.pb.obj
 0001:0001f940       ?CheckTypeAndMergeFrom@RedirectClickShareBTNEventParams@proto@sdk@electron@com@@UEAAXAEBVMessageLite@protobuf@google@@@Z 0000000180020940 f   electron_sdk.pb.obj
 0001:0001f950       ?MergeFrom@RedirectClickShareBTNEventParams@proto@sdk@electron@com@@QEAAXAEBV12345@@Z 0000000180020950 f   electron_sdk.pb.obj
 0001:0001fa00       ?GetTypeName@RedirectClickShareBTNEventParams@proto@sdk@electron@com@@UEBA?AV?$basic_string@DU?$char_traits@D@std@@V?$allocator@D@2@@std@@XZ 0000000180020a00 f   electron_sdk.pb.obj
 0001:0001fa30       ?CheckTypeAndMergeFrom@RedirectClickEndMeetingBTNEventParams@proto@sdk@electron@com@@UEAAXAEBVMessageLite@protobuf@google@@@Z 0000000180020a30 f   electron_sdk.pb.obj
 0001:0001fa40       ?MergeFrom@RedirectClickEndMeetingBTNEventParams@proto@sdk@electron@com@@QEAAXAEBV12345@@Z 0000000180020a40 f   electron_sdk.pb.obj
 0001:0001faf0       ?GetTypeName@RedirectClickEndMeetingBTNEventParams@proto@sdk@electron@com@@UEBA?AV?$basic_string@DU?$char_traits@D@std@@V?$allocator@D@2@@std@@XZ 0000000180020af0 f   electron_sdk.pb.obj
 0001:0001fb20       ?CheckTypeAndMergeFrom@RedirectFreeMeetingEndingReminderDlgParams@proto@sdk@electron@com@@UEAAXAEBVMessageLite@protobuf@google@@@Z 0000000180020b20 f   electron_sdk.pb.obj
 0001:0001fb30       ?MergeFrom@RedirectFreeMeetingEndingReminderDlgParams@proto@sdk@electron@com@@QEAAXAEBV12345@@Z 0000000180020b30 f   electron_sdk.pb.obj
 0001:0001fbe0       ?GetTypeName@RedirectFreeMeetingEndingReminderDlgParams@proto@sdk@electron@com@@UEBA?AV?$basic_string@DU?$char_traits@D@std@@V?$allocator@D@2@@std@@XZ 0000000180020be0 f   electron_sdk.pb.obj
 0001:0001fc10       ?CheckTypeAndMergeFrom@RedirectClickCustomLiveStreamMenuEventParams@proto@sdk@electron@com@@UEAAXAEBVMessageLite@protobuf@google@@@Z 0000000180020c10 f   electron_sdk.pb.obj
 0001:0001fc20       ?MergeFrom@RedirectClickCustomLiveStreamMenuEventParams@proto@sdk@electron@com@@QEAAXAEBV12345@@Z 0000000180020c20 f   electron_sdk.pb.obj
 0001:0001fcd0       ?GetTypeName@RedirectClickCustomLiveStreamMenuEventParams@proto@sdk@electron@com@@UEBA?AV?$basic_string@DU?$char_traits@D@std@@V?$allocator@D@2@@std@@XZ 0000000180020cd0 f   electron_sdk.pb.obj
 0001:0001fd00       ?CheckTypeAndMergeFrom@RedirectClickParticipantListBTNEventParams@proto@sdk@electron@com@@UEAAXAEBVMessageLite@protobuf@google@@@Z 0000000180020d00 f   electron_sdk.pb.obj
 0001:0001fd10       ?MergeFrom@RedirectClickParticipantListBTNEventParams@proto@sdk@electron@com@@QEAAXAEBV12345@@Z 0000000180020d10 f   electron_sdk.pb.obj
 0001:0001fdc0       ?GetTypeName@RedirectClickParticipantListBTNEventParams@proto@sdk@electron@com@@UEBA?AV?$basic_string@DU?$char_traits@D@std@@V?$allocator@D@2@@std@@XZ 0000000180020dc0 f   electron_sdk.pb.obj
 0001:0001fdf0       ?CheckTypeAndMergeFrom@RedirectClickCCBTNEventParams@proto@sdk@electron@com@@UEAAXAEBVMessageLite@protobuf@google@@@Z 0000000180020df0 f   electron_sdk.pb.obj
 0001:0001fe00       ?MergeFrom@RedirectClickCCBTNEventParams@proto@sdk@electron@com@@QEAAXAEBV12345@@Z 0000000180020e00 f   electron_sdk.pb.obj
 0001:0001feb0       ?GetTypeName@RedirectClickCCBTNEventParams@proto@sdk@electron@com@@UEBA?AV?$basic_string@DU?$char_traits@D@std@@V?$allocator@D@2@@std@@XZ 0000000180020eb0 f   electron_sdk.pb.obj
 0001:0001fee0       ?CheckTypeAndMergeFrom@RedirectClickAudioBTNEventParams@proto@sdk@electron@com@@UEAAXAEBVMessageLite@protobuf@google@@@Z 0000000180020ee0 f   electron_sdk.pb.obj
 0001:0001fef0       ?MergeFrom@RedirectClickAudioBTNEventParams@proto@sdk@electron@com@@QEAAXAEBV12345@@Z 0000000180020ef0 f   electron_sdk.pb.obj
 0001:0001ffa0       ?GetTypeName@RedirectClickAudioBTNEventParams@proto@sdk@electron@com@@UEBA?AV?$basic_string@DU?$char_traits@D@std@@V?$allocator@D@2@@std@@XZ 0000000180020fa0 f   electron_sdk.pb.obj
 0001:0001ffd0       ?CheckTypeAndMergeFrom@RedirectClickAudioMenuBTNEventParams@proto@sdk@electron@com@@UEAAXAEBVMessageLite@protobuf@google@@@Z 0000000180020fd0 f   electron_sdk.pb.obj
 0001:0001ffe0       ?MergeFrom@RedirectClickAudioMenuBTNEventParams@proto@sdk@electron@com@@QEAAXAEBV12345@@Z 0000000180020fe0 f   electron_sdk.pb.obj
 0001:00020090       ?GetTypeName@RedirectClickAudioMenuBTNEventParams@proto@sdk@electron@com@@UEBA?AV?$basic_string@DU?$char_traits@D@std@@V?$allocator@D@2@@std@@XZ 0000000180021090 f   electron_sdk.pb.obj
 0001:000200c0       ?CheckTypeAndMergeFrom@RedirectMeetingWarningMsgParams@proto@sdk@electron@com@@UEAAXAEBVMessageLite@protobuf@google@@@Z 00000001800210c0 f   electron_sdk.pb.obj
 0001:000200d0       ?MergeFrom@RedirectMeetingWarningMsgParams@proto@sdk@electron@com@@QEAAXAEBV12345@@Z 00000001800210d0 f   electron_sdk.pb.obj
 0001:00020190       ?GetTypeName@RedirectMeetingWarningMsgParams@proto@sdk@electron@com@@UEBA?AV?$basic_string@DU?$char_traits@D@std@@V?$allocator@D@2@@std@@XZ 0000000180021190 f   electron_sdk.pb.obj
 0001:000201c0       ?CheckTypeAndMergeFrom@EnableToolTipsShowParams@proto@sdk@electron@com@@UEAAXAEBVMessageLite@protobuf@google@@@Z 00000001800211c0 f   electron_sdk.pb.obj
 0001:000201d0       ?MergeFrom@EnableToolTipsShowParams@proto@sdk@electron@com@@QEAAXAEBV12345@@Z 00000001800211d0 f   electron_sdk.pb.obj
 0001:00020280       ?GetTypeName@EnableToolTipsShowParams@proto@sdk@electron@com@@UEBA?AV?$basic_string@DU?$char_traits@D@std@@V?$allocator@D@2@@std@@XZ 0000000180021280 f   electron_sdk.pb.obj
 0001:000202b0       ?CheckTypeAndMergeFrom@EnableAirplayInstructionWindowParams@proto@sdk@electron@com@@UEAAXAEBVMessageLite@protobuf@google@@@Z 00000001800212b0 f   electron_sdk.pb.obj
 0001:000202c0       ?MergeFrom@EnableAirplayInstructionWindowParams@proto@sdk@electron@com@@QEAAXAEBV12345@@Z 00000001800212c0 f   electron_sdk.pb.obj
 0001:00020370       ?GetTypeName@EnableAirplayInstructionWindowParams@proto@sdk@electron@com@@UEBA?AV?$basic_string@DU?$char_traits@D@std@@V?$allocator@D@2@@std@@XZ 0000000180021370 f   electron_sdk.pb.obj
 0001:000203a0       ?CheckTypeAndMergeFrom@EnableClaimHostFeatureParams@proto@sdk@electron@com@@UEAAXAEBVMessageLite@protobuf@google@@@Z 00000001800213a0 f   electron_sdk.pb.obj
 0001:000203b0       ?MergeFrom@EnableClaimHostFeatureParams@proto@sdk@electron@com@@QEAAXAEBV12345@@Z 00000001800213b0 f   electron_sdk.pb.obj
 0001:00020460       ?GetTypeName@EnableClaimHostFeatureParams@proto@sdk@electron@com@@UEBA?AV?$basic_string@DU?$char_traits@D@std@@V?$allocator@D@2@@std@@XZ 0000000180021460 f   electron_sdk.pb.obj
 0001:00020490       ?CheckTypeAndMergeFrom@EnableAutoHideJoinAudioDialogParams@proto@sdk@electron@com@@UEAAXAEBVMessageLite@protobuf@google@@@Z 0000000180021490 f   electron_sdk.pb.obj
 0001:000204a0       ?MergeFrom@EnableAutoHideJoinAudioDialogParams@proto@sdk@electron@com@@QEAAXAEBV12345@@Z 00000001800214a0 f   electron_sdk.pb.obj
 0001:00020550       ?GetTypeName@EnableAutoHideJoinAudioDialogParams@proto@sdk@electron@com@@UEBA?AV?$basic_string@DU?$char_traits@D@std@@V?$allocator@D@2@@std@@XZ 0000000180021550 f   electron_sdk.pb.obj
 0001:00020580       ?CheckTypeAndMergeFrom@AlwaysShowIconOnTaskBarParams@proto@sdk@electron@com@@UEAAXAEBVMessageLite@protobuf@google@@@Z 0000000180021580 f   electron_sdk.pb.obj
 0001:00020590       ?MergeFrom@AlwaysShowIconOnTaskBarParams@proto@sdk@electron@com@@QEAAXAEBV12345@@Z 0000000180021590 f   electron_sdk.pb.obj
 0001:00020640       ?GetTypeName@AlwaysShowIconOnTaskBarParams@proto@sdk@electron@com@@UEBA?AV?$basic_string@DU?$char_traits@D@std@@V?$allocator@D@2@@std@@XZ 0000000180021640 f   electron_sdk.pb.obj
 0001:00020670       ?CheckTypeAndMergeFrom@DisableSplitScreenModeUIElementsParams@proto@sdk@electron@com@@UEAAXAEBVMessageLite@protobuf@google@@@Z 0000000180021670 f   electron_sdk.pb.obj
 0001:00020680       ?MergeFrom@DisableSplitScreenModeUIElementsParams@proto@sdk@electron@com@@QEAAXAEBV12345@@Z 0000000180021680 f   electron_sdk.pb.obj
 0001:00020730       ?GetTypeName@DisableSplitScreenModeUIElementsParams@proto@sdk@electron@com@@UEBA?AV?$basic_string@DU?$char_traits@D@std@@V?$allocator@D@2@@std@@XZ 0000000180021730 f   electron_sdk.pb.obj
 0001:00020760       ?CheckTypeAndMergeFrom@SetShowAudioUseComputerSoundChkboxParams@proto@sdk@electron@com@@UEAAXAEBVMessageLite@protobuf@google@@@Z 0000000180021760 f   electron_sdk.pb.obj
 0001:00020770       ?MergeFrom@SetShowAudioUseComputerSoundChkboxParams@proto@sdk@electron@com@@QEAAXAEBV12345@@Z 0000000180021770 f   electron_sdk.pb.obj
 0001:00020820       ?GetTypeName@SetShowAudioUseComputerSoundChkboxParams@proto@sdk@electron@com@@UEBA?AV?$basic_string@DU?$char_traits@D@std@@V?$allocator@D@2@@std@@XZ 0000000180021820 f   electron_sdk.pb.obj
 0001:00020850       ?CheckTypeAndMergeFrom@SetShowCallInTabParams@proto@sdk@electron@com@@UEAAXAEBVMessageLite@protobuf@google@@@Z 0000000180021850 f   electron_sdk.pb.obj
 0001:00020860       ?MergeFrom@SetShowCallInTabParams@proto@sdk@electron@com@@QEAAXAEBV12345@@Z 0000000180021860 f   electron_sdk.pb.obj
 0001:00020910       ?GetTypeName@SetShowCallInTabParams@proto@sdk@electron@com@@UEBA?AV?$basic_string@DU?$char_traits@D@std@@V?$allocator@D@2@@std@@XZ 0000000180021910 f   electron_sdk.pb.obj
 0001:00020940       ?CheckTypeAndMergeFrom@SetShowCallMeTabParams@proto@sdk@electron@com@@UEAAXAEBVMessageLite@protobuf@google@@@Z 0000000180021940 f   electron_sdk.pb.obj
 0001:00020950       ?MergeFrom@SetShowCallMeTabParams@proto@sdk@electron@com@@QEAAXAEBV12345@@Z 0000000180021950 f   electron_sdk.pb.obj
 0001:00020a00       ?GetTypeName@SetShowCallMeTabParams@proto@sdk@electron@com@@UEBA?AV?$basic_string@DU?$char_traits@D@std@@V?$allocator@D@2@@std@@XZ 0000000180021a00 f   electron_sdk.pb.obj
 0001:00020a30       ?CheckTypeAndMergeFrom@DisableTopMostAttr4SettingDialogParams@proto@sdk@electron@com@@UEAAXAEBVMessageLite@protobuf@google@@@Z 0000000180021a30 f   electron_sdk.pb.obj
 0001:00020a40       ?MergeFrom@DisableTopMostAttr4SettingDialogParams@proto@sdk@electron@com@@QEAAXAEBV12345@@Z 0000000180021a40 f   electron_sdk.pb.obj
 0001:00020af0       ?GetTypeName@DisableTopMostAttr4SettingDialogParams@proto@sdk@electron@com@@UEBA?AV?$basic_string@DU?$char_traits@D@std@@V?$allocator@D@2@@std@@XZ 0000000180021af0 f   electron_sdk.pb.obj
 0001:00020b20       ?CheckTypeAndMergeFrom@EnableGrabShareWithoutReminderParams@proto@sdk@electron@com@@UEAAXAEBVMessageLite@protobuf@google@@@Z 0000000180021b20 f   electron_sdk.pb.obj
 0001:00020b30       ?MergeFrom@EnableGrabShareWithoutReminderParams@proto@sdk@electron@com@@QEAAXAEBV12345@@Z 0000000180021b30 f   electron_sdk.pb.obj
 0001:00020be0       ?GetTypeName@EnableGrabShareWithoutReminderParams@proto@sdk@electron@com@@UEBA?AV?$basic_string@DU?$char_traits@D@std@@V?$allocator@D@2@@std@@XZ 0000000180021be0 f   electron_sdk.pb.obj
 0001:00020c10       ?CheckTypeAndMergeFrom@EnableShowShareSwitchMultiToSingleConfirmDlgParams@proto@sdk@electron@com@@UEAAXAEBVMessageLite@protobuf@google@@@Z 0000000180021c10 f   electron_sdk.pb.obj
 0001:00020c20       ?MergeFrom@EnableShowShareSwitchMultiToSingleConfirmDlgParams@proto@sdk@electron@com@@QEAAXAEBV12345@@Z 0000000180021c20 f   electron_sdk.pb.obj
 0001:00020cd0       ?GetTypeName@EnableShowShareSwitchMultiToSingleConfirmDlgParams@proto@sdk@electron@com@@UEBA?AV?$basic_string@DU?$char_traits@D@std@@V?$allocator@D@2@@std@@XZ 0000000180021cd0 f   electron_sdk.pb.obj
 0001:00020d00       ?CheckTypeAndMergeFrom@DisableFreeMeetingRemainTimeNotifyParams@proto@sdk@electron@com@@UEAAXAEBVMessageLite@protobuf@google@@@Z 0000000180021d00 f   electron_sdk.pb.obj
 0001:00020d10       ?MergeFrom@DisableFreeMeetingRemainTimeNotifyParams@proto@sdk@electron@com@@QEAAXAEBV12345@@Z 0000000180021d10 f   electron_sdk.pb.obj
 0001:00020dc0       ?GetTypeName@DisableFreeMeetingRemainTimeNotifyParams@proto@sdk@electron@com@@UEBA?AV?$basic_string@DU?$char_traits@D@std@@V?$allocator@D@2@@std@@XZ 0000000180021dc0 f   electron_sdk.pb.obj
 0001:00020df0       ?CheckTypeAndMergeFrom@HideChatItemOnMeetingUIParams@proto@sdk@electron@com@@UEAAXAEBVMessageLite@protobuf@google@@@Z 0000000180021df0 f   electron_sdk.pb.obj
 0001:00020e00       ?MergeFrom@HideChatItemOnMeetingUIParams@proto@sdk@electron@com@@QEAAXAEBV12345@@Z 0000000180021e00 f   electron_sdk.pb.obj
 0001:00020eb0       ?GetTypeName@HideChatItemOnMeetingUIParams@proto@sdk@electron@com@@UEBA?AV?$basic_string@DU?$char_traits@D@std@@V?$allocator@D@2@@std@@XZ 0000000180021eb0 f   electron_sdk.pb.obj
 0001:00020ee0       ?CheckTypeAndMergeFrom@HideRecordItemOnMeetingUIParams@proto@sdk@electron@com@@UEAAXAEBVMessageLite@protobuf@google@@@Z 0000000180021ee0 f   electron_sdk.pb.obj
 0001:00020ef0       ?MergeFrom@HideRecordItemOnMeetingUIParams@proto@sdk@electron@com@@QEAAXAEBV12345@@Z 0000000180021ef0 f   electron_sdk.pb.obj
 0001:00020fa0       ?GetTypeName@HideRecordItemOnMeetingUIParams@proto@sdk@electron@com@@UEBA?AV?$basic_string@DU?$char_traits@D@std@@V?$allocator@D@2@@std@@XZ 0000000180021fa0 f   electron_sdk.pb.obj
 0001:00020fd0       ?CheckTypeAndMergeFrom@HideUpgradeFreeMeetingButtonParams@proto@sdk@electron@com@@UEAAXAEBVMessageLite@protobuf@google@@@Z 0000000180021fd0 f   electron_sdk.pb.obj
 0001:00020fe0       ?MergeFrom@HideUpgradeFreeMeetingButtonParams@proto@sdk@electron@com@@QEAAXAEBV12345@@Z 0000000180021fe0 f   electron_sdk.pb.obj
 0001:00021090       ?GetTypeName@HideUpgradeFreeMeetingButtonParams@proto@sdk@electron@com@@UEBA?AV?$basic_string@DU?$char_traits@D@std@@V?$allocator@D@2@@std@@XZ 0000000180022090 f   electron_sdk.pb.obj
 0001:000210c0       ?CheckTypeAndMergeFrom@SetShowInviteDlgTabPageParams@proto@sdk@electron@com@@UEAAXAEBVMessageLite@protobuf@google@@@Z 00000001800220c0 f   electron_sdk.pb.obj
 0001:000210d0       ?MergeFrom@SetShowInviteDlgTabPageParams@proto@sdk@electron@com@@QEAAXAEBV12345@@Z 00000001800220d0 f   electron_sdk.pb.obj
 0001:00021190       ?GetTypeName@SetShowInviteDlgTabPageParams@proto@sdk@electron@com@@UEBA?AV?$basic_string@DU?$char_traits@D@std@@V?$allocator@D@2@@std@@XZ 0000000180022190 f   electron_sdk.pb.obj
 0001:000211c0       ?CheckTypeAndMergeFrom@SetShowH323SubTabPageParams@proto@sdk@electron@com@@UEAAXAEBVMessageLite@protobuf@google@@@Z 00000001800221c0 f   electron_sdk.pb.obj
 0001:000211d0       ?MergeFrom@SetShowH323SubTabPageParams@proto@sdk@electron@com@@QEAAXAEBV12345@@Z 00000001800221d0 f   electron_sdk.pb.obj
 0001:00021290       ?GetTypeName@SetShowH323SubTabPageParams@proto@sdk@electron@com@@UEBA?AV?$basic_string@DU?$char_traits@D@std@@V?$allocator@D@2@@std@@XZ 0000000180022290 f   electron_sdk.pb.obj
 0001:000212c0       ?CheckTypeAndMergeFrom@HideSwitchCameraButtonParams@proto@sdk@electron@com@@UEAAXAEBVMessageLite@protobuf@google@@@Z 00000001800222c0 f   electron_sdk.pb.obj
 0001:000212d0       ?MergeFrom@HideSwitchCameraButtonParams@proto@sdk@electron@com@@QEAAXAEBV12345@@Z 00000001800222d0 f   electron_sdk.pb.obj
 0001:00021380       ?GetTypeName@HideSwitchCameraButtonParams@proto@sdk@electron@com@@UEBA?AV?$basic_string@DU?$char_traits@D@std@@V?$allocator@D@2@@std@@XZ 0000000180022380 f   electron_sdk.pb.obj
 0001:000213b0       ?CheckTypeAndMergeFrom@HideCopyUrlOnInviteWindowParams@proto@sdk@electron@com@@UEAAXAEBVMessageLite@protobuf@google@@@Z 00000001800223b0 f   electron_sdk.pb.obj
 0001:000213c0       ?MergeFrom@HideCopyUrlOnInviteWindowParams@proto@sdk@electron@com@@QEAAXAEBV12345@@Z 00000001800223c0 f   electron_sdk.pb.obj
 0001:00021470       ?GetTypeName@HideCopyUrlOnInviteWindowParams@proto@sdk@electron@com@@UEBA?AV?$basic_string@DU?$char_traits@D@std@@V?$allocator@D@2@@std@@XZ 0000000180022470 f   electron_sdk.pb.obj
 0001:000214a0       ?CheckTypeAndMergeFrom@HideCopyInvitationOnInviteWindowParams@proto@sdk@electron@com@@UEAAXAEBVMessageLite@protobuf@google@@@Z 00000001800224a0 f   electron_sdk.pb.obj
 0001:000214b0       ?MergeFrom@HideCopyInvitationOnInviteWindowParams@proto@sdk@electron@com@@QEAAXAEBV12345@@Z 00000001800224b0 f   electron_sdk.pb.obj
 0001:00021560       ?GetTypeName@HideCopyInvitationOnInviteWindowParams@proto@sdk@electron@com@@UEBA?AV?$basic_string@DU?$char_traits@D@std@@V?$allocator@D@2@@std@@XZ 0000000180022560 f   electron_sdk.pb.obj
 0001:00021590       ?CheckTypeAndMergeFrom@HideKeypadButtonOnMeetingWindowParams@proto@sdk@electron@com@@UEAAXAEBVMessageLite@protobuf@google@@@Z 0000000180022590 f   electron_sdk.pb.obj
 0001:000215a0       ?MergeFrom@HideKeypadButtonOnMeetingWindowParams@proto@sdk@electron@com@@QEAAXAEBV12345@@Z 00000001800225a0 f   electron_sdk.pb.obj
 0001:00021650       ?GetTypeName@HideKeypadButtonOnMeetingWindowParams@proto@sdk@electron@com@@UEBA?AV?$basic_string@DU?$char_traits@D@std@@V?$allocator@D@2@@std@@XZ 0000000180022650 f   electron_sdk.pb.obj
 0001:00021680       ?CheckTypeAndMergeFrom@HideRemoteControlOnMeetingUIParams@proto@sdk@electron@com@@UEAAXAEBVMessageLite@protobuf@google@@@Z 0000000180022680 f   electron_sdk.pb.obj
 0001:00021690       ?MergeFrom@HideRemoteControlOnMeetingUIParams@proto@sdk@electron@com@@QEAAXAEBV12345@@Z 0000000180022690 f   electron_sdk.pb.obj
 0001:00021740       ?GetTypeName@HideRemoteControlOnMeetingUIParams@proto@sdk@electron@com@@UEBA?AV?$basic_string@DU?$char_traits@D@std@@V?$allocator@D@2@@std@@XZ 0000000180022740 f   electron_sdk.pb.obj
 0001:00021770       ?CheckTypeAndMergeFrom@HideQAOnMeetingUIParams@proto@sdk@electron@com@@UEAAXAEBVMessageLite@protobuf@google@@@Z 0000000180022770 f   electron_sdk.pb.obj
 0001:00021780       ?MergeFrom@HideQAOnMeetingUIParams@proto@sdk@electron@com@@QEAAXAEBV12345@@Z 0000000180022780 f   electron_sdk.pb.obj
 0001:00021830       ?GetTypeName@HideQAOnMeetingUIParams@proto@sdk@electron@com@@UEBA?AV?$basic_string@DU?$char_traits@D@std@@V?$allocator@D@2@@std@@XZ 0000000180022830 f   electron_sdk.pb.obj
 0001:00021860       ?CheckTypeAndMergeFrom@HidePollOnMeetingUIParams@proto@sdk@electron@com@@UEAAXAEBVMessageLite@protobuf@google@@@Z 0000000180022860 f   electron_sdk.pb.obj
 0001:00021870       ?MergeFrom@HidePollOnMeetingUIParams@proto@sdk@electron@com@@QEAAXAEBV12345@@Z 0000000180022870 f   electron_sdk.pb.obj
 0001:00021920       ?GetTypeName@HidePollOnMeetingUIParams@proto@sdk@electron@com@@UEBA?AV?$basic_string@DU?$char_traits@D@std@@V?$allocator@D@2@@std@@XZ 0000000180022920 f   electron_sdk.pb.obj
 0001:00021950       ?CheckTypeAndMergeFrom@EnableInputMeetingPasswordDlgParams@proto@sdk@electron@com@@UEAAXAEBVMessageLite@protobuf@google@@@Z 0000000180022950 f   electron_sdk.pb.obj
 0001:00021960       ?MergeFrom@EnableInputMeetingPasswordDlgParams@proto@sdk@electron@com@@QEAAXAEBV12345@@Z 0000000180022960 f   electron_sdk.pb.obj
 0001:00021a10       ?GetTypeName@EnableInputMeetingPasswordDlgParams@proto@sdk@electron@com@@UEBA?AV?$basic_string@DU?$char_traits@D@std@@V?$allocator@D@2@@std@@XZ 0000000180022a10 f   electron_sdk.pb.obj
 0001:00021a40       ?CheckTypeAndMergeFrom@EnableInputMeetingScreenNameDlgParams@proto@sdk@electron@com@@UEAAXAEBVMessageLite@protobuf@google@@@Z 0000000180022a40 f   electron_sdk.pb.obj
 0001:00021a50       ?MergeFrom@EnableInputMeetingScreenNameDlgParams@proto@sdk@electron@com@@QEAAXAEBV12345@@Z 0000000180022a50 f   electron_sdk.pb.obj
 0001:00021b00       ?GetTypeName@EnableInputMeetingScreenNameDlgParams@proto@sdk@electron@com@@UEBA?AV?$basic_string@DU?$char_traits@D@std@@V?$allocator@D@2@@std@@XZ 0000000180022b00 f   electron_sdk.pb.obj
 0001:00021b30       ?CheckTypeAndMergeFrom@RedirectWebinarNeedRegisterParams@proto@sdk@electron@com@@UEAAXAEBVMessageLite@protobuf@google@@@Z 0000000180022b30 f   electron_sdk.pb.obj
 0001:00021b40       ?MergeFrom@RedirectWebinarNeedRegisterParams@proto@sdk@electron@com@@QEAAXAEBV12345@@Z 0000000180022b40 f   electron_sdk.pb.obj
 0001:00021bf0       ?GetTypeName@RedirectWebinarNeedRegisterParams@proto@sdk@electron@com@@UEBA?AV?$basic_string@DU?$char_traits@D@std@@V?$allocator@D@2@@std@@XZ 0000000180022bf0 f   electron_sdk.pb.obj
 0001:00021c20       ?CheckTypeAndMergeFrom@RedirectEndOtherMeetingParams@proto@sdk@electron@com@@UEAAXAEBVMessageLite@protobuf@google@@@Z 0000000180022c20 f   electron_sdk.pb.obj
 0001:00021c30       ?MergeFrom@RedirectEndOtherMeetingParams@proto@sdk@electron@com@@QEAAXAEBV12345@@Z 0000000180022c30 f   electron_sdk.pb.obj
 0001:00021ce0       ?GetTypeName@RedirectEndOtherMeetingParams@proto@sdk@electron@com@@UEBA?AV?$basic_string@DU?$char_traits@D@std@@V?$allocator@D@2@@std@@XZ 0000000180022ce0 f   electron_sdk.pb.obj
 0001:00021d10       ?CheckTypeAndMergeFrom@EnableForceAutoStartMyVideoWhenJoinMeetingParams@proto@sdk@electron@com@@UEAAXAEBVMessageLite@protobuf@google@@@Z 0000000180022d10 f   electron_sdk.pb.obj
 0001:00021d20       ?MergeFrom@EnableForceAutoStartMyVideoWhenJoinMeetingParams@proto@sdk@electron@com@@QEAAXAEBV12345@@Z 0000000180022d20 f   electron_sdk.pb.obj
 0001:00021dd0       ?GetTypeName@EnableForceAutoStartMyVideoWhenJoinMeetingParams@proto@sdk@electron@com@@UEBA?AV?$basic_string@DU?$char_traits@D@std@@V?$allocator@D@2@@std@@XZ 0000000180022dd0 f   electron_sdk.pb.obj
 0001:00021e00       ?CheckTypeAndMergeFrom@EnableForceAutoStopMyVideoWhenJoinMeetingParams@proto@sdk@electron@com@@UEAAXAEBVMessageLite@protobuf@google@@@Z 0000000180022e00 f   electron_sdk.pb.obj
 0001:00021e10       ?MergeFrom@EnableForceAutoStopMyVideoWhenJoinMeetingParams@proto@sdk@electron@com@@QEAAXAEBV12345@@Z 0000000180022e10 f   electron_sdk.pb.obj
 0001:00021ec0       ?GetTypeName@EnableForceAutoStopMyVideoWhenJoinMeetingParams@proto@sdk@electron@com@@UEBA?AV?$basic_string@DU?$char_traits@D@std@@V?$allocator@D@2@@std@@XZ 0000000180022ec0 f   electron_sdk.pb.obj
 0001:00021ef0       ?CheckTypeAndMergeFrom@DisableAutoShowSelectJoinAudioDlgWhenJoinMeetingParams@proto@sdk@electron@com@@UEAAXAEBVMessageLite@protobuf@google@@@Z 0000000180022ef0 f   electron_sdk.pb.obj
 0001:00021f00       ?MergeFrom@DisableAutoShowSelectJoinAudioDlgWhenJoinMeetingParams@proto@sdk@electron@com@@QEAAXAEBV12345@@Z 0000000180022f00 f   electron_sdk.pb.obj
 0001:00021fb0       ?GetTypeName@DisableAutoShowSelectJoinAudioDlgWhenJoinMeetingParams@proto@sdk@electron@com@@UEBA?AV?$basic_string@DU?$char_traits@D@std@@V?$allocator@D@2@@std@@XZ 0000000180022fb0 f   electron_sdk.pb.obj
 0001:00021fe0       ?CheckTypeAndMergeFrom@DisableShowJoinMeetingWndParams@proto@sdk@electron@com@@UEAAXAEBVMessageLite@protobuf@google@@@Z 0000000180022fe0 f   electron_sdk.pb.obj
 0001:00021ff0       ?MergeFrom@DisableShowJoinMeetingWndParams@proto@sdk@electron@com@@QEAAXAEBV12345@@Z 0000000180022ff0 f   electron_sdk.pb.obj
 0001:000220a0       ?GetTypeName@DisableShowJoinMeetingWndParams@proto@sdk@electron@com@@UEBA?AV?$basic_string@DU?$char_traits@D@std@@V?$allocator@D@2@@std@@XZ 00000001800230a0 f   electron_sdk.pb.obj
 0001:000220d0       ?CheckTypeAndMergeFrom@DisableToolbarInviteButtonClickOriginActionParams@proto@sdk@electron@com@@UEAAXAEBVMessageLite@protobuf@google@@@Z 00000001800230d0 f   electron_sdk.pb.obj
 0001:000220e0       ?MergeFrom@DisableToolbarInviteButtonClickOriginActionParams@proto@sdk@electron@com@@QEAAXAEBV12345@@Z 00000001800230e0 f   electron_sdk.pb.obj
 0001:00022190       ?GetTypeName@DisableToolbarInviteButtonClickOriginActionParams@proto@sdk@electron@com@@UEBA?AV?$basic_string@DU?$char_traits@D@std@@V?$allocator@D@2@@std@@XZ 0000000180023190 f   electron_sdk.pb.obj
 0001:000221c0       ?CheckTypeAndMergeFrom@SetShowVideoOptimizeChkboxParams@proto@sdk@electron@com@@UEAAXAEBVMessageLite@protobuf@google@@@Z 00000001800231c0 f   electron_sdk.pb.obj
 0001:000221d0       ?MergeFrom@SetShowVideoOptimizeChkboxParams@proto@sdk@electron@com@@QEAAXAEBV12345@@Z 00000001800231d0 f   electron_sdk.pb.obj
 0001:00022280       ?GetTypeName@SetShowVideoOptimizeChkboxParams@proto@sdk@electron@com@@UEBA?AV?$basic_string@DU?$char_traits@D@std@@V?$allocator@D@2@@std@@XZ 0000000180023280 f   electron_sdk.pb.obj
 0001:000222b0       ?CheckTypeAndMergeFrom@InputMeetingPasswordAndScreenNameParams@proto@sdk@electron@com@@UEAAXAEBVMessageLite@protobuf@google@@@Z 00000001800232b0 f   electron_sdk.pb.obj
 0001:000222c0       ?MergeFrom@InputMeetingPasswordAndScreenNameParams@proto@sdk@electron@com@@QEAAXAEBV12345@@Z 00000001800232c0 f   electron_sdk.pb.obj
 0001:000223f0       ?GetTypeName@InputMeetingPasswordAndScreenNameParams@proto@sdk@electron@com@@UEBA?AV?$basic_string@DU?$char_traits@D@std@@V?$allocator@D@2@@std@@XZ 00000001800233f0 f   electron_sdk.pb.obj
 0001:00022420       ?CheckTypeAndMergeFrom@InputMeetingIDAndScreenNameParams@proto@sdk@electron@com@@UEAAXAEBVMessageLite@protobuf@google@@@Z 0000000180023420 f   electron_sdk.pb.obj
 0001:00022430       ?MergeFrom@InputMeetingIDAndScreenNameParams@proto@sdk@electron@com@@QEAAXAEBV12345@@Z 0000000180023430 f   electron_sdk.pb.obj
 0001:00022560       ?GetTypeName@InputMeetingIDAndScreenNameParams@proto@sdk@electron@com@@UEBA?AV?$basic_string@DU?$char_traits@D@std@@V?$allocator@D@2@@std@@XZ 0000000180023560 f   electron_sdk.pb.obj
 0001:00022590       ?CheckTypeAndMergeFrom@InputMeetingScreenNameParams@proto@sdk@electron@com@@UEAAXAEBVMessageLite@protobuf@google@@@Z 0000000180023590 f   electron_sdk.pb.obj
 0001:000225a0       ?MergeFrom@InputMeetingScreenNameParams@proto@sdk@electron@com@@QEAAXAEBV12345@@Z 00000001800235a0 f   electron_sdk.pb.obj
 0001:00022670       ?GetTypeName@InputMeetingScreenNameParams@proto@sdk@electron@com@@UEBA?AV?$basic_string@DU?$char_traits@D@std@@V?$allocator@D@2@@std@@XZ 0000000180023670 f   electron_sdk.pb.obj
 0001:000226a0       ?CheckTypeAndMergeFrom@InputWebinarRegisterEmailAndScreenNameParams@proto@sdk@electron@com@@UEAAXAEBVMessageLite@protobuf@google@@@Z 00000001800236a0 f   electron_sdk.pb.obj
 0001:000226b0       ?MergeFrom@InputWebinarRegisterEmailAndScreenNameParams@proto@sdk@electron@com@@QEAAXAEBV12345@@Z 00000001800236b0 f   electron_sdk.pb.obj
 0001:000227e0       ?GetTypeName@InputWebinarRegisterEmailAndScreenNameParams@proto@sdk@electron@com@@UEBA?AV?$basic_string@DU?$char_traits@D@std@@V?$allocator@D@2@@std@@XZ 00000001800237e0 f   electron_sdk.pb.obj
 0001:00022810       ?Clear@CallOutH323Params@proto@sdk@electron@com@@UEAAXXZ 0000000180023810 f   electron_sdk.pb.obj
 0001:000228a0       ?_InternalParse@CallOutH323Params@proto@sdk@electron@com@@UEAAPEBDPEBDPEAVParseContext@internal@protobuf@google@@@Z 00000001800238a0 f   electron_sdk.pb.obj
 0001:00022a80       ?_InternalSerialize@CallOutH323Params@proto@sdk@electron@com@@UEBAPEAEPEAEPEAVEpsCopyOutputStream@io@protobuf@google@@@Z 0000000180023a80 f   electron_sdk.pb.obj
 0001:00022bc0       ?ByteSizeLong@CallOutH323Params@proto@sdk@electron@com@@UEBA_KXZ 0000000180023bc0 f   electron_sdk.pb.obj
 0001:00022d30       ?CheckTypeAndMergeFrom@CallOutH323Params@proto@sdk@electron@com@@UEAAXAEBVMessageLite@protobuf@google@@@Z 0000000180023d30 f   electron_sdk.pb.obj
 0001:00022d40       ?MergeFrom@CallOutH323Params@proto@sdk@electron@com@@QEAAXAEBV12345@@Z 0000000180023d40 f   electron_sdk.pb.obj
 0001:00022ea0       ?GetTypeName@CallOutH323Params@proto@sdk@electron@com@@UEBA?AV?$basic_string@DU?$char_traits@D@std@@V?$allocator@D@2@@std@@XZ 0000000180023ea0 f   electron_sdk.pb.obj
 0001:00022ed0       ?_InternalSerialize@AICompanionQueryFeedbackParams@proto@sdk@electron@com@@UEBAPEAEPEAEPEAVEpsCopyOutputStream@io@protobuf@google@@@Z 0000000180023ed0 f   electron_sdk.pb.obj
 0001:00022ed0       ?_InternalSerialize@AdmitToMeetingParams@proto@sdk@electron@com@@UEBAPEAEPEAEPEAVEpsCopyOutputStream@io@protobuf@google@@@Z 0000000180023ed0 f   electron_sdk.pb.obj
 0001:00022ed0       ?_InternalSerialize@ChangeQuerySettingsParams@proto@sdk@electron@com@@UEBAPEAEPEAEPEAVEpsCopyOutputStream@io@protobuf@google@@@Z 0000000180023ed0 f   electron_sdk.pb.obj
 0001:00022ed0       ?_InternalSerialize@DisAllowLocalRecordingParams@proto@sdk@electron@com@@UEBAPEAEPEAEPEAVEpsCopyOutputStream@io@protobuf@google@@@Z 0000000180023ed0 f   electron_sdk.pb.obj
 0001:00022ed0       ?_InternalSerialize@ExpelUserParams@proto@sdk@electron@com@@UEBAPEAEPEAEPEAVEpsCopyOutputStream@io@protobuf@google@@@Z 0000000180023ed0 f   electron_sdk.pb.obj
 0001:00022ed0       ?_InternalSerialize@GetAuthorizedBotListByUserIDParams@proto@sdk@electron@com@@UEBAPEAEPEAEPEAVEpsCopyOutputStream@io@protobuf@google@@@Z 0000000180023ed0 f   electron_sdk.pb.obj
 0001:00022ed0       ?_InternalSerialize@GetBotAuthorizedUserInfoByUserIDParams@proto@sdk@electron@com@@UEBAPEAEPEAEPEAVEpsCopyOutputStream@io@protobuf@google@@@Z 0000000180023ed0 f   electron_sdk.pb.obj
 0001:00022ed0       ?_InternalSerialize@GetDocsSharingSourceInfoListParams@proto@sdk@electron@com@@UEBAPEAEPEAEPEAVEpsCopyOutputStream@io@protobuf@google@@@Z 0000000180023ed0 f   electron_sdk.pb.obj
 0001:00022ed0       ?_InternalSerialize@GetUserInfoByUserIDParams@proto@sdk@electron@com@@UEBAPEAEPEAEPEAVEpsCopyOutputStream@io@protobuf@google@@@Z 0000000180023ed0 f   electron_sdk.pb.obj
 0001:00022ed0       ?_InternalSerialize@GetWaitingRoomUserInfoByIDParams@proto@sdk@electron@com@@UEBAPEAEPEAEPEAVEpsCopyOutputStream@io@protobuf@google@@@Z 0000000180023ed0 f   electron_sdk.pb.obj
 0001:00022ed0       ?_InternalSerialize@IsSupportLocalRecordingParams@proto@sdk@electron@com@@UEBAPEAEPEAEPEAVEpsCopyOutputStream@io@protobuf@google@@@Z 0000000180023ed0 f   electron_sdk.pb.obj
 0001:00022ed0       ?_InternalSerialize@MuteVideoParams@proto@sdk@electron@com@@UEBAPEAEPEAEPEAVEpsCopyOutputStream@io@protobuf@google@@@Z 0000000180023ed0 f   electron_sdk.pb.obj
 0001:00022ed0       ?_InternalSerialize@PinVideoToFirstViewParams@proto@sdk@electron@com@@UEBAPEAEPEAEPEAVEpsCopyOutputStream@io@protobuf@google@@@Z 0000000180023ed0 f   electron_sdk.pb.obj
 0001:00022ed0       ?_InternalSerialize@PutInWaitingRoomParams@proto@sdk@electron@com@@UEBAPEAEPEAEPEAVEpsCopyOutputStream@io@protobuf@google@@@Z 0000000180023ed0 f   electron_sdk.pb.obj
 0001:00022ed0       ?_InternalSerialize@RemoveRawLiveStreamPrivilegeParams@proto@sdk@electron@com@@UEBAPEAEPEAEPEAVEpsCopyOutputStream@io@protobuf@google@@@Z 0000000180023ed0 f   electron_sdk.pb.obj
 0001:00022ed0       ?_InternalSerialize@SetAttendeeViewModeParams@proto@sdk@electron@com@@UEBAPEAEPEAEPEAVEpsCopyOutputStream@io@protobuf@google@@@Z 0000000180023ed0 f   electron_sdk.pb.obj
 0001:00022ed0       ?_InternalSerialize@SetDocsCreateOptionParams@proto@sdk@electron@com@@UEBAPEAEPEAEPEAVEpsCopyOutputStream@io@protobuf@google@@@Z 0000000180023ed0 f   electron_sdk.pb.obj
 0001:00022ed0       ?_InternalSerialize@SetDocsShareOptionParams@proto@sdk@electron@com@@UEBAPEAEPEAEPEAVEpsCopyOutputStream@io@protobuf@google@@@Z 0000000180023ed0 f   electron_sdk.pb.obj
 0001:00022ed0       ?_InternalSerialize@SetEnableOptionParams@proto@sdk@electron@com@@UEBAPEAEPEAEPEAVEpsCopyOutputStream@io@protobuf@google@@@Z 0000000180023ed0 f   electron_sdk.pb.obj
 0001:00022ed0       ?_InternalSerialize@SetPanelistChatPrivilegeParams@proto@sdk@electron@com@@UEBAPEAEPEAEPEAVEpsCopyOutputStream@io@protobuf@google@@@Z 0000000180023ed0 f   electron_sdk.pb.obj
 0001:00022ed0       ?_InternalSerialize@SetWhiteboardCreateOptionParams@proto@sdk@electron@com@@UEBAPEAEPEAEPEAVEpsCopyOutputStream@io@protobuf@google@@@Z 0000000180023ed0 f   electron_sdk.pb.obj
 0001:00022ed0       ?_InternalSerialize@SetWhiteboardShareOptionParams@proto@sdk@electron@com@@UEBAPEAEPEAEPEAVEpsCopyOutputStream@io@protobuf@google@@@Z 0000000180023ed0 f   electron_sdk.pb.obj
 0001:00022ed0       ?_InternalSerialize@ShowDocsViewWindowParams@proto@sdk@electron@com@@UEBAPEAEPEAEPEAVEpsCopyOutputStream@io@protobuf@google@@@Z 0000000180023ed0 f   electron_sdk.pb.obj
 0001:00022ed0       ?_InternalSerialize@SpotlightVideoParams@proto@sdk@electron@com@@UEBAPEAEPEAEPEAVEpsCopyOutputStream@io@protobuf@google@@@Z 0000000180023ed0 f   electron_sdk.pb.obj
 0001:00022ed0       ?_InternalSerialize@UnMuteVideoParams@proto@sdk@electron@com@@UEBAPEAEPEAEPEAVEpsCopyOutputStream@io@protobuf@google@@@Z 0000000180023ed0 f   electron_sdk.pb.obj
 0001:00022ed0       ?_InternalSerialize@WebinarAttendeeParams@proto@sdk@electron@com@@UEBAPEAEPEAEPEAVEpsCopyOutputStream@io@protobuf@google@@@Z 0000000180023ed0 f   electron_sdk.pb.obj
 0001:00022fb0       ?ByteSizeLong@AICompanionQueryFeedbackParams@proto@sdk@electron@com@@UEBA_KXZ 0000000180023fb0 f   electron_sdk.pb.obj
 0001:00022fb0       ?ByteSizeLong@AdmitToMeetingParams@proto@sdk@electron@com@@UEBA_KXZ 0000000180023fb0 f   electron_sdk.pb.obj
 0001:00022fb0       ?ByteSizeLong@ChangeQuerySettingsParams@proto@sdk@electron@com@@UEBA_KXZ 0000000180023fb0 f   electron_sdk.pb.obj
 0001:00022fb0       ?ByteSizeLong@DisAllowLocalRecordingParams@proto@sdk@electron@com@@UEBA_KXZ 0000000180023fb0 f   electron_sdk.pb.obj
 0001:00022fb0       ?ByteSizeLong@ExpelUserParams@proto@sdk@electron@com@@UEBA_KXZ 0000000180023fb0 f   electron_sdk.pb.obj
 0001:00022fb0       ?ByteSizeLong@GetAuthorizedBotListByUserIDParams@proto@sdk@electron@com@@UEBA_KXZ 0000000180023fb0 f   electron_sdk.pb.obj
 0001:00022fb0       ?ByteSizeLong@GetBotAuthorizedUserInfoByUserIDParams@proto@sdk@electron@com@@UEBA_KXZ 0000000180023fb0 f   electron_sdk.pb.obj
 0001:00022fb0       ?ByteSizeLong@GetDocsSharingSourceInfoListParams@proto@sdk@electron@com@@UEBA_KXZ 0000000180023fb0 f   electron_sdk.pb.obj
 0001:00022fb0       ?ByteSizeLong@GetUserInfoByUserIDParams@proto@sdk@electron@com@@UEBA_KXZ 0000000180023fb0 f   electron_sdk.pb.obj
 0001:00022fb0       ?ByteSizeLong@GetWaitingRoomUserInfoByIDParams@proto@sdk@electron@com@@UEBA_KXZ 0000000180023fb0 f   electron_sdk.pb.obj
 0001:00022fb0       ?ByteSizeLong@IsSupportLocalRecordingParams@proto@sdk@electron@com@@UEBA_KXZ 0000000180023fb0 f   electron_sdk.pb.obj
 0001:00022fb0       ?ByteSizeLong@MuteVideoParams@proto@sdk@electron@com@@UEBA_KXZ 0000000180023fb0 f   electron_sdk.pb.obj
 0001:00022fb0       ?ByteSizeLong@PinVideoToFirstViewParams@proto@sdk@electron@com@@UEBA_KXZ 0000000180023fb0 f   electron_sdk.pb.obj
 0001:00022fb0       ?ByteSizeLong@PutInWaitingRoomParams@proto@sdk@electron@com@@UEBA_KXZ 0000000180023fb0 f   electron_sdk.pb.obj
 0001:00022fb0       ?ByteSizeLong@RemoveRawLiveStreamPrivilegeParams@proto@sdk@electron@com@@UEBA_KXZ 0000000180023fb0 f   electron_sdk.pb.obj
 0001:00022fb0       ?ByteSizeLong@SetAttendeeViewModeParams@proto@sdk@electron@com@@UEBA_KXZ 0000000180023fb0 f   electron_sdk.pb.obj
 0001:00022fb0       ?ByteSizeLong@SetDocsCreateOptionParams@proto@sdk@electron@com@@UEBA_KXZ 0000000180023fb0 f   electron_sdk.pb.obj
 0001:00022fb0       ?ByteSizeLong@SetDocsShareOptionParams@proto@sdk@electron@com@@UEBA_KXZ 0000000180023fb0 f   electron_sdk.pb.obj
 0001:00022fb0       ?ByteSizeLong@SetEnableOptionParams@proto@sdk@electron@com@@UEBA_KXZ 0000000180023fb0 f   electron_sdk.pb.obj
 0001:00022fb0       ?ByteSizeLong@SetPanelistChatPrivilegeParams@proto@sdk@electron@com@@UEBA_KXZ 0000000180023fb0 f   electron_sdk.pb.obj
 0001:00022fb0       ?ByteSizeLong@SetWhiteboardCreateOptionParams@proto@sdk@electron@com@@UEBA_KXZ 0000000180023fb0 f   electron_sdk.pb.obj
 0001:00022fb0       ?ByteSizeLong@SetWhiteboardShareOptionParams@proto@sdk@electron@com@@UEBA_KXZ 0000000180023fb0 f   electron_sdk.pb.obj
 0001:00022fb0       ?ByteSizeLong@ShowDocsViewWindowParams@proto@sdk@electron@com@@UEBA_KXZ 0000000180023fb0 f   electron_sdk.pb.obj
 0001:00022fb0       ?ByteSizeLong@SpotlightVideoParams@proto@sdk@electron@com@@UEBA_KXZ 0000000180023fb0 f   electron_sdk.pb.obj
 0001:00022fb0       ?ByteSizeLong@UnMuteVideoParams@proto@sdk@electron@com@@UEBA_KXZ 0000000180023fb0 f   electron_sdk.pb.obj
 0001:00022fb0       ?ByteSizeLong@WebinarAttendeeParams@proto@sdk@electron@com@@UEBA_KXZ 0000000180023fb0 f   electron_sdk.pb.obj
 0001:00023010       ?CheckTypeAndMergeFrom@GetUserInfoByUserIDParams@proto@sdk@electron@com@@UEAAXAEBVMessageLite@protobuf@google@@@Z 0000000180024010 f   electron_sdk.pb.obj
 0001:00023020       ?MergeFrom@GetUserInfoByUserIDParams@proto@sdk@electron@com@@QEAAXAEBV12345@@Z 0000000180024020 f   electron_sdk.pb.obj
 0001:000230d0       ?GetTypeName@GetUserInfoByUserIDParams@proto@sdk@electron@com@@UEBA?AV?$basic_string@DU?$char_traits@D@std@@V?$allocator@D@2@@std@@XZ 00000001800240d0 f   electron_sdk.pb.obj
 0001:00023100       ?CheckTypeAndMergeFrom@GetBotAuthorizedUserInfoByUserIDParams@proto@sdk@electron@com@@UEAAXAEBVMessageLite@protobuf@google@@@Z 0000000180024100 f   electron_sdk.pb.obj
 0001:00023110       ?MergeFrom@GetBotAuthorizedUserInfoByUserIDParams@proto@sdk@electron@com@@QEAAXAEBV12345@@Z 0000000180024110 f   electron_sdk.pb.obj
 0001:000231c0       ?GetTypeName@GetBotAuthorizedUserInfoByUserIDParams@proto@sdk@electron@com@@UEBA?AV?$basic_string@DU?$char_traits@D@std@@V?$allocator@D@2@@std@@XZ 00000001800241c0 f   electron_sdk.pb.obj
 0001:000231f0       ?CheckTypeAndMergeFrom@GetAuthorizedBotListByUserIDParams@proto@sdk@electron@com@@UEAAXAEBVMessageLite@protobuf@google@@@Z 00000001800241f0 f   electron_sdk.pb.obj
 0001:00023200       ?MergeFrom@GetAuthorizedBotListByUserIDParams@proto@sdk@electron@com@@QEAAXAEBV12345@@Z 0000000180024200 f   electron_sdk.pb.obj
 0001:000232b0       ?GetTypeName@GetAuthorizedBotListByUserIDParams@proto@sdk@electron@com@@UEBA?AV?$basic_string@DU?$char_traits@D@std@@V?$allocator@D@2@@std@@XZ 00000001800242b0 f   electron_sdk.pb.obj
 0001:000232e0       ?_InternalParse@CanStartRecordingParams@proto@sdk@electron@com@@UEAAPEBDPEBDPEAVParseContext@internal@protobuf@google@@@Z 00000001800242e0 f   electron_sdk.pb.obj
 0001:000232e0       ?_InternalParse@EnableHardwareEncodeParams@proto@sdk@electron@com@@UEAAPEBDPEBDPEAVParseContext@internal@protobuf@google@@@Z 00000001800242e0 f   electron_sdk.pb.obj
 0001:00023490       ?_InternalSerialize@CanStartRecordingParams@proto@sdk@electron@com@@UEBAPEAEPEAEPEAVEpsCopyOutputStream@io@protobuf@google@@@Z 0000000180024490 f   electron_sdk.pb.obj
 0001:00023590       ?ByteSizeLong@CanStartRecordingParams@proto@sdk@electron@com@@UEBA_KXZ 0000000180024590 f   electron_sdk.pb.obj
 0001:00023600       ?CheckTypeAndMergeFrom@CanStartRecordingParams@proto@sdk@electron@com@@UEAAXAEBVMessageLite@protobuf@google@@@Z 0000000180024600 f   electron_sdk.pb.obj
 0001:00023610       ?MergeFrom@CanStartRecordingParams@proto@sdk@electron@com@@QEAAXAEBV12345@@Z 0000000180024610 f   electron_sdk.pb.obj
 0001:000236d0       ?GetTypeName@CanStartRecordingParams@proto@sdk@electron@com@@UEBA?AV?$basic_string@DU?$char_traits@D@std@@V?$allocator@D@2@@std@@XZ 00000001800246d0 f   electron_sdk.pb.obj
 0001:00023700       ?CheckTypeAndMergeFrom@IsSupportLocalRecordingParams@proto@sdk@electron@com@@UEAAXAEBVMessageLite@protobuf@google@@@Z 0000000180024700 f   electron_sdk.pb.obj
 0001:00023710       ?MergeFrom@IsSupportLocalRecordingParams@proto@sdk@electron@com@@QEAAXAEBV12345@@Z 0000000180024710 f   electron_sdk.pb.obj
 0001:000237c0       ?GetTypeName@IsSupportLocalRecordingParams@proto@sdk@electron@com@@UEBA?AV?$basic_string@DU?$char_traits@D@std@@V?$allocator@D@2@@std@@XZ 00000001800247c0 f   electron_sdk.pb.obj
 0001:000237f0       ?CheckTypeAndMergeFrom@AllowLocalRecordingParams@proto@sdk@electron@com@@UEAAXAEBVMessageLite@protobuf@google@@@Z 00000001800247f0 f   electron_sdk.pb.obj
 0001:00023800       ?MergeFrom@AllowLocalRecordingParams@proto@sdk@electron@com@@QEAAXAEBV12345@@Z 0000000180024800 f   electron_sdk.pb.obj
 0001:000238b0       ?GetTypeName@AllowLocalRecordingParams@proto@sdk@electron@com@@UEBA?AV?$basic_string@DU?$char_traits@D@std@@V?$allocator@D@2@@std@@XZ 00000001800248b0 f   electron_sdk.pb.obj
 0001:000238e0       ?CheckTypeAndMergeFrom@DisAllowLocalRecordingParams@proto@sdk@electron@com@@UEAAXAEBVMessageLite@protobuf@google@@@Z 00000001800248e0 f   electron_sdk.pb.obj
 0001:000238f0       ?MergeFrom@DisAllowLocalRecordingParams@proto@sdk@electron@com@@QEAAXAEBV12345@@Z 00000001800248f0 f   electron_sdk.pb.obj
 0001:000239a0       ?GetTypeName@DisAllowLocalRecordingParams@proto@sdk@electron@com@@UEBA?AV?$basic_string@DU?$char_traits@D@std@@V?$allocator@D@2@@std@@XZ 00000001800249a0 f   electron_sdk.pb.obj
 0001:000239d0       ?CheckTypeAndMergeFrom@StartAppShareParams@proto@sdk@electron@com@@UEAAXAEBVMessageLite@protobuf@google@@@Z 00000001800249d0 f   electron_sdk.pb.obj
 0001:000239e0       ?MergeFrom@StartAppShareParams@proto@sdk@electron@com@@QEAAXAEBV12345@@Z 00000001800249e0 f   electron_sdk.pb.obj
 0001:00023ab0       ?GetTypeName@StartAppShareParams@proto@sdk@electron@com@@UEBA?AV?$basic_string@DU?$char_traits@D@std@@V?$allocator@D@2@@std@@XZ 0000000180024ab0 f   electron_sdk.pb.obj
 0001:00023ae0       ?CheckTypeAndMergeFrom@StartMonitorShareParams@proto@sdk@electron@com@@UEAAXAEBVMessageLite@protobuf@google@@@Z 0000000180024ae0 f   electron_sdk.pb.obj
 0001:00023af0       ?MergeFrom@StartMonitorShareParams@proto@sdk@electron@com@@QEAAXAEBV12345@@Z 0000000180024af0 f   electron_sdk.pb.obj
 0001:00023bc0       ?GetTypeName@StartMonitorShareParams@proto@sdk@electron@com@@UEBA?AV?$basic_string@DU?$char_traits@D@std@@V?$allocator@D@2@@std@@XZ 0000000180024bc0 f   electron_sdk.pb.obj
 0001:00023bf0       ?CheckTypeAndMergeFrom@MuteVideoParams@proto@sdk@electron@com@@UEAAXAEBVMessageLite@protobuf@google@@@Z 0000000180024bf0 f   electron_sdk.pb.obj
 0001:00023c00       ?MergeFrom@MuteVideoParams@proto@sdk@electron@com@@QEAAXAEBV12345@@Z 0000000180024c00 f   electron_sdk.pb.obj
 0001:00023cb0       ?GetTypeName@MuteVideoParams@proto@sdk@electron@com@@UEBA?AV?$basic_string@DU?$char_traits@D@std@@V?$allocator@D@2@@std@@XZ 0000000180024cb0 f   electron_sdk.pb.obj
 0001:00023ce0       ?CheckTypeAndMergeFrom@UnMuteVideoParams@proto@sdk@electron@com@@UEAAXAEBVMessageLite@protobuf@google@@@Z 0000000180024ce0 f   electron_sdk.pb.obj
 0001:00023cf0       ?MergeFrom@UnMuteVideoParams@proto@sdk@electron@com@@QEAAXAEBV12345@@Z 0000000180024cf0 f   electron_sdk.pb.obj
 0001:00023da0       ?GetTypeName@UnMuteVideoParams@proto@sdk@electron@com@@UEBA?AV?$basic_string@DU?$char_traits@D@std@@V?$allocator@D@2@@std@@XZ 0000000180024da0 f   electron_sdk.pb.obj
 0001:00023dd0       ?CheckTypeAndMergeFrom@PinVideoToFirstViewParams@proto@sdk@electron@com@@UEAAXAEBVMessageLite@protobuf@google@@@Z 0000000180024dd0 f   electron_sdk.pb.obj
 0001:00023de0       ?MergeFrom@PinVideoToFirstViewParams@proto@sdk@electron@com@@QEAAXAEBV12345@@Z 0000000180024de0 f   electron_sdk.pb.obj
 0001:00023e90       ?GetTypeName@PinVideoToFirstViewParams@proto@sdk@electron@com@@UEBA?AV?$basic_string@DU?$char_traits@D@std@@V?$allocator@D@2@@std@@XZ 0000000180024e90 f   electron_sdk.pb.obj
 0001:00023ec0       ?CheckTypeAndMergeFrom@SpotlightVideoParams@proto@sdk@electron@com@@UEAAXAEBVMessageLite@protobuf@google@@@Z 0000000180024ec0 f   electron_sdk.pb.obj
 0001:00023ed0       ?MergeFrom@SpotlightVideoParams@proto@sdk@electron@com@@QEAAXAEBV12345@@Z 0000000180024ed0 f   electron_sdk.pb.obj
 0001:00023f80       ?GetTypeName@SpotlightVideoParams@proto@sdk@electron@com@@UEBA?AV?$basic_string@DU?$char_traits@D@std@@V?$allocator@D@2@@std@@XZ 0000000180024f80 f   electron_sdk.pb.obj
 0001:00023fb0       ?CheckTypeAndMergeFrom@HideOrShowNoVideoUserOnVideoWallParams@proto@sdk@electron@com@@UEAAXAEBVMessageLite@protobuf@google@@@Z 0000000180024fb0 f   electron_sdk.pb.obj
 0001:00023fc0       ?MergeFrom@HideOrShowNoVideoUserOnVideoWallParams@proto@sdk@electron@com@@QEAAXAEBV12345@@Z 0000000180024fc0 f   electron_sdk.pb.obj
 0001:00024070       ?GetTypeName@HideOrShowNoVideoUserOnVideoWallParams@proto@sdk@electron@com@@UEBA?AV?$basic_string@DU?$char_traits@D@std@@V?$allocator@D@2@@std@@XZ 0000000180025070 f   electron_sdk.pb.obj
 0001:000240a0       ?CheckTypeAndMergeFrom@CreateRendererParams@proto@sdk@electron@com@@UEAAXAEBVMessageLite@protobuf@google@@@Z 00000001800250a0 f   electron_sdk.pb.obj
 0001:000240b0       ?MergeFrom@CreateRendererParams@proto@sdk@electron@com@@QEAAXAEBV12345@@Z 00000001800250b0 f   electron_sdk.pb.obj
 0001:00024160       ?GetTypeName@CreateRendererParams@proto@sdk@electron@com@@UEBA?AV?$basic_string@DU?$char_traits@D@std@@V?$allocator@D@2@@std@@XZ 0000000180025160 f   electron_sdk.pb.obj
 0001:00024190       ?CheckTypeAndMergeFrom@DestroyRendererParams@proto@sdk@electron@com@@UEAAXAEBVMessageLite@protobuf@google@@@Z 0000000180025190 f   electron_sdk.pb.obj
 0001:000241a0       ?MergeFrom@DestroyRendererParams@proto@sdk@electron@com@@QEAAXAEBV12345@@Z 00000001800251a0 f   electron_sdk.pb.obj
 0001:00024250       ?GetTypeName@DestroyRendererParams@proto@sdk@electron@com@@UEBA?AV?$basic_string@DU?$char_traits@D@std@@V?$allocator@D@2@@std@@XZ 0000000180025250 f   electron_sdk.pb.obj
 0001:00024280       ?_InternalSerialize@SubscribeParams@proto@sdk@electron@com@@UEBAPEAEPEAEPEAVEpsCopyOutputStream@io@protobuf@google@@@Z 0000000180025280 f   electron_sdk.pb.obj
 0001:00024400       ?ByteSizeLong@SubscribeParams@proto@sdk@electron@com@@UEBA_KXZ 0000000180025400 f   electron_sdk.pb.obj
 0001:00024500       ?CheckTypeAndMergeFrom@SubscribeParams@proto@sdk@electron@com@@UEAAXAEBVMessageLite@protobuf@google@@@Z 0000000180025500 f   electron_sdk.pb.obj
 0001:00024510       ?MergeFrom@SubscribeParams@proto@sdk@electron@com@@QEAAXAEBV12345@@Z 0000000180025510 f   electron_sdk.pb.obj
 0001:000245e0       ?GetTypeName@SubscribeParams@proto@sdk@electron@com@@UEBA?AV?$basic_string@DU?$char_traits@D@std@@V?$allocator@D@2@@std@@XZ 00000001800255e0 f   electron_sdk.pb.obj
 0001:00024610       ?CheckTypeAndMergeFrom@UnSubscribeParams@proto@sdk@electron@com@@UEAAXAEBVMessageLite@protobuf@google@@@Z 0000000180025610 f   electron_sdk.pb.obj
 0001:00024620       ?MergeFrom@UnSubscribeParams@proto@sdk@electron@com@@QEAAXAEBV12345@@Z 0000000180025620 f   electron_sdk.pb.obj
 0001:000246d0       ?GetTypeName@UnSubscribeParams@proto@sdk@electron@com@@UEBA?AV?$basic_string@DU?$char_traits@D@std@@V?$allocator@D@2@@std@@XZ 00000001800256d0 f   electron_sdk.pb.obj
 0001:00024700       ?Clear@SetRawDataResolutionParams@proto@sdk@electron@com@@UEAAXXZ 0000000180025700 f   electron_sdk.pb.obj
 0001:00024730       ?_InternalParse@SetRawDataResolutionParams@proto@sdk@electron@com@@UEAAPEBDPEBDPEAVParseContext@internal@protobuf@google@@@Z 0000000180025730 f   electron_sdk.pb.obj
 0001:000248e0       ?_InternalSerialize@SetRawDataResolutionParams@proto@sdk@electron@com@@UEBAPEAEPEAEPEAVEpsCopyOutputStream@io@protobuf@google@@@Z 00000001800258e0 f   electron_sdk.pb.obj
 0001:00024a10       ?ByteSizeLong@SetRawDataResolutionParams@proto@sdk@electron@com@@UEBA_KXZ 0000000180025a10 f   electron_sdk.pb.obj
 0001:00024ac0       ?CheckTypeAndMergeFrom@SetRawDataResolutionParams@proto@sdk@electron@com@@UEAAXAEBVMessageLite@protobuf@google@@@Z 0000000180025ac0 f   electron_sdk.pb.obj
 0001:00024ad0       ?MergeFrom@SetRawDataResolutionParams@proto@sdk@electron@com@@QEAAXAEBV12345@@Z 0000000180025ad0 f   electron_sdk.pb.obj
 0001:00024b90       ?GetTypeName@SetRawDataResolutionParams@proto@sdk@electron@com@@UEBA?AV?$basic_string@DU?$char_traits@D@std@@V?$allocator@D@2@@std@@XZ 0000000180025b90 f   electron_sdk.pb.obj
 0001:00024bc0       ?CheckTypeAndMergeFrom@GetResolutionParams@proto@sdk@electron@com@@UEAAXAEBVMessageLite@protobuf@google@@@Z 0000000180025bc0 f   electron_sdk.pb.obj
 0001:00024bd0       ?MergeFrom@GetResolutionParams@proto@sdk@electron@com@@QEAAXAEBV12345@@Z 0000000180025bd0 f   electron_sdk.pb.obj
 0001:00024c80       ?GetTypeName@GetResolutionParams@proto@sdk@electron@com@@UEBA?AV?$basic_string@DU?$char_traits@D@std@@V?$allocator@D@2@@std@@XZ 0000000180025c80 f   electron_sdk.pb.obj
 0001:00024cb0       ?CheckTypeAndMergeFrom@GetRawDataTypeParams@proto@sdk@electron@com@@UEAAXAEBVMessageLite@protobuf@google@@@Z 0000000180025cb0 f   electron_sdk.pb.obj
 0001:00024cc0       ?MergeFrom@GetRawDataTypeParams@proto@sdk@electron@com@@QEAAXAEBV12345@@Z 0000000180025cc0 f   electron_sdk.pb.obj
 0001:00024d70       ?GetTypeName@GetRawDataTypeParams@proto@sdk@electron@com@@UEBA?AV?$basic_string@DU?$char_traits@D@std@@V?$allocator@D@2@@std@@XZ 0000000180025d70 f   electron_sdk.pb.obj
 0001:00024da0       ?CheckTypeAndMergeFrom@GetSubscribeIdParams@proto@sdk@electron@com@@UEAAXAEBVMessageLite@protobuf@google@@@Z 0000000180025da0 f   electron_sdk.pb.obj
 0001:00024db0       ?MergeFrom@GetSubscribeIdParams@proto@sdk@electron@com@@QEAAXAEBV12345@@Z 0000000180025db0 f   electron_sdk.pb.obj
 0001:00024e60       ?GetTypeName@GetSubscribeIdParams@proto@sdk@electron@com@@UEBA?AV?$basic_string@DU?$char_traits@D@std@@V?$allocator@D@2@@std@@XZ 0000000180025e60 f   electron_sdk.pb.obj
 0001:00024e90       ?CheckTypeAndMergeFrom@EnableZoomAuthRealNameMeetingUIShownParams@proto@sdk@electron@com@@UEAAXAEBVMessageLite@protobuf@google@@@Z 0000000180025e90 f   electron_sdk.pb.obj
 0001:00024ea0       ?MergeFrom@EnableZoomAuthRealNameMeetingUIShownParams@proto@sdk@electron@com@@QEAAXAEBV12345@@Z 0000000180025ea0 f   electron_sdk.pb.obj
 0001:00024f50       ?GetTypeName@EnableZoomAuthRealNameMeetingUIShownParams@proto@sdk@electron@com@@UEBA?AV?$basic_string@DU?$char_traits@D@std@@V?$allocator@D@2@@std@@XZ 0000000180025f50 f   electron_sdk.pb.obj
 0001:00024f80       ?CheckTypeAndMergeFrom@RetrieveParams@proto@sdk@electron@com@@UEAAXAEBVMessageLite@protobuf@google@@@Z 0000000180025f80 f   electron_sdk.pb.obj
 0001:00024f90       ?MergeFrom@RetrieveParams@proto@sdk@electron@com@@QEAAXAEBV12345@@Z 0000000180025f90 f   electron_sdk.pb.obj
 0001:000250c0       ?GetTypeName@RetrieveParams@proto@sdk@electron@com@@UEBA?AV?$basic_string@DU?$char_traits@D@std@@V?$allocator@D@2@@std@@XZ 00000001800260c0 f   electron_sdk.pb.obj
 0001:000250f0       ?Clear@StartLiveStreamWithSteamingURLParams@proto@sdk@electron@com@@UEAAXXZ 00000001800260f0 f   electron_sdk.pb.obj
 0001:000250f0       ?Clear@VerifyParams@proto@sdk@electron@com@@UEAAXXZ 00000001800260f0 f   electron_sdk.pb.obj
 0001:00025180       ?_InternalParse@StartLiveStreamWithSteamingURLParams@proto@sdk@electron@com@@UEAAPEBDPEBDPEAVParseContext@internal@protobuf@google@@@Z 0000000180026180 f   electron_sdk.pb.obj
 0001:00025180       ?_InternalParse@VerifyParams@proto@sdk@electron@com@@UEAAPEBDPEBDPEAVParseContext@internal@protobuf@google@@@Z 0000000180026180 f   electron_sdk.pb.obj
 0001:00025300       ?_InternalSerialize@StartLiveStreamWithSteamingURLParams@proto@sdk@electron@com@@UEBAPEAEPEAEPEAVEpsCopyOutputStream@io@protobuf@google@@@Z 0000000180026300 f   electron_sdk.pb.obj
 0001:00025300       ?_InternalSerialize@VerifyParams@proto@sdk@electron@com@@UEBAPEAEPEAEPEAVEpsCopyOutputStream@io@protobuf@google@@@Z 0000000180026300 f   electron_sdk.pb.obj
 0001:00025400       ?ByteSizeLong@StartLiveStreamWithSteamingURLParams@proto@sdk@electron@com@@UEBA_KXZ 0000000180026400 f   electron_sdk.pb.obj
 0001:00025400       ?ByteSizeLong@VerifyParams@proto@sdk@electron@com@@UEBA_KXZ 0000000180026400 f   electron_sdk.pb.obj
 0001:00025520       ?CheckTypeAndMergeFrom@VerifyParams@proto@sdk@electron@com@@UEAAXAEBVMessageLite@protobuf@google@@@Z 0000000180026520 f   electron_sdk.pb.obj
 0001:00025530       ?MergeFrom@VerifyParams@proto@sdk@electron@com@@QEAAXAEBV12345@@Z 0000000180026530 f   electron_sdk.pb.obj
 0001:00025670       ?GetTypeName@VerifyParams@proto@sdk@electron@com@@UEBA?AV?$basic_string@DU?$char_traits@D@std@@V?$allocator@D@2@@std@@XZ 0000000180026670 f   electron_sdk.pb.obj
 0001:000256a0       ?CheckTypeAndMergeFrom@SetDefaultCellPhoneInfoParams@proto@sdk@electron@com@@UEAAXAEBVMessageLite@protobuf@google@@@Z 00000001800266a0 f   electron_sdk.pb.obj
 0001:000256b0       ?MergeFrom@SetDefaultCellPhoneInfoParams@proto@sdk@electron@com@@QEAAXAEBV12345@@Z 00000001800266b0 f   electron_sdk.pb.obj
 0001:000257e0       ?GetTypeName@SetDefaultCellPhoneInfoParams@proto@sdk@electron@com@@UEBA?AV?$basic_string@DU?$char_traits@D@std@@V?$allocator@D@2@@std@@XZ 00000001800267e0 f   electron_sdk.pb.obj
 0001:00025810       ?CheckTypeAndMergeFrom@EnableAlwaysShowMeetingControlsParams@proto@sdk@electron@com@@UEAAXAEBVMessageLite@protobuf@google@@@Z 0000000180026810 f   electron_sdk.pb.obj
 0001:00025820       ?MergeFrom@EnableAlwaysShowMeetingControlsParams@proto@sdk@electron@com@@QEAAXAEBV12345@@Z 0000000180026820 f   electron_sdk.pb.obj
 0001:000258d0       ?GetTypeName@EnableAlwaysShowMeetingControlsParams@proto@sdk@electron@com@@UEBA?AV?$basic_string@DU?$char_traits@D@std@@V?$allocator@D@2@@std@@XZ 00000001800268d0 f   electron_sdk.pb.obj
 0001:00025900       ?CheckTypeAndMergeFrom@SelectMicParams@proto@sdk@electron@com@@UEAAXAEBVMessageLite@protobuf@google@@@Z 0000000180026900 f   electron_sdk.pb.obj
 0001:00025910       ?MergeFrom@SelectMicParams@proto@sdk@electron@com@@QEAAXAEBV12345@@Z 0000000180026910 f   electron_sdk.pb.obj
 0001:00025a40       ?GetTypeName@SelectMicParams@proto@sdk@electron@com@@UEBA?AV?$basic_string@DU?$char_traits@D@std@@V?$allocator@D@2@@std@@XZ 0000000180026a40 f   electron_sdk.pb.obj
 0001:00025a70       ?CheckTypeAndMergeFrom@SelectSpeakerParams@proto@sdk@electron@com@@UEAAXAEBVMessageLite@protobuf@google@@@Z 0000000180026a70 f   electron_sdk.pb.obj
 0001:00025a80       ?MergeFrom@SelectSpeakerParams@proto@sdk@electron@com@@QEAAXAEBV12345@@Z 0000000180026a80 f   electron_sdk.pb.obj
 0001:00025bb0       ?GetTypeName@SelectSpeakerParams@proto@sdk@electron@com@@UEBA?AV?$basic_string@DU?$char_traits@D@std@@V?$allocator@D@2@@std@@XZ 0000000180026bb0 f   electron_sdk.pb.obj
 0001:00025be0       ?CheckTypeAndMergeFrom@EnableAutoJoinAudioParams@proto@sdk@electron@com@@UEAAXAEBVMessageLite@protobuf@google@@@Z 0000000180026be0 f   electron_sdk.pb.obj
 0001:00025bf0       ?MergeFrom@EnableAutoJoinAudioParams@proto@sdk@electron@com@@QEAAXAEBV12345@@Z 0000000180026bf0 f   electron_sdk.pb.obj
 0001:00025ca0       ?GetTypeName@EnableAutoJoinAudioParams@proto@sdk@electron@com@@UEBA?AV?$basic_string@DU?$char_traits@D@std@@V?$allocator@D@2@@std@@XZ 0000000180026ca0 f   electron_sdk.pb.obj
 0001:00025cd0       ?CheckTypeAndMergeFrom@EnableAutoAdjustMicParams@proto@sdk@electron@com@@UEAAXAEBVMessageLite@protobuf@google@@@Z 0000000180026cd0 f   electron_sdk.pb.obj
 0001:00025ce0       ?MergeFrom@EnableAutoAdjustMicParams@proto@sdk@electron@com@@QEAAXAEBV12345@@Z 0000000180026ce0 f   electron_sdk.pb.obj
 0001:00025d90       ?GetTypeName@EnableAutoAdjustMicParams@proto@sdk@electron@com@@UEBA?AV?$basic_string@DU?$char_traits@D@std@@V?$allocator@D@2@@std@@XZ 0000000180026d90 f   electron_sdk.pb.obj
 0001:00025dc0       ?CheckTypeAndMergeFrom@EnableStereoAudioParams@proto@sdk@electron@com@@UEAAXAEBVMessageLite@protobuf@google@@@Z 0000000180026dc0 f   electron_sdk.pb.obj
 0001:00025dd0       ?MergeFrom@EnableStereoAudioParams@proto@sdk@electron@com@@QEAAXAEBV12345@@Z 0000000180026dd0 f   electron_sdk.pb.obj
 0001:00025e80       ?GetTypeName@EnableStereoAudioParams@proto@sdk@electron@com@@UEBA?AV?$basic_string@DU?$char_traits@D@std@@V?$allocator@D@2@@std@@XZ 0000000180026e80 f   electron_sdk.pb.obj
 0001:00025eb0       ?CheckTypeAndMergeFrom@EnableMicOriginalInputParams@proto@sdk@electron@com@@UEAAXAEBVMessageLite@protobuf@google@@@Z 0000000180026eb0 f   electron_sdk.pb.obj
 0001:00025ec0       ?MergeFrom@EnableMicOriginalInputParams@proto@sdk@electron@com@@QEAAXAEBV12345@@Z 0000000180026ec0 f   electron_sdk.pb.obj
 0001:00025f70       ?GetTypeName@EnableMicOriginalInputParams@proto@sdk@electron@com@@UEBA?AV?$basic_string@DU?$char_traits@D@std@@V?$allocator@D@2@@std@@XZ 0000000180026f70 f   electron_sdk.pb.obj
 0001:00025fa0       ?CheckTypeAndMergeFrom@EnableHoldSpaceKeyToSpeakParams@proto@sdk@electron@com@@UEAAXAEBVMessageLite@protobuf@google@@@Z 0000000180026fa0 f   electron_sdk.pb.obj
 0001:00025fb0       ?MergeFrom@EnableHoldSpaceKeyToSpeakParams@proto@sdk@electron@com@@QEAAXAEBV12345@@Z 0000000180026fb0 f   electron_sdk.pb.obj
 0001:00026060       ?GetTypeName@EnableHoldSpaceKeyToSpeakParams@proto@sdk@electron@com@@UEBA?AV?$basic_string@DU?$char_traits@D@std@@V?$allocator@D@2@@std@@XZ 0000000180027060 f   electron_sdk.pb.obj
 0001:00026090       ?CheckTypeAndMergeFrom@EnableAlwaysMuteMicWhenJoinVoipParams@proto@sdk@electron@com@@UEAAXAEBVMessageLite@protobuf@google@@@Z 0000000180027090 f   electron_sdk.pb.obj
 0001:000260a0       ?MergeFrom@EnableAlwaysMuteMicWhenJoinVoipParams@proto@sdk@electron@com@@QEAAXAEBV12345@@Z 00000001800270a0 f   electron_sdk.pb.obj
 0001:00026150       ?GetTypeName@EnableAlwaysMuteMicWhenJoinVoipParams@proto@sdk@electron@com@@UEBA?AV?$basic_string@DU?$char_traits@D@std@@V?$allocator@D@2@@std@@XZ 0000000180027150 f   electron_sdk.pb.obj
 0001:00026180       ?CheckTypeAndMergeFrom@EnableSuppressAudioNotifyParams@proto@sdk@electron@com@@UEAAXAEBVMessageLite@protobuf@google@@@Z 0000000180027180 f   electron_sdk.pb.obj
 0001:00026190       ?MergeFrom@EnableSuppressAudioNotifyParams@proto@sdk@electron@com@@QEAAXAEBV12345@@Z 0000000180027190 f   electron_sdk.pb.obj
 0001:00026240       ?GetTypeName@EnableSuppressAudioNotifyParams@proto@sdk@electron@com@@UEBA?AV?$basic_string@DU?$char_traits@D@std@@V?$allocator@D@2@@std@@XZ 0000000180027240 f   electron_sdk.pb.obj
 0001:00026270       ?CheckTypeAndMergeFrom@SetEchoCancellationLevelParams@proto@sdk@electron@com@@UEAAXAEBVMessageLite@protobuf@google@@@Z 0000000180027270 f   electron_sdk.pb.obj
 0001:00026280       ?MergeFrom@SetEchoCancellationLevelParams@proto@sdk@electron@com@@QEAAXAEBV12345@@Z 0000000180027280 f   electron_sdk.pb.obj
 0001:00026330       ?GetTypeName@SetEchoCancellationLevelParams@proto@sdk@electron@com@@UEBA?AV?$basic_string@DU?$char_traits@D@std@@V?$allocator@D@2@@std@@XZ 0000000180027330 f   electron_sdk.pb.obj
 0001:00026360       ?_InternalParse@SetMicVolParams@proto@sdk@electron@com@@UEAAPEBDPEBDPEAVParseContext@internal@protobuf@google@@@Z 0000000180027360 f   electron_sdk.pb.obj
 0001:00026360       ?_InternalParse@SetSpeakerVolParams@proto@sdk@electron@com@@UEAAPEBDPEBDPEAVParseContext@internal@protobuf@google@@@Z 0000000180027360 f   electron_sdk.pb.obj
 0001:00026490       ?_InternalSerialize@SetMicVolParams@proto@sdk@electron@com@@UEBAPEAEPEAEPEAVEpsCopyOutputStream@io@protobuf@google@@@Z 0000000180027490 f   electron_sdk.pb.obj
 0001:00026490       ?_InternalSerialize@SetSpeakerVolParams@proto@sdk@electron@com@@UEBAPEAEPEAEPEAVEpsCopyOutputStream@io@protobuf@google@@@Z 0000000180027490 f   electron_sdk.pb.obj
 0001:00026560       ?ByteSizeLong@SetMicVolParams@proto@sdk@electron@com@@UEBA_KXZ 0000000180027560 f   electron_sdk.pb.obj
 0001:00026560       ?ByteSizeLong@SetSpeakerVolParams@proto@sdk@electron@com@@UEBA_KXZ 0000000180027560 f   electron_sdk.pb.obj
 0001:00026590       ?CheckTypeAndMergeFrom@SetMicVolParams@proto@sdk@electron@com@@UEAAXAEBVMessageLite@protobuf@google@@@Z 0000000180027590 f   electron_sdk.pb.obj
 0001:000265a0       ?MergeFrom@SetMicVolParams@proto@sdk@electron@com@@QEAAXAEBV12345@@Z 00000001800275a0 f   electron_sdk.pb.obj
 0001:00026650       ?GetTypeName@SetMicVolParams@proto@sdk@electron@com@@UEBA?AV?$basic_string@DU?$char_traits@D@std@@V?$allocator@D@2@@std@@XZ 0000000180027650 f   electron_sdk.pb.obj
 0001:00026680       ?CheckTypeAndMergeFrom@SetSpeakerVolParams@proto@sdk@electron@com@@UEAAXAEBVMessageLite@protobuf@google@@@Z 0000000180027680 f   electron_sdk.pb.obj
 0001:00026690       ?MergeFrom@SetSpeakerVolParams@proto@sdk@electron@com@@QEAAXAEBV12345@@Z 0000000180027690 f   electron_sdk.pb.obj
 0001:00026740       ?GetTypeName@SetSpeakerVolParams@proto@sdk@electron@com@@UEBA?AV?$basic_string@DU?$char_traits@D@std@@V?$allocator@D@2@@std@@XZ 0000000180027740 f   electron_sdk.pb.obj
 0001:00026770       ?CheckTypeAndMergeFrom@EnableDualScreenModeParams@proto@sdk@electron@com@@UEAAXAEBVMessageLite@protobuf@google@@@Z 0000000180027770 f   electron_sdk.pb.obj
 0001:00026780       ?MergeFrom@EnableDualScreenModeParams@proto@sdk@electron@com@@QEAAXAEBV12345@@Z 0000000180027780 f   electron_sdk.pb.obj
 0001:00026830       ?GetTypeName@EnableDualScreenModeParams@proto@sdk@electron@com@@UEBA?AV?$basic_string@DU?$char_traits@D@std@@V?$allocator@D@2@@std@@XZ 0000000180027830 f   electron_sdk.pb.obj
 0001:00026860       ?CheckTypeAndMergeFrom@TurnOffAeroModeInSharingParams@proto@sdk@electron@com@@UEAAXAEBVMessageLite@protobuf@google@@@Z 0000000180027860 f   electron_sdk.pb.obj
 0001:00026870       ?MergeFrom@TurnOffAeroModeInSharingParams@proto@sdk@electron@com@@QEAAXAEBV12345@@Z 0000000180027870 f   electron_sdk.pb.obj
 0001:00026920       ?GetTypeName@TurnOffAeroModeInSharingParams@proto@sdk@electron@com@@UEBA?AV?$basic_string@DU?$char_traits@D@std@@V?$allocator@D@2@@std@@XZ 0000000180027920 f   electron_sdk.pb.obj
 0001:00026950       ?CheckTypeAndMergeFrom@EnableAutoFitToWindowWhenViewSharingParams@proto@sdk@electron@com@@UEAAXAEBVMessageLite@protobuf@google@@@Z 0000000180027950 f   electron_sdk.pb.obj
 0001:00026960       ?MergeFrom@EnableAutoFitToWindowWhenViewSharingParams@proto@sdk@electron@com@@QEAAXAEBV12345@@Z 0000000180027960 f   electron_sdk.pb.obj
 0001:00026a10       ?GetTypeName@EnableAutoFitToWindowWhenViewSharingParams@proto@sdk@electron@com@@UEBA?AV?$basic_string@DU?$char_traits@D@std@@V?$allocator@D@2@@std@@XZ 0000000180027a10 f   electron_sdk.pb.obj
 0001:00026a40       ?CheckTypeAndMergeFrom@EnableAutoFullScreenVideoWhenJoinMeetingParams@proto@sdk@electron@com@@UEAAXAEBVMessageLite@protobuf@google@@@Z 0000000180027a40 f   electron_sdk.pb.obj
 0001:00026a50       ?MergeFrom@EnableAutoFullScreenVideoWhenJoinMeetingParams@proto@sdk@electron@com@@QEAAXAEBV12345@@Z 0000000180027a50 f   electron_sdk.pb.obj
 0001:00026b00       ?GetTypeName@EnableAutoFullScreenVideoWhenJoinMeetingParams@proto@sdk@electron@com@@UEBA?AV?$basic_string@DU?$char_traits@D@std@@V?$allocator@D@2@@std@@XZ 0000000180027b00 f   electron_sdk.pb.obj
 0001:00026b30       ?CheckTypeAndMergeFrom@EnableSplitScreenModeParams@proto@sdk@electron@com@@UEAAXAEBVMessageLite@protobuf@google@@@Z 0000000180027b30 f   electron_sdk.pb.obj
 0001:00026b40       ?MergeFrom@EnableSplitScreenModeParams@proto@sdk@electron@com@@QEAAXAEBV12345@@Z 0000000180027b40 f   electron_sdk.pb.obj
 0001:00026bf0       ?GetTypeName@EnableSplitScreenModeParams@proto@sdk@electron@com@@UEBA?AV?$basic_string@DU?$char_traits@D@std@@V?$allocator@D@2@@std@@XZ 0000000180027bf0 f   electron_sdk.pb.obj
 0001:00026c20       ?CheckTypeAndMergeFrom@EnableAutoFullScreenVideoWhenViewShareParams@proto@sdk@electron@com@@UEAAXAEBVMessageLite@protobuf@google@@@Z 0000000180027c20 f   electron_sdk.pb.obj
 0001:00026c30       ?MergeFrom@EnableAutoFullScreenVideoWhenViewShareParams@proto@sdk@electron@com@@QEAAXAEBV12345@@Z 0000000180027c30 f   electron_sdk.pb.obj
 0001:00026ce0       ?GetTypeName@EnableAutoFullScreenVideoWhenViewShareParams@proto@sdk@electron@com@@UEBA?AV?$basic_string@DU?$char_traits@D@std@@V?$allocator@D@2@@std@@XZ 0000000180027ce0 f   electron_sdk.pb.obj
 0001:00026d10       ?CheckTypeAndMergeFrom@EnableDisplayReminderWindowWhenExitParams@proto@sdk@electron@com@@UEAAXAEBVMessageLite@protobuf@google@@@Z 0000000180027d10 f   electron_sdk.pb.obj
 0001:00026d20       ?MergeFrom@EnableDisplayReminderWindowWhenExitParams@proto@sdk@electron@com@@QEAAXAEBV12345@@Z 0000000180027d20 f   electron_sdk.pb.obj
 0001:00026dd0       ?GetTypeName@EnableDisplayReminderWindowWhenExitParams@proto@sdk@electron@com@@UEBA?AV?$basic_string@DU?$char_traits@D@std@@V?$allocator@D@2@@std@@XZ 0000000180027dd0 f   electron_sdk.pb.obj
 0001:00026e00       ?CheckTypeAndMergeFrom@EnableShowMyMeetingElapseTimeParams@proto@sdk@electron@com@@UEAAXAEBVMessageLite@protobuf@google@@@Z 0000000180027e00 f   electron_sdk.pb.obj
 0001:00026e10       ?MergeFrom@EnableShowMyMeetingElapseTimeParams@proto@sdk@electron@com@@QEAAXAEBV12345@@Z 0000000180027e10 f   electron_sdk.pb.obj
 0001:00026ec0       ?GetTypeName@EnableShowMyMeetingElapseTimeParams@proto@sdk@electron@com@@UEBA?AV?$basic_string@DU?$char_traits@D@std@@V?$allocator@D@2@@std@@XZ 0000000180027ec0 f   electron_sdk.pb.obj
 0001:00026ef0       ?CheckTypeAndMergeFrom@EnableAccelerateGPUWhenShareParams@proto@sdk@electron@com@@UEAAXAEBVMessageLite@protobuf@google@@@Z 0000000180027ef0 f   electron_sdk.pb.obj
 0001:00026f00       ?MergeFrom@EnableAccelerateGPUWhenShareParams@proto@sdk@electron@com@@QEAAXAEBV12345@@Z 0000000180027f00 f   electron_sdk.pb.obj
 0001:00026fb0       ?GetTypeName@EnableAccelerateGPUWhenShareParams@proto@sdk@electron@com@@UEBA?AV?$basic_string@DU?$char_traits@D@std@@V?$allocator@D@2@@std@@XZ 0000000180027fb0 f   electron_sdk.pb.obj
 0001:00026fe0       ?CheckTypeAndMergeFrom@EnableRemoteControlAllApplicationsParams@proto@sdk@electron@com@@UEAAXAEBVMessageLite@protobuf@google@@@Z 0000000180027fe0 f   electron_sdk.pb.obj
 0001:00026ff0       ?MergeFrom@EnableRemoteControlAllApplicationsParams@proto@sdk@electron@com@@QEAAXAEBV12345@@Z 0000000180027ff0 f   electron_sdk.pb.obj
 0001:000270a0       ?GetTypeName@EnableRemoteControlAllApplicationsParams@proto@sdk@electron@com@@UEBA?AV?$basic_string@DU?$char_traits@D@std@@V?$allocator@D@2@@std@@XZ 00000001800280a0 f   electron_sdk.pb.obj
 0001:000270d0       ?CheckTypeAndMergeFrom@SetRecordingPathParams@proto@sdk@electron@com@@UEAAXAEBVMessageLite@protobuf@google@@@Z 00000001800280d0 f   electron_sdk.pb.obj
 0001:000270e0       ?MergeFrom@SetRecordingPathParams@proto@sdk@electron@com@@QEAAXAEBV12345@@Z 00000001800280e0 f   electron_sdk.pb.obj
 0001:000271b0       ?GetTypeName@SetRecordingPathParams@proto@sdk@electron@com@@UEBA?AV?$basic_string@DU?$char_traits@D@std@@V?$allocator@D@2@@std@@XZ 00000001800281b0 f   electron_sdk.pb.obj
 0001:000271e0       ?CheckTypeAndMergeFrom@EnableSelectRecordFileLocationAfterMeetingParams@proto@sdk@electron@com@@UEAAXAEBVMessageLite@protobuf@google@@@Z 00000001800281e0 f   electron_sdk.pb.obj
 0001:000271f0       ?MergeFrom@EnableSelectRecordFileLocationAfterMeetingParams@proto@sdk@electron@com@@QEAAXAEBV12345@@Z 00000001800281f0 f   electron_sdk.pb.obj
 0001:000272a0       ?GetTypeName@EnableSelectRecordFileLocationAfterMeetingParams@proto@sdk@electron@com@@UEBA?AV?$basic_string@DU?$char_traits@D@std@@V?$allocator@D@2@@std@@XZ 00000001800282a0 f   electron_sdk.pb.obj
 0001:000272d0       ?CheckTypeAndMergeFrom@EnableMultiAudioStreamRecordParams@proto@sdk@electron@com@@UEAAXAEBVMessageLite@protobuf@google@@@Z 00000001800282d0 f   electron_sdk.pb.obj
 0001:000272e0       ?MergeFrom@EnableMultiAudioStreamRecordParams@proto@sdk@electron@com@@QEAAXAEBV12345@@Z 00000001800282e0 f   electron_sdk.pb.obj
 0001:00027390       ?GetTypeName@EnableMultiAudioStreamRecordParams@proto@sdk@electron@com@@UEBA?AV?$basic_string@DU?$char_traits@D@std@@V?$allocator@D@2@@std@@XZ 0000000180028390 f   electron_sdk.pb.obj
 0001:000273c0       ?CheckTypeAndMergeFrom@EnableAddTimestampWatermarkParams@proto@sdk@electron@com@@UEAAXAEBVMessageLite@protobuf@google@@@Z 00000001800283c0 f   electron_sdk.pb.obj
 0001:000273d0       ?MergeFrom@EnableAddTimestampWatermarkParams@proto@sdk@electron@com@@QEAAXAEBV12345@@Z 00000001800283d0 f   electron_sdk.pb.obj
 0001:00027480       ?GetTypeName@EnableAddTimestampWatermarkParams@proto@sdk@electron@com@@UEBA?AV?$basic_string@DU?$char_traits@D@std@@V?$allocator@D@2@@std@@XZ 0000000180028480 f   electron_sdk.pb.obj
 0001:000274b0       ?CheckTypeAndMergeFrom@EnableOptimizeFor3rdPartyVideoEditorParams@proto@sdk@electron@com@@UEAAXAEBVMessageLite@protobuf@google@@@Z 00000001800284b0 f   electron_sdk.pb.obj
 0001:000274c0       ?MergeFrom@EnableOptimizeFor3rdPartyVideoEditorParams@proto@sdk@electron@com@@QEAAXAEBV12345@@Z 00000001800284c0 f   electron_sdk.pb.obj
 0001:00027570       ?GetTypeName@EnableOptimizeFor3rdPartyVideoEditorParams@proto@sdk@electron@com@@UEBA?AV?$basic_string@DU?$char_traits@D@std@@V?$allocator@D@2@@std@@XZ 0000000180028570 f   electron_sdk.pb.obj
 0001:000275a0       ?CheckTypeAndMergeFrom@EnableShowVideoThumbnailWhenShareParams@proto@sdk@electron@com@@UEAAXAEBVMessageLite@protobuf@google@@@Z 00000001800285a0 f   electron_sdk.pb.obj
 0001:000275b0       ?MergeFrom@EnableShowVideoThumbnailWhenShareParams@proto@sdk@electron@com@@QEAAXAEBV12345@@Z 00000001800285b0 f   electron_sdk.pb.obj
 0001:00027660       ?GetTypeName@EnableShowVideoThumbnailWhenShareParams@proto@sdk@electron@com@@UEBA?AV?$basic_string@DU?$char_traits@D@std@@V?$allocator@D@2@@std@@XZ 0000000180028660 f   electron_sdk.pb.obj
 0001:00027690       ?CheckTypeAndMergeFrom@EnablePlaceVideoNextToShareInRecordParams@proto@sdk@electron@com@@UEAAXAEBVMessageLite@protobuf@google@@@Z 0000000180028690 f   electron_sdk.pb.obj
 0001:000276a0       ?MergeFrom@EnablePlaceVideoNextToShareInRecordParams@proto@sdk@electron@com@@QEAAXAEBV12345@@Z 00000001800286a0 f   electron_sdk.pb.obj
 0001:00027750       ?GetTypeName@EnablePlaceVideoNextToShareInRecordParams@proto@sdk@electron@com@@UEBA?AV?$basic_string@DU?$char_traits@D@std@@V?$allocator@D@2@@std@@XZ 0000000180028750 f   electron_sdk.pb.obj
 0001:00027780       ?CheckTypeAndMergeFrom@DisableAdvancedFeatures4GeneralSettingParams@proto@sdk@electron@com@@UEAAXAEBVMessageLite@protobuf@google@@@Z 0000000180028780 f   electron_sdk.pb.obj
 0001:00027790       ?MergeFrom@DisableAdvancedFeatures4GeneralSettingParams@proto@sdk@electron@com@@QEAAXAEBV12345@@Z 0000000180028790 f   electron_sdk.pb.obj
 0001:00027840       ?GetTypeName@DisableAdvancedFeatures4GeneralSettingParams@proto@sdk@electron@com@@UEBA?AV?$basic_string@DU?$char_traits@D@std@@V?$allocator@D@2@@std@@XZ 0000000180028840 f   electron_sdk.pb.obj
 0001:00027870       ?CheckTypeAndMergeFrom@DisableAccountSettingTabPageParams@proto@sdk@electron@com@@UEAAXAEBVMessageLite@protobuf@google@@@Z 0000000180028870 f   electron_sdk.pb.obj
 0001:00027880       ?MergeFrom@DisableAccountSettingTabPageParams@proto@sdk@electron@com@@QEAAXAEBV12345@@Z 0000000180028880 f   electron_sdk.pb.obj
 0001:00027930       ?GetTypeName@DisableAccountSettingTabPageParams@proto@sdk@electron@com@@UEBA?AV?$basic_string@DU?$char_traits@D@std@@V?$allocator@D@2@@std@@XZ 0000000180028930 f   electron_sdk.pb.obj
 0001:00027960       ?CheckTypeAndMergeFrom@HideAutoCopyInviteLinkCheckBoxParams@proto@sdk@electron@com@@UEAAXAEBVMessageLite@protobuf@google@@@Z 0000000180028960 f   electron_sdk.pb.obj
 0001:00027970       ?MergeFrom@HideAutoCopyInviteLinkCheckBoxParams@proto@sdk@electron@com@@QEAAXAEBV12345@@Z 0000000180028970 f   electron_sdk.pb.obj
 0001:00027a20       ?GetTypeName@HideAutoCopyInviteLinkCheckBoxParams@proto@sdk@electron@com@@UEBA?AV?$basic_string@DU?$char_traits@D@std@@V?$allocator@D@2@@std@@XZ 0000000180028a20 f   electron_sdk.pb.obj
 0001:00027a50       ?CheckTypeAndMergeFrom@ConfigToShowUrlLinksInSettingParams@proto@sdk@electron@com@@UEAAXAEBVMessageLite@protobuf@google@@@Z 0000000180028a50 f   electron_sdk.pb.obj
 0001:00027a60       ?MergeFrom@ConfigToShowUrlLinksInSettingParams@proto@sdk@electron@com@@QEAAXAEBV12345@@Z 0000000180028a60 f   electron_sdk.pb.obj
 0001:00027b10       ?GetTypeName@ConfigToShowUrlLinksInSettingParams@proto@sdk@electron@com@@UEBA?AV?$basic_string@DU?$char_traits@D@std@@V?$allocator@D@2@@std@@XZ 0000000180028b10 f   electron_sdk.pb.obj
 0001:00027b40       ?CheckTypeAndMergeFrom@ConfSettingDialogShownTabPageParams@proto@sdk@electron@com@@UEAAXAEBVMessageLite@protobuf@google@@@Z 0000000180028b40 f   electron_sdk.pb.obj
 0001:00027b50       ?MergeFrom@ConfSettingDialogShownTabPageParams@proto@sdk@electron@com@@QEAAXAEBV12345@@Z 0000000180028b50 f   electron_sdk.pb.obj
 0001:00027c00       ?GetTypeName@ConfSettingDialogShownTabPageParams@proto@sdk@electron@com@@UEBA?AV?$basic_string@DU?$char_traits@D@std@@V?$allocator@D@2@@std@@XZ 0000000180028c00 f   electron_sdk.pb.obj
 0001:00027c30       ?CheckTypeAndMergeFrom@SelectVideoCameraParams@proto@sdk@electron@com@@UEAAXAEBVMessageLite@protobuf@google@@@Z 0000000180028c30 f   electron_sdk.pb.obj
 0001:00027c40       ?MergeFrom@SelectVideoCameraParams@proto@sdk@electron@com@@QEAAXAEBV12345@@Z 0000000180028c40 f   electron_sdk.pb.obj
 0001:00027d10       ?GetTypeName@SelectVideoCameraParams@proto@sdk@electron@com@@UEBA?AV?$basic_string@DU?$char_traits@D@std@@V?$allocator@D@2@@std@@XZ 0000000180028d10 f   electron_sdk.pb.obj
 0001:00027d40       ?CheckTypeAndMergeFrom@EnableVideoMirrorEffectParams@proto@sdk@electron@com@@UEAAXAEBVMessageLite@protobuf@google@@@Z 0000000180028d40 f   electron_sdk.pb.obj
 0001:00027d50       ?MergeFrom@EnableVideoMirrorEffectParams@proto@sdk@electron@com@@QEAAXAEBV12345@@Z 0000000180028d50 f   electron_sdk.pb.obj
 0001:00027e00       ?GetTypeName@EnableVideoMirrorEffectParams@proto@sdk@electron@com@@UEBA?AV?$basic_string@DU?$char_traits@D@std@@V?$allocator@D@2@@std@@XZ 0000000180028e00 f   electron_sdk.pb.obj
 0001:00027e30       ?CheckTypeAndMergeFrom@EnableFaceBeautyEffectParams@proto@sdk@electron@com@@UEAAXAEBVMessageLite@protobuf@google@@@Z 0000000180028e30 f   electron_sdk.pb.obj
 0001:00027e40       ?MergeFrom@EnableFaceBeautyEffectParams@proto@sdk@electron@com@@QEAAXAEBV12345@@Z 0000000180028e40 f   electron_sdk.pb.obj
 0001:00027ef0       ?GetTypeName@EnableFaceBeautyEffectParams@proto@sdk@electron@com@@UEBA?AV?$basic_string@DU?$char_traits@D@std@@V?$allocator@D@2@@std@@XZ 0000000180028ef0 f   electron_sdk.pb.obj
 0001:00027f20       ?CheckTypeAndMergeFrom@EnableHDVideoParams@proto@sdk@electron@com@@UEAAXAEBVMessageLite@protobuf@google@@@Z 0000000180028f20 f   electron_sdk.pb.obj
 0001:00027f30       ?MergeFrom@EnableHDVideoParams@proto@sdk@electron@com@@QEAAXAEBV12345@@Z 0000000180028f30 f   electron_sdk.pb.obj
 0001:00027fe0       ?GetTypeName@EnableHDVideoParams@proto@sdk@electron@com@@UEBA?AV?$basic_string@DU?$char_traits@D@std@@V?$allocator@D@2@@std@@XZ 0000000180028fe0 f   electron_sdk.pb.obj
 0001:00028010       ?CheckTypeAndMergeFrom@EnableAlwaysShowNameOnVideoParams@proto@sdk@electron@com@@UEAAXAEBVMessageLite@protobuf@google@@@Z 0000000180029010 f   electron_sdk.pb.obj
 0001:00028020       ?MergeFrom@EnableAlwaysShowNameOnVideoParams@proto@sdk@electron@com@@QEAAXAEBV12345@@Z 0000000180029020 f   electron_sdk.pb.obj
 0001:000280d0       ?GetTypeName@EnableAlwaysShowNameOnVideoParams@proto@sdk@electron@com@@UEBA?AV?$basic_string@DU?$char_traits@D@std@@V?$allocator@D@2@@std@@XZ 00000001800290d0 f   electron_sdk.pb.obj
 0001:00028100       ?CheckTypeAndMergeFrom@EnableVideoPreviewDialogParams@proto@sdk@electron@com@@UEAAXAEBVMessageLite@protobuf@google@@@Z 0000000180029100 f   electron_sdk.pb.obj
 0001:00028110       ?MergeFrom@EnableVideoPreviewDialogParams@proto@sdk@electron@com@@QEAAXAEBV12345@@Z 0000000180029110 f   electron_sdk.pb.obj
 0001:000281c0       ?GetTypeName@EnableVideoPreviewDialogParams@proto@sdk@electron@com@@UEBA?AV?$basic_string@DU?$char_traits@D@std@@V?$allocator@D@2@@std@@XZ 00000001800291c0 f   electron_sdk.pb.obj
 0001:000281f0       ?CheckTypeAndMergeFrom@EnableAutoTurnOffVideoWhenJoinMeetingParams@proto@sdk@electron@com@@UEAAXAEBVMessageLite@protobuf@google@@@Z 00000001800291f0 f   electron_sdk.pb.obj
 0001:00028200       ?MergeFrom@EnableAutoTurnOffVideoWhenJoinMeetingParams@proto@sdk@electron@com@@QEAAXAEBV12345@@Z 0000000180029200 f   electron_sdk.pb.obj
 0001:000282b0       ?GetTypeName@EnableAutoTurnOffVideoWhenJoinMeetingParams@proto@sdk@electron@com@@UEBA?AV?$basic_string@DU?$char_traits@D@std@@V?$allocator@D@2@@std@@XZ 00000001800292b0 f   electron_sdk.pb.obj
 0001:000282e0       ?CheckTypeAndMergeFrom@EnableSpotlightSelfParams@proto@sdk@electron@com@@UEAAXAEBVMessageLite@protobuf@google@@@Z 00000001800292e0 f   electron_sdk.pb.obj
 0001:000282f0       ?MergeFrom@EnableSpotlightSelfParams@proto@sdk@electron@com@@QEAAXAEBV12345@@Z 00000001800292f0 f   electron_sdk.pb.obj
 0001:000283a0       ?GetTypeName@EnableSpotlightSelfParams@proto@sdk@electron@com@@UEBA?AV?$basic_string@DU?$char_traits@D@std@@V?$allocator@D@2@@std@@XZ 00000001800293a0 f   electron_sdk.pb.obj
 0001:000283d0       ?_InternalSerialize@EnableHardwareEncodeParams@proto@sdk@electron@com@@UEBAPEAEPEAEPEAVEpsCopyOutputStream@io@protobuf@google@@@Z 00000001800293d0 f   electron_sdk.pb.obj
 0001:000284e0       ?ByteSizeLong@EnableHardwareEncodeParams@proto@sdk@electron@com@@UEBA_KXZ 00000001800294e0 f   electron_sdk.pb.obj
 0001:00028550       ?CheckTypeAndMergeFrom@EnableHardwareEncodeParams@proto@sdk@electron@com@@UEAAXAEBVMessageLite@protobuf@google@@@Z 0000000180029550 f   electron_sdk.pb.obj
 0001:00028560       ?MergeFrom@EnableHardwareEncodeParams@proto@sdk@electron@com@@QEAAXAEBV12345@@Z 0000000180029560 f   electron_sdk.pb.obj
 0001:00028620       ?GetTypeName@EnableHardwareEncodeParams@proto@sdk@electron@com@@UEBA?AV?$basic_string@DU?$char_traits@D@std@@V?$allocator@D@2@@std@@XZ 0000000180029620 f   electron_sdk.pb.obj
 0001:00028650       ?CheckTypeAndMergeFrom@IsHardwareEncodeEnabledParams@proto@sdk@electron@com@@UEAAXAEBVMessageLite@protobuf@google@@@Z 0000000180029650 f   electron_sdk.pb.obj
 0001:00028660       ?MergeFrom@IsHardwareEncodeEnabledParams@proto@sdk@electron@com@@QEAAXAEBV12345@@Z 0000000180029660 f   electron_sdk.pb.obj
 0001:00028710       ?GetTypeName@IsHardwareEncodeEnabledParams@proto@sdk@electron@com@@UEBA?AV?$basic_string@DU?$char_traits@D@std@@V?$allocator@D@2@@std@@XZ 0000000180029710 f   electron_sdk.pb.obj
 0001:00028740       ?CheckTypeAndMergeFrom@Enable49VideoesInGallaryViewParams@proto@sdk@electron@com@@UEAAXAEBVMessageLite@protobuf@google@@@Z 0000000180029740 f   electron_sdk.pb.obj
 0001:00028750       ?MergeFrom@Enable49VideoesInGallaryViewParams@proto@sdk@electron@com@@QEAAXAEBV12345@@Z 0000000180029750 f   electron_sdk.pb.obj
 0001:00028800       ?GetTypeName@Enable49VideoesInGallaryViewParams@proto@sdk@electron@com@@UEBA?AV?$basic_string@DU?$char_traits@D@std@@V?$allocator@D@2@@std@@XZ 0000000180029800 f   electron_sdk.pb.obj
 0001:00028830       ?CheckTypeAndMergeFrom@EnableHideNoVideoUsersOnWallViewParams@proto@sdk@electron@com@@UEAAXAEBVMessageLite@protobuf@google@@@Z 0000000180029830 f   electron_sdk.pb.obj
 0001:00028840       ?MergeFrom@EnableHideNoVideoUsersOnWallViewParams@proto@sdk@electron@com@@QEAAXAEBV12345@@Z 0000000180029840 f   electron_sdk.pb.obj
 0001:000288f0       ?GetTypeName@EnableHideNoVideoUsersOnWallViewParams@proto@sdk@electron@com@@UEBA?AV?$basic_string@DU?$char_traits@D@std@@V?$allocator@D@2@@std@@XZ 00000001800298f0 f   electron_sdk.pb.obj
 0001:00028920       ?CheckTypeAndMergeFrom@GenerateSSOLoginWebURLParams@proto@sdk@electron@com@@UEAAXAEBVMessageLite@protobuf@google@@@Z 0000000180029920 f   electron_sdk.pb.obj
 0001:00028930       ?MergeFrom@GenerateSSOLoginWebURLParams@proto@sdk@electron@com@@QEAAXAEBV12345@@Z 0000000180029930 f   electron_sdk.pb.obj
 0001:00028a00       ?GetTypeName@GenerateSSOLoginWebURLParams@proto@sdk@electron@com@@UEBA?AV?$basic_string@DU?$char_traits@D@std@@V?$allocator@D@2@@std@@XZ 0000000180029a00 f   electron_sdk.pb.obj
 0001:00028a30       ?CheckTypeAndMergeFrom@SSOLoginWithWebUriProtocolParams@proto@sdk@electron@com@@UEAAXAEBVMessageLite@protobuf@google@@@Z 0000000180029a30 f   electron_sdk.pb.obj
 0001:00028a40       ?MergeFrom@SSOLoginWithWebUriProtocolParams@proto@sdk@electron@com@@QEAAXAEBV12345@@Z 0000000180029a40 f   electron_sdk.pb.obj
 0001:00028b10       ?GetTypeName@SSOLoginWithWebUriProtocolParams@proto@sdk@electron@com@@UEBA?AV?$basic_string@DU?$char_traits@D@std@@V?$allocator@D@2@@std@@XZ 0000000180029b10 f   electron_sdk.pb.obj
 0001:00028b40       ?CheckTypeAndMergeFrom@ShowAANPanelParams@proto@sdk@electron@com@@UEAAXAEBVMessageLite@protobuf@google@@@Z 0000000180029b40 f   electron_sdk.pb.obj
 0001:00028b50       ?MergeFrom@ShowAANPanelParams@proto@sdk@electron@com@@QEAAXAEBV12345@@Z 0000000180029b50 f   electron_sdk.pb.obj
 0001:00028c20       ?GetTypeName@ShowAANPanelParams@proto@sdk@electron@com@@UEBA?AV?$basic_string@DU?$char_traits@D@std@@V?$allocator@D@2@@std@@XZ 0000000180029c20 f   electron_sdk.pb.obj
 0001:00028c50       ?CheckTypeAndMergeFrom@EnableInviteLinkOnMeetingUIParams@proto@sdk@electron@com@@UEAAXAEBVMessageLite@protobuf@google@@@Z 0000000180029c50 f   electron_sdk.pb.obj
 0001:00028c60       ?MergeFrom@EnableInviteLinkOnMeetingUIParams@proto@sdk@electron@com@@QEAAXAEBV12345@@Z 0000000180029c60 f   electron_sdk.pb.obj
 0001:00028d10       ?GetTypeName@EnableInviteLinkOnMeetingUIParams@proto@sdk@electron@com@@UEBA?AV?$basic_string@DU?$char_traits@D@std@@V?$allocator@D@2@@std@@XZ 0000000180029d10 f   electron_sdk.pb.obj
 0001:00028d40       ?CheckTypeAndMergeFrom@SetMeetingTopicParams@proto@sdk@electron@com@@UEAAXAEBVMessageLite@protobuf@google@@@Z 0000000180029d40 f   electron_sdk.pb.obj
 0001:00028d50       ?MergeFrom@SetMeetingTopicParams@proto@sdk@electron@com@@QEAAXAEBV12345@@Z 0000000180029d50 f   electron_sdk.pb.obj
 0001:00028e20       ?GetTypeName@SetMeetingTopicParams@proto@sdk@electron@com@@UEBA?AV?$basic_string@DU?$char_traits@D@std@@V?$allocator@D@2@@std@@XZ 0000000180029e20 f   electron_sdk.pb.obj
 0001:00028e50       ?CheckTypeAndMergeFrom@SetCustomizedCloudRecordingMgrUrlParams@proto@sdk@electron@com@@UEAAXAEBVMessageLite@protobuf@google@@@Z 0000000180029e50 f   electron_sdk.pb.obj
 0001:00028e60       ?MergeFrom@SetCustomizedCloudRecordingMgrUrlParams@proto@sdk@electron@com@@QEAAXAEBV12345@@Z 0000000180029e60 f   electron_sdk.pb.obj
