 zoomsdk

 Timestamp is 696f7928 (Tue Jan 20 07:46:32 2026)

 Preferred load address is 0000000180000000

 Start         Length     Name                   Class
 0001:00000000 00001950H .text$di                CODE
 0001:00001950 00133250H .text$mn                CODE
 0001:00134ba0 00000040H .text$mn$00             CODE
 0001:00134be0 00000810H .text$x                 CODE
 0001:001353f0 00001a5fH .text$yd                CODE
 0002:00000000 00000558H .idata$5                DATA
 0002:00000558 00000038H .00cfg                  DATA
 0002:00000590 00000008H .CRT$XCA                DATA
 0002:00000598 000008e8H .CRT$XCL                DATA
 0002:00000e80 000001c8H .CRT$XCU                DATA
 0002:00001048 00000008H .CRT$XCZ                DATA
 0002:00001050 00000008H .CRT$XDA                DATA
 0002:00001058 00000008H .CRT$XDU                DATA
 0002:00001060 00000008H .CRT$XDZ                DATA
 0002:00001068 00000008H .CRT$XIA                DATA
 0002:00001070 00000008H .CRT$XIC                DATA
 0002:00001078 00000008H .CRT$XIZ                DATA
 0002:00001080 00000008H .CRT$XLA                DATA
 0002:00001088 00000008H .CRT$XLC                DATA
 0002:00001090 00000008H .CRT$XLD                DATA
 0002:00001098 00000008H .CRT$XLZ                DATA
 0002:000010a0 00000008H .CRT$XPA                DATA
 0002:000010a8 00000008H .CRT$XPZ                DATA
 0002:000010b0 00000008H .CRT$XTA                DATA
 0002:000010b8 00000008H .CRT$XTZ                DATA
 0002:000010c0 00000000H .gehcont$y              DATA
 0002:000010c0 00000000H .gfids$y                DATA
 0002:000010c0 00000000H .giats$y                DATA
 0002:000010c0 0001b540H .rdata                  DATA
 0002:0001c600 00000000H .rdata$CastGuardVftablesA DATA
 0002:0001c600 00000000H .rdata$CastGuardVftablesC DATA
 0002:0001c600 00000030H .rdata$T                DATA
 0002:0001c630 00000a0cH .rdata$r                DATA
 0002:0001d03c 00000490H .rdata$voltmd           DATA
 0002:0001d4cc 000004d4H .rdata$zzzdbg           DATA
 0002:0001d9a0 00000008H .rtc$IAA                DATA
 0002:0001d9a8 00000008H .rtc$IZZ                DATA
 0002:0001d9b0 00000008H .rtc$TAA                DATA
 0002:0001d9b8 00000008H .rtc$TZZ                DATA
 0002:0001d9c0 00000040H .tls                    DATA
 0002:0001da00 00000190H .tls$                   DATA
 0002:0001db90 00000008H .tls$ZZZ                DATA
 0002:0001db98 00016278H .xdata                  DATA
 0002:00033e10 0000017cH .xdata$x                DATA
 0002:00033f8c 00000020H .didat$2                DATA
 0002:00033fac 00000024H .didat$3                DATA
 0002:00033fd0 00000228H .didat$4                DATA
 0002:000341f8 00000dc8H .didat$6                DATA
 0002:00034fc0 00000230H .didat$7                DATA
 0002:000351f0 0000005cH .edata                  DATA
 0002:0003524c 00000104H .idata$2                DATA
 0002:00035350 00000018H .idata$3                DATA
 0002:00035368 00000558H .idata$4                DATA
 0002:000358c0 000013c2H .idata$6                DATA
 0003:00000000 00002bc0H .data                   DATA
 0003:00002bc0 00000130H .data$r                 DATA
 0003:00002cf0 00000468H .data$rs                DATA
 0003:00003158 00000228H .didat$5                DATA
 0003:00003380 00008eb0H .bss                    DATA
 0004:00000000 00015b7cH .pdata                  DATA
 0005:00000000 00000390H .rsrc$01                DATA
 0005:00000390 00038f60H .rsrc$02                DATA

  Address         Publics by Value              Rva+Base               Lib:Object

 0000:00000000       __AbsoluteZero             0000000000000000     <absolute>
 0000:00000000       ___safe_se_handler_count   0000000000000000     <absolute>
 0000:00000000       ___safe_se_handler_table   0000000000000000     <absolute>
 0000:00000000       __arm64x_extra_rfe_table   0000000000000000     <absolute>
 0000:00000000       __arm64x_extra_rfe_table_size 0000000000000000     <absolute>
 0000:00000000       __arm64x_native_entrypoint 0000000000000000     <absolute>
 0000:00000000       __arm64x_redirection_metadata 0000000000000000     <absolute>
 0000:00000000       __arm64x_redirection_metadata_count 0000000000000000     <absolute>
 0000:00000000       __dynamic_value_reloc_table 0000000000000000     <absolute>
 0000:00000000       __enclave_config           0000000000000000     <absolute>
 0000:00000000       __guard_check_icall_a64n_fptr 0000000000000000     <absolute>
 0000:00000000       __guard_eh_cont_count      0000000000000000     <absolute>
 0000:00000000       __guard_eh_cont_table      0000000000000000     <absolute>
 0000:00000000       __guard_fids_count         0000000000000000     <absolute>
 0000:00000000       __guard_fids_table         0000000000000000     <absolute>
 0000:00000000       __guard_iat_count          0000000000000000     <absolute>
 0000:00000000       __guard_iat_table          0000000000000000     <absolute>
 0000:00000000       __guard_longjmp_count      0000000000000000     <absolute>
 0000:00000000       __guard_longjmp_table      0000000000000000     <absolute>
 0000:00000000       __hybrid_auxiliary_iat     0000000000000000     <absolute>
 0000:00000000       __hybrid_auxiliary_iat_copy 0000000000000000     <absolute>
 0000:00000000       __hybrid_code_map          0000000000000000     <absolute>
 0000:00000000       __hybrid_code_map_count    0000000000000000     <absolute>
 0000:00000000       __x64_code_ranges_to_entry_points 0000000000000000     <absolute>
 0000:00000000       __x64_code_ranges_to_entry_points_count 0000000000000000     <absolute>
 0000:00000100       __guard_flags              0000000000000100     <absolute>
 0000:00000000       __ImageBase                0000000180000000     <linker-defined>
 0001:00001990       __local_stdio_printf_options 0000000180002990 f i zoom_native_sdk_wrap_core.obj
 0001:000019a0       printf                     00000001800029a0 f i zoom_native_sdk_wrap_core.obj
 0001:00001a00       vsnprintf                  0000000180002a00 f i zoom_native_sdk_wrap_core.obj
 0001:00001a70       ?what@exception@stdext@@UEBAPEBDXZ 0000000180002a70 f i zoom_native_sdk_wrap_core.obj
 0001:00001a90       ?_Raise@exception@stdext@@QEBAXXZ 0000000180002a90 f i zoom_native_sdk_wrap_core.obj
 0001:00001ad0       ?GetRawdataVideoSourceHelper@ZoomNodeRawApiCtrlWrap@@SAXAEBV?$FunctionCallbackInfo@VValue@v8@@@v8@@@Z 0000000180002ad0 f i zoom_node_rawdata_api_ctrl.obj
 0001:00001ad0       ?OnAllowAskQuestionAnonymousStatus@ZMeetingQACtrlEvent@@UEAAX_N@Z 0000000180002ad0 f i auth_service_wrap_core.obj
 0001:00001ad0       ?OnAllowAttendeeCommentQuestionStatus@ZMeetingQACtrlEvent@@UEAAX_N@Z 0000000180002ad0 f i auth_service_wrap_core.obj
 0001:00001ad0       ?OnAllowAttendeeViewAllQuestionStatus@ZMeetingQACtrlEvent@@UEAAX_N@Z 0000000180002ad0 f i auth_service_wrap_core.obj
 0001:00001ad0       ?OnAllowAttendeeVoteupQuestionStatus@ZMeetingQACtrlEvent@@UEAAX_N@Z 0000000180002ad0 f i auth_service_wrap_core.obj
 0001:00001ad0       ?OnDemandRegisterArenaDtor@MessageLite@protobuf@google@@UEAAXPEAVArena@23@@Z 0000000180002ad0 f i electron_sdk.pb.obj
 0001:00001ad0       ?OnDirectShareSpecifyContent@ZDirectShareHelperWrapEvent@@UEAAXPEAVIDirectShareSpecifyContentHandler@ZOOMSDK@@@Z 0000000180002ad0 f i auth_service_wrap_core.obj
 0001:00001ad0       ?OnEmojiFeedbackCanceled@ZMeetingEmojiReactionControllerEvent@@UEAAXI@Z 0000000180002ad0 f i auth_service_wrap_core.obj
 0001:00001ad0       ?OnEmojiFeedbackReceived@ZMeetingEmojiReactionControllerEvent@@UEAAXIW4tagSDKEmojiFeedbackType@ZOOMSDK@@@Z 0000000180002ad0 f i auth_service_wrap_core.obj
 0001:00001ad0       ?OnQAConnectStatus@ZMeetingQACtrlEvent@@UEAAXW4QAConnectStatus@ZOOMSDK@@@Z 0000000180002ad0 f i auth_service_wrap_core.obj
 0001:00001ad0       ?OnRefreshQAData@ZMeetingQACtrlEvent@@UEAAXXZ 0000000180002ad0 f i auth_service_wrap_core.obj
 0001:00001ad0       ?_Doraise@exception@stdext@@MEBAXXZ 0000000180002ad0 f i zoom_native_sdk_wrap_core.obj
 0001:00001ad0       ?onAICompanionActiveChangeNotice@ZMeetingServiceWrapEvent@@UEAAX_N@Z 0000000180002ad0 f i auth_service_wrap_core.obj
 0001:00001ad0       ?onAllHandsLowered@ZMeetingParticipantsCtrlEvent@@UEAAXXZ 0000000180002ad0 f i auth_service_wrap_core.obj
 0001:00001ad0       ?onAllowAskQuestionStatus@ZMeetingQACtrlEvent@@UEAAX_N@Z 0000000180002ad0 f i auth_service_wrap_core.obj
 0001:00001ad0       ?onAllowParticipantsRenameNotification@ZMeetingParticipantsCtrlEvent@@UEAAX_N@Z 0000000180002ad0 f i auth_service_wrap_core.obj
 0001:00001ad0       ?onAllowParticipantsShareWhiteBoardNotification@ZMeetingParticipantsCtrlEvent@@UEAAX_N@Z 0000000180002ad0 f i auth_service_wrap_core.obj
 0001:00001ad0       ?onAllowParticipantsStartVideoNotification@ZMeetingParticipantsCtrlEvent@@UEAAX_N@Z 0000000180002ad0 f i auth_service_wrap_core.obj
 0001:00001ad0       ?onAllowParticipantsUnmuteSelfNotification@ZMeetingParticipantsCtrlEvent@@UEAAX_N@Z 0000000180002ad0 f i auth_service_wrap_core.obj
 0001:00001ad0       ?onAssignedToSendCC@ZMeetingClosedCaptionControllerEvent@@UEAAX_N@Z 0000000180002ad0 f i auth_service_wrap_core.obj
 0001:00001ad0       ?onBreakoutRoomBtnClicked@ZMeetingUIControllerWrapEvent@@UEAAXXZ 0000000180002ad0 f i auth_service_wrap_core.obj
 0001:00001ad0       ?onCameraControlRequestReceived@ZMeetingVideoCtrlWrapEvent@@UEAAXIW4CameraControlRequestType@ZOOMSDK@@PEAVICameraControlRequestHandler@3@@Z 0000000180002ad0 f i auth_service_wrap_core.obj
 0001:00001ad0       ?onCameraControlRequestResult@ZMeetingVideoCtrlWrapEvent@@UEAAXIW4CameraControlRequestResult@ZOOMSDK@@@Z 0000000180002ad0 f i auth_service_wrap_core.obj
 0001:00001ad0       ?onCaptionStatusChanged@ZMeetingClosedCaptionControllerEvent@@UEAAX_N@Z 0000000180002ad0 f i auth_service_wrap_core.obj
 0001:00001ad0       ?onClosedCaptionMsgReceived@ZMeetingClosedCaptionControllerEvent@@UEAAXPEB_WI_J@Z 0000000180002ad0 f i auth_service_wrap_core.obj
 0001:00001ad0       ?onCoHostChangeNotification@ZMeetingParticipantsCtrlEvent@@UEAAXI_N@Z 0000000180002ad0 f i auth_service_wrap_core.obj
 0001:00001ad0       ?onConnect@ZoomNodePipeServerMgr@@UEAAXXZ 0000000180002ad0 f i zoom_node_rawdata_helper_mgr_class.obj
 0001:00001ad0       ?onCreateCompanionRelation@ZMeetingParticipantsCtrlEvent@@UEAAXII@Z 0000000180002ad0 f i auth_service_wrap_core.obj
 0001:00001ad0       ?onCustomizedLocalRecordingSourceNotification@ZMeetingRecordingCtrlWrapEvent@@UEAAXPEAVICustomizedLocalRecordingLayoutHelper@ZOOMSDK@@@Z 0000000180002ad0 f i auth_service_wrap_core.obj
 0001:00001ad0       ?onDisconnect@ZoomNodePipeServerMgr@@UEAAXXZ 0000000180002ad0 f i zoom_node_rawdata_helper_mgr_class.obj
 0001:00001ad0       ?onFocusModeShareTypeChanged@ZMeetingParticipantsCtrlEvent@@UEAAXW4FocusModeShareType@ZOOMSDK@@@Z 0000000180002ad0 f i auth_service_wrap_core.obj
 0001:00001ad0       ?onFocusModeStateChanged@ZMeetingParticipantsCtrlEvent@@UEAAX_N@Z 0000000180002ad0 f i auth_service_wrap_core.obj
 0001:00001ad0       ?onFollowHostVideoOrderChanged@ZMeetingVideoCtrlWrapEvent@@UEAAX_N@Z 0000000180002ad0 f i auth_service_wrap_core.obj
 0001:00001ad0       ?onGetRightAnswerListPrivilege@ZMeetingPollingCtrlEvent@@UEAAX_N@Z 0000000180002ad0 f i auth_service_wrap_core.obj
 0001:00001ad0       ?onGrantCoOwnerPrivilegeChanged@ZMeetingParticipantsCtrlEvent@@UEAAX_N@Z 0000000180002ad0 f i auth_service_wrap_core.obj
 0001:00001ad0       ?onHostRequestStartAudio@ZMeetingAudioCtrlWrapEvent@@UEAAXPEAVIRequestStartAudioHandler@ZOOMSDK@@@Z 0000000180002ad0 f i auth_service_wrap_core.obj
 0001:00001ad0       ?onHostRequestStartVideo@ZMeetingVideoCtrlWrapEvent@@UEAAXPEAVIRequestStartVideoHandler@ZOOMSDK@@@Z 0000000180002ad0 f i auth_service_wrap_core.obj
 0001:00001ad0       ?onHostVideoOrderUpdated@ZMeetingVideoCtrlWrapEvent@@UEAAXPEAV?$IList@I@ZOOMSDK@@@Z 0000000180002ad0 f i auth_service_wrap_core.obj
 0001:00001ad0       ?onIdle@ZoomNodePipeServerMgr@@UEAAXXZ 0000000180002ad0 f i zoom_node_rawdata_helper_mgr_class.obj
 0001:00001ad0       ?onInMeetingUserAvatarPathUpdated@ZMeetingParticipantsCtrlEvent@@UEAAXI@Z 0000000180002ad0 f i auth_service_wrap_core.obj
 0001:00001ad0       ?onInvalidReclaimHostkey@ZMeetingParticipantsCtrlEvent@@UEAAXXZ 0000000180002ad0 f i auth_service_wrap_core.obj
 0001:00001ad0       ?onJoin3rdPartyTelephonyAudio@ZMeetingAudioCtrlWrapEvent@@UEAAXPEB_W@Z 0000000180002ad0 f i auth_service_wrap_core.obj
 0001:00001ad0       ?onLiveTranscriptionMsgError@ZMeetingClosedCaptionControllerEvent@@UEAAXPEAVILiveTranscriptionLanguage@ZOOMSDK@@0@Z 0000000180002ad0 f i auth_service_wrap_core.obj
 0001:00001ad0       ?onLiveTranscriptionStatus@ZMeetingClosedCaptionControllerEvent@@UEAAXW4SDKLiveTranscriptionStatus@ZOOMSDK@@@Z 0000000180002ad0 f i auth_service_wrap_core.obj
 0001:00001ad0       ?onLocalRecordingPrivilegeRequestStatus@ZMeetingRecordingCtrlWrapEvent@@UEAAXW4RequestLocalRecordingStatus@ZOOMSDK@@@Z 0000000180002ad0 f i auth_service_wrap_core.obj
 0001:00001ad0       ?onLocalRecordingPrivilegeRequested@ZMeetingRecordingCtrlWrapEvent@@UEAAXPEAVIRequestLocalRecordingPrivilegeHandler@ZOOMSDK@@@Z 0000000180002ad0 f i auth_service_wrap_core.obj
 0001:00001ad0       ?onLocalRecordingStatusChanged@ZMeetingParticipantsCtrlEvent@@UEAAXIW4RecordingStatus@ZOOMSDK@@@Z 0000000180002ad0 f i auth_service_wrap_core.obj
 0001:00001ad0       ?onLocalVideoOrderUpdated@ZMeetingVideoCtrlWrapEvent@@UEAAXPEAV?$IList@I@ZOOMSDK@@@Z 0000000180002ad0 f i auth_service_wrap_core.obj
 0001:00001ad0       ?onLockShareStatus@ZMeetingShareCtrlWrapEvent@@UEAAX_N@Z 0000000180002ad0 f i auth_service_wrap_core.obj
 0001:00001ad0       ?onLowOrRaiseHandStatusChanged@ZMeetingParticipantsCtrlEvent@@UEAAX_NI@Z 0000000180002ad0 f i auth_service_wrap_core.obj
 0001:00001ad0       ?onManualCaptionStatusChanged@ZMeetingClosedCaptionControllerEvent@@UEAAX_N@Z 0000000180002ad0 f i auth_service_wrap_core.obj
 0001:00001ad0       ?onMeetingQAStatusChanged@ZMeetingQACtrlEvent@@UEAAX_N@Z 0000000180002ad0 f i auth_service_wrap_core.obj
 0001:00001ad0       ?onMultiShareSwitchToSingleShareNeedConfirm@ZMeetingShareCtrlWrapEvent@@UEAAXPEAVIShareSwitchMultiToSingleConfirmHandler@ZOOMSDK@@@Z 0000000180002ad0 f i auth_service_wrap_core.obj
 0001:00001ad0       ?onNotificationServiceStatus@ZAuthServiceWrapEvent@@UEAAXW4SDKNotificationServiceStatus@ZOOMSDK@@@Z 0000000180002ad0 f i auth_service_wrap_core.obj
 0001:00001ad0       ?onNotificationServiceStatus@ZAuthServiceWrapEvent@@UEAAXW4SDKNotificationServiceStatus@ZOOMSDK@@W4SDKNotificationServiceError@3@@Z 0000000180002ad0 f i auth_service_wrap_core.obj
 0001:00001ad0       ?onParingH323Result@ZMeetingH323CtrlWrapEvent@@UEAAXW4H323ParingResult@ZOOMSDK@@_K@Z 0000000180002ad0 f i auth_service_wrap_core.obj
 0001:00001ad0       ?onParticipantProfilePictureStatusChange@ZMeetingParticipantsCtrlEvent@@UEAAX_N@Z 0000000180002ad0 f i auth_service_wrap_core.obj
 0001:00001ad0       ?onPollingElapsedTime@ZMeetingPollingCtrlEvent@@UEAAXPEB_WI@Z 0000000180002ad0 f i auth_service_wrap_core.obj
 0001:00001ad0       ?onPollingInactive@ZMeetingPollingCtrlEvent@@UEAAXXZ 0000000180002ad0 f i auth_service_wrap_core.obj
 0001:00001ad0       ?onPollingQuestionImageDownloaded@ZMeetingPollingCtrlEvent@@UEAAXPEB_W0@Z 0000000180002ad0 f i auth_service_wrap_core.obj
 0001:00001ad0       ?onRemoveCompanionRelation@ZMeetingParticipantsCtrlEvent@@UEAAXI@Z 0000000180002ad0 f i auth_service_wrap_core.obj
 0001:00001ad0       ?onRequestForLiveTranscriptReceived@ZMeetingClosedCaptionControllerEvent@@UEAAXI_N@Z 0000000180002ad0 f i auth_service_wrap_core.obj
 0001:00001ad0       ?onRequestLiveTranscriptionStatusChange@ZMeetingClosedCaptionControllerEvent@@UEAAX_N@Z 0000000180002ad0 f i auth_service_wrap_core.obj
 0001:00001ad0       ?onRequestLocalRecordingPrivilegeChanged@ZMeetingParticipantsCtrlEvent@@UEAAXW4LocalRecordingRequestPrivilegeStatus@ZOOMSDK@@@Z 0000000180002ad0 f i auth_service_wrap_core.obj
 0001:00001ad0       ?onShareContentNotification@ZMeetingShareCtrlWrapEvent@@UEAAXUtagZoomSDKSharingSourceInfo@ZOOMSDK@@@Z 0000000180002ad0 f i auth_service_wrap_core.obj
 0001:00001ad0       ?onShareSettingTypeChangedNotification@ZMeetingShareCtrlWrapEvent@@UEAAXW4ShareSettingType@ZOOMSDK@@@Z 0000000180002ad0 f i auth_service_wrap_core.obj
 0001:00001ad0       ?onSharedVideoEnded@ZMeetingShareCtrlWrapEvent@@UEAAXXZ 0000000180002ad0 f i auth_service_wrap_core.obj
 0001:00001ad0       ?onSpokenLanguageChanged@ZMeetingClosedCaptionControllerEvent@@UEAAXPEAVILiveTranscriptionLanguage@ZOOMSDK@@@Z 0000000180002ad0 f i auth_service_wrap_core.obj
 0001:00001ad0       ?onSpotlightVideoChangeNotification@ZMeetingVideoCtrlWrapEvent@@UEAAX_NI@Z 0000000180002ad0 f i auth_service_wrap_core.obj
 0001:00001ad0       ?onSpotlightedUserListChangeNotification@ZMeetingVideoCtrlWrapEvent@@UEAAXPEAV?$IList@I@ZOOMSDK@@@Z 0000000180002ad0 f i auth_service_wrap_core.obj
 0001:00001ad0       ?onStartCaptionsRequestApproved@ZMeetingClosedCaptionControllerEvent@@UEAAXXZ 0000000180002ad0 f i auth_service_wrap_core.obj
 0001:00001ad0       ?onStartCaptionsRequestReceived@ZMeetingClosedCaptionControllerEvent@@UEAAXPEAVICCRequestHandler@ZOOMSDK@@@Z 0000000180002ad0 f i auth_service_wrap_core.obj
 0001:00001ad0       ?onSuspendParticipantsActivities@ZMeetingServiceWrapEvent@@UEAAXXZ 0000000180002ad0 f i auth_service_wrap_core.obj
 0001:00001ad0       ?onUserConfirmRecoverMeeting@ZMeetingConfigCtrlWrapFreeMeetingEvent@@UEAAXPEAVIMeetingConfirmRecoverHandler@ZOOMSDK@@@Z 0000000180002ad0 f i auth_service_wrap_core.obj
 0001:00001ad0       ?onUserNamesChanged@ZMeetingParticipantsCtrlEvent@@UEAAXPEAV?$IList@I@ZOOMSDK@@@Z 0000000180002ad0 f i auth_service_wrap_core.obj
 0001:00001ad0       ?onUserVideoQualityChanged@ZMeetingVideoCtrlWrapEvent@@UEAAXW4VideoConnectionQuality@ZOOMSDK@@I@Z 0000000180002ad0 f i auth_service_wrap_core.obj
 0001:00001ad0       ?onVideoAlphaChannelStatusChanged@ZMeetingVideoCtrlWrapEvent@@UEAAX_N@Z 0000000180002ad0 f i auth_service_wrap_core.obj
 0001:00001ad0       ?onVideoFileSharePlayError@ZMeetingShareCtrlWrapEvent@@UEAAXW4ZoomSDKVideoFileSharePlayError@ZOOMSDK@@@Z 0000000180002ad0 f i auth_service_wrap_core.obj
 0001:00001ad0       ?onVirtualNameTagRosterInfoUpdated@ZMeetingParticipantsCtrlEvent@@UEAAXI@Z 0000000180002ad0 f i auth_service_wrap_core.obj
 0001:00001ad0       ?onVirtualNameTagStatusChanged@ZMeetingParticipantsCtrlEvent@@UEAAX_NI@Z 0000000180002ad0 f i auth_service_wrap_core.obj
 0001:00001ad0       _guard_check_icall_nop     0000000180002ad0 f i MSVCRT:guard_support.obj
 0001:00001ae0       ??_Ebad_array_new_length@stdext@@UEAAPEAXI@Z 0000000180002ae0 f i * CIL library *:* CIL module *
 0001:00001ae0       ??_Eexception@stdext@@UEAAPEAXI@Z 0000000180002ae0 f i * CIL library *:* CIL module *
 0001:00001ae0       ??_Gbad_array_new_length@stdext@@UEAAPEAXI@Z 0000000180002ae0 f i zoom_native_sdk_wrap_core.obj
 0001:00001ae0       ??_Gexception@stdext@@UEAAPEAXI@Z 0000000180002ae0 f i zoom_native_sdk_wrap_core.obj
 0001:00001b10       ?_Doraise@bad_alloc@stdext@@MEBAXXZ 0000000180002b10 f i zoom_native_sdk_wrap_core.obj
 0001:00001b30       ??0bad_array_new_length@stdext@@QEAA@XZ 0000000180002b30 f i zoom_native_sdk_wrap_core.obj
 0001:00001b50       ?_Throw_bad_array_new_length@std@@YAXXZ 0000000180002b50 f i zoom_native_sdk_wrap_core.obj
 0001:00001b70       ?_Xlen_string@std@@YAXXZ   0000000180002b70 f i zoom_native_sdk_wrap_core.obj
 0001:00001b90       ?_Throw_tree_length_error@std@@YAXXZ 0000000180002b90 f i zoom_native_sdk_wrap_core.obj
 0001:00001bb0       ?GetInst@ZoomNodeRawDataHelperMgr@@SAAEAV1@XZ 0000000180002bb0 f i zoom_native_sdk_wrap_core.obj
 0001:00001c20       ??_EIMeetingServiceEvent@ZOOMSDK@@UEAAPEAXI@Z 0000000180002c20 f i * CIL library *:* CIL module *
 0001:00001c20       ??_EIMeetingShareCtrlEvent@ZOOMSDK@@UEAAPEAXI@Z 0000000180002c20 f i * CIL library *:* CIL module *
 0001:00001c20       ??_GIMeetingServiceEvent@ZOOMSDK@@UEAAPEAXI@Z 0000000180002c20 f i zoom_native_sdk_wrap_core.obj
 0001:00001c20       ??_GIMeetingShareCtrlEvent@ZOOMSDK@@UEAAPEAXI@Z 0000000180002c20 f i zoom_native_sdk_wrap_core.obj
 0001:00001c50       ??_EIAuthServiceEvent@ZOOMSDK@@UEAAPEAXI@Z 0000000180002c50 f i * CIL library *:* CIL module *
 0001:00001c50       ??_EIMeetingConfigurationFreeMeetingEvent@ZOOMSDK@@UEAAPEAXI@Z 0000000180002c50 f i * CIL library *:* CIL module *
 0001:00001c50       ??_EIVirtualBGSettingContextEvent@ZOOMSDK@@UEAAPEAXI@Z 0000000180002c50 f i * CIL library *:* CIL module *
 0001:00001c50       ??_GIAuthServiceEvent@ZOOMSDK@@UEAAPEAXI@Z 0000000180002c50 f i zoom_native_sdk_wrap_core.obj
 0001:00001c50       ??_GIMeetingConfigurationFreeMeetingEvent@ZOOMSDK@@UEAAPEAXI@Z 0000000180002c50 f i zoom_native_sdk_wrap_core.obj
 0001:00001c50       ??_GIVirtualBGSettingContextEvent@ZOOMSDK@@UEAAPEAXI@Z 0000000180002c50 f i zoom_native_sdk_wrap_core.obj
 0001:00001c80       ??_EIAudioSettingContextEvent@ZOOMSDK@@UEAAPEAXI@Z 0000000180002c80 f i * CIL library *:* CIL module *
 0001:00001c80       ??_EIEmojiReactionControllerEvent@ZOOMSDK@@UEAAPEAXI@Z 0000000180002c80 f i * CIL library *:* CIL module *
 0001:00001c80       ??_EITestAudioDeviceHelperEvent@ZOOMSDK@@UEAAPEAXI@Z 0000000180002c80 f i * CIL library *:* CIL module *
 0001:00001c80       ??_GIAudioSettingContextEvent@ZOOMSDK@@UEAAPEAXI@Z 0000000180002c80 f i zoom_native_sdk_wrap_core.obj
 0001:00001c80       ??_GIEmojiReactionControllerEvent@ZOOMSDK@@UEAAPEAXI@Z 0000000180002c80 f i zoom_native_sdk_wrap_core.obj
 0001:00001c80       ??_GITestAudioDeviceHelperEvent@ZOOMSDK@@UEAAPEAXI@Z 0000000180002c80 f i zoom_native_sdk_wrap_core.obj
 0001:00001cb0       ??_EITestVideoDeviceHelperEvent@ZOOMSDK@@UEAAPEAXI@Z 0000000180002cb0 f i * CIL library *:* CIL module *
 0001:00001cb0       ??_GITestVideoDeviceHelperEvent@ZOOMSDK@@UEAAPEAXI@Z 0000000180002cb0 f i zoom_native_sdk_wrap_core.obj
 0001:00001ce0       ??_EIDirectShareServiceHelperEvent@ZOOMSDK@@UEAAPEAXI@Z 0000000180002ce0 f i * CIL library *:* CIL module *
 0001:00001ce0       ??_EIMeetingDocsCtrlEvent@ZOOMSDK@@UEAAPEAXI@Z 0000000180002ce0 f i * CIL library *:* CIL module *
 0001:00001ce0       ??_EIMeetingH323HelperEvent@ZOOMSDK@@UEAAPEAXI@Z 0000000180002ce0 f i * CIL library *:* CIL module *
 0001:00001ce0       ??_EIMeetingIndicatorCtrlEvent@ZOOMSDK@@UEAAPEAXI@Z 0000000180002ce0 f i * CIL library *:* CIL module *
 0001:00001ce0       ??_EIMeetingPhoneHelperEvent@ZOOMSDK@@UEAAPEAXI@Z 0000000180002ce0 f i * CIL library *:* CIL module *
 0001:00001ce0       ??_EIMeetingReminderEvent@ZOOMSDK@@UEAAPEAXI@Z 0000000180002ce0 f i * CIL library *:* CIL module *
 0001:00001ce0       ??_EIMeetingWhiteboardCtrlEvent@ZOOMSDK@@UEAAPEAXI@Z 0000000180002ce0 f i * CIL library *:* CIL module *
 0001:00001ce0       ??_EIVideoSettingContextEvent@ZOOMSDK@@UEAAPEAXI@Z 0000000180002ce0 f i * CIL library *:* CIL module *
 0001:00001ce0       ??_GIDirectShareServiceHelperEvent@ZOOMSDK@@UEAAPEAXI@Z 0000000180002ce0 f i zoom_native_sdk_wrap_core.obj
 0001:00001ce0       ??_GIMeetingDocsCtrlEvent@ZOOMSDK@@UEAAPEAXI@Z 0000000180002ce0 f i zoom_native_sdk_wrap_core.obj
 0001:00001ce0       ??_GIMeetingH323HelperEvent@ZOOMSDK@@UEAAPEAXI@Z 0000000180002ce0 f i zoom_native_sdk_wrap_core.obj
 0001:00001ce0       ??_GIMeetingIndicatorCtrlEvent@ZOOMSDK@@UEAAPEAXI@Z 0000000180002ce0 f i zoom_native_sdk_wrap_core.obj
 0001:00001ce0       ??_GIMeetingPhoneHelperEvent@ZOOMSDK@@UEAAPEAXI@Z 0000000180002ce0 f i zoom_native_sdk_wrap_core.obj
 0001:00001ce0       ??_GIMeetingReminderEvent@ZOOMSDK@@UEAAPEAXI@Z 0000000180002ce0 f i zoom_native_sdk_wrap_core.obj
 0001:00001ce0       ??_GIMeetingWhiteboardCtrlEvent@ZOOMSDK@@UEAAPEAXI@Z 0000000180002ce0 f i zoom_native_sdk_wrap_core.obj
 0001:00001ce0       ??_GIVideoSettingContextEvent@ZOOMSDK@@UEAAPEAXI@Z 0000000180002ce0 f i zoom_native_sdk_wrap_core.obj
 0001:00001d10       ??_EIRecordingSettingContextEvent@ZOOMSDK@@UEAAPEAXI@Z 0000000180002d10 f i * CIL library *:* CIL module *
 0001:00001d10       ??_GIRecordingSettingContextEvent@ZOOMSDK@@UEAAPEAXI@Z 0000000180002d10 f i zoom_native_sdk_wrap_core.obj
 0001:00001d40       ??_EIMeetingAnnotationSupportEvent@ZOOMSDK@@UEAAPEAXI@Z 0000000180002d40 f i * CIL library *:* CIL module *
 0001:00001d40       ??_GIMeetingAnnotationSupportEvent@ZOOMSDK@@UEAAPEAXI@Z 0000000180002d40 f i zoom_native_sdk_wrap_core.obj
 0001:00001d70       ??_EIH323Device@ZOOMSDK@@UEAAPEAXI@Z 0000000180002d70 f i * CIL library *:* CIL module *
 0001:00001d70       ??_EIMeetingAudioCtrlEvent@ZOOMSDK@@UEAAPEAXI@Z 0000000180002d70 f i * CIL library *:* CIL module *
 0001:00001d70       ??_GIH323Device@ZOOMSDK@@UEAAPEAXI@Z 0000000180002d70 f i meeting_h323_wrap_core.obj
 0001:00001d70       ??_GIMeetingAudioCtrlEvent@ZOOMSDK@@UEAAPEAXI@Z 0000000180002d70 f i zoom_native_sdk_wrap_core.obj
 0001:00001da0       ??_EIMeetingChatCtrlEvent@ZOOMSDK@@UEAAPEAXI@Z 0000000180002da0 f i * CIL library *:* CIL module *
 0001:00001da0       ??_EIMeetingInterpretationControllerEvent@ZOOMSDK@@UEAAPEAXI@Z 0000000180002da0 f i * CIL library *:* CIL module *
 0001:00001da0       ??_EIMeetingPollingCtrlEvent@ZOOMSDK@@UEAAPEAXI@Z 0000000180002da0 f i * CIL library *:* CIL module *
 0001:00001da0       ??_GIMeetingChatCtrlEvent@ZOOMSDK@@UEAAPEAXI@Z 0000000180002da0 f i zoom_native_sdk_wrap_core.obj
 0001:00001da0       ??_GIMeetingInterpretationControllerEvent@ZOOMSDK@@UEAAPEAXI@Z 0000000180002da0 f i zoom_native_sdk_wrap_core.obj
 0001:00001da0       ??_GIMeetingPollingCtrlEvent@ZOOMSDK@@UEAAPEAXI@Z 0000000180002da0 f i zoom_native_sdk_wrap_core.obj
 0001:00001dd0       ??_EIClosedCaptionControllerEvent@ZOOMSDK@@UEAAPEAXI@Z 0000000180002dd0 f i * CIL library *:* CIL module *
 0001:00001dd0       ??_EIMeetingAICompanionQueryHelperEvent@ZOOMSDK@@UEAAPEAXI@Z 0000000180002dd0 f i * CIL library *:* CIL module *
 0001:00001dd0       ??_EIMeetingRecordingCtrlEvent@ZOOMSDK@@UEAAPEAXI@Z 0000000180002dd0 f i * CIL library *:* CIL module *
 0001:00001dd0       ??_EIMeetingWebinarCtrlEvent@ZOOMSDK@@UEAAPEAXI@Z 0000000180002dd0 f i * CIL library *:* CIL module *
 0001:00001dd0       ??_GIClosedCaptionControllerEvent@ZOOMSDK@@UEAAPEAXI@Z 0000000180002dd0 f i zoom_native_sdk_wrap_core.obj
 0001:00001dd0       ??_GIMeetingAICompanionQueryHelperEvent@ZOOMSDK@@UEAAPEAXI@Z 0000000180002dd0 f i zoom_native_sdk_wrap_core.obj
 0001:00001dd0       ??_GIMeetingRecordingCtrlEvent@ZOOMSDK@@UEAAPEAXI@Z 0000000180002dd0 f i zoom_native_sdk_wrap_core.obj
 0001:00001dd0       ??_GIMeetingWebinarCtrlEvent@ZOOMSDK@@UEAAPEAXI@Z 0000000180002dd0 f i zoom_native_sdk_wrap_core.obj
 0001:00001e00       ??_EIMeetingParticipantsCtrlEvent@ZOOMSDK@@UEAAPEAXI@Z 0000000180002e00 f i * CIL library *:* CIL module *
 0001:00001e00       ??_GIMeetingParticipantsCtrlEvent@ZOOMSDK@@UEAAPEAXI@Z 0000000180002e00 f i zoom_native_sdk_wrap_core.obj
 0001:00001e30       ??_EIMeetingUIControllerEvent@ZOOMSDK@@UEAAPEAXI@Z 0000000180002e30 f i * CIL library *:* CIL module *
 0001:00001e30       ??_GIMeetingUIControllerEvent@ZOOMSDK@@UEAAPEAXI@Z 0000000180002e30 f i zoom_native_sdk_wrap_core.obj
 0001:00001e60       ??_EIMeetingVideoCtrlEvent@ZOOMSDK@@UEAAPEAXI@Z 0000000180002e60 f i * CIL library *:* CIL module *
 0001:00001e60       ??_GIMeetingVideoCtrlEvent@ZOOMSDK@@UEAAPEAXI@Z 0000000180002e60 f i zoom_native_sdk_wrap_core.obj
 0001:00001e90       ??_EIMeetingWaitingRoomEvent@ZOOMSDK@@UEAAPEAXI@Z 0000000180002e90 f i * CIL library *:* CIL module *
 0001:00001e90       ??_GIMeetingWaitingRoomEvent@ZOOMSDK@@UEAAPEAXI@Z 0000000180002e90 f i zoom_native_sdk_wrap_core.obj
 0001:00001ec0       ??_EIMeetingAICompanionSmartSummaryHelperEvent@ZOOMSDK@@UEAAPEAXI@Z 0000000180002ec0 f i * CIL library *:* CIL module *
 0001:00001ec0       ??_GIMeetingAICompanionSmartSummaryHelperEvent@ZOOMSDK@@UEAAPEAXI@Z 0000000180002ec0 f i zoom_native_sdk_wrap_core.obj
 0001:00001ef0       ??_EIMeetingAICompanionCtrlEvent@ZOOMSDK@@UEAAPEAXI@Z 0000000180002ef0 f i * CIL library *:* CIL module *
 0001:00001ef0       ??_GIMeetingAICompanionCtrlEvent@ZOOMSDK@@UEAAPEAXI@Z 0000000180002ef0 f i zoom_native_sdk_wrap_core.obj
 0001:00001f20       ??_EIMeetingQAControllerEvent@ZOOMSDK@@UEAAPEAXI@Z 0000000180002f20 f i * CIL library *:* CIL module *
 0001:00001f20       ??_GIMeetingQAControllerEvent@ZOOMSDK@@UEAAPEAXI@Z 0000000180002f20 f i zoom_native_sdk_wrap_core.obj
 0001:00001f50       ??_EIZoomRealNameAuthMeetingEvent@@UEAAPEAXI@Z 0000000180002f50 f i * CIL library *:* CIL module *
 0001:00001f50       ??_EIZoomSDKRendererDelegate@ZOOMSDK@@UEAAPEAXI@Z 0000000180002f50 f i * CIL library *:* CIL module *
 0001:00001f50       ??_GIZoomRealNameAuthMeetingEvent@@UEAAPEAXI@Z 0000000180002f50 f i zoom_native_sdk_wrap_core.obj
 0001:00001f50       ??_GIZoomSDKRendererDelegate@ZOOMSDK@@UEAAPEAXI@Z 0000000180002f50 f i zoom_native_sdk_wrap_core.obj
 0001:00001f80       ?myOutputDebugString@@YAXPEBDZZ 0000000180002f80 f i zoom_native_sdk_wrap_core.obj
 0001:00002020       ?myOutputDebugStringW@@YAXPEB_WZZ 0000000180003020 f i zoom_native_sdk_wrap_core.obj
 0001:000020d0       ?SetAudioDeviceEvent@IAudioSettingContextWrap@ZOOMSDK@@UEAA?AW4SDKError@2@PEAVIAudioSettingContextEvent@2@@Z 00000001800030d0 f i zoom_native_sdk_wrap_core.obj
 0001:000020d0       ?SetEvent@IAnnotationControllerWrap@ZOOMSDK@@UEAA?AW4SDKError@2@PEAVIMeetingAnnotationSupportEvent@2@@Z 00000001800030d0 f i zoom_native_sdk_wrap_core.obj
 0001:000020d0       ?SetEvent@IAuthServiceWrap@ZOOMSDK@@UEAA?AW4SDKError@2@PEAVIAuthServiceEvent@2@@Z 00000001800030d0 f i zoom_native_sdk_wrap_core.obj
 0001:000020d0       ?SetEvent@ICameraControllerWrap@ZOOMSDK@@UEAA?AW4SDKError@2@PEAVICameraControllerEvent@2@@Z 00000001800030d0 f i zoom_native_sdk_wrap_core.obj
 0001:000020d0       ?SetEvent@IClosedCaptionControllerWrap@ZOOMSDK@@UEAA?AW4SDKError@2@PEAVIClosedCaptionControllerEvent@2@@Z 00000001800030d0 f i zoom_native_sdk_wrap_core.obj
 0001:000020d0       ?SetEvent@IDirectShareServiceHelperWrap@ZOOMSDK@@UEAA?AW4SDKError@2@PEAVIDirectShareServiceHelperEvent@2@@Z 00000001800030d0 f i zoom_native_sdk_wrap_core.obj
 0001:000020d0       ?SetEvent@IEmojiReactionControllerWrap@ZOOMSDK@@UEAA?AW4SDKError@2@PEAVIEmojiReactionControllerEvent@2@@Z 00000001800030d0 f i zoom_native_sdk_wrap_core.obj
 0001:000020d0       ?SetEvent@IMeetingAICompanionControllerWrap@ZOOMSDK@@UEAA?AW4SDKError@2@PEAVIMeetingAICompanionCtrlEvent@2@@Z 00000001800030d0 f i zoom_native_sdk_wrap_core.obj
 0001:000020d0       ?SetEvent@IMeetingAICompanionQueryHelperWrap@ZOOMSDK@@UEAA?AW4SDKError@2@PEAVIMeetingAICompanionQueryHelperEvent@2@@Z 00000001800030d0 f i zoom_native_sdk_wrap_core.obj
 0001:000020d0       ?SetEvent@IMeetingAICompanionSmartSummaryHelperWrap@ZOOMSDK@@UEAA?AW4SDKError@2@PEAVIMeetingAICompanionSmartSummaryHelperEvent@2@@Z 00000001800030d0 f i zoom_native_sdk_wrap_core.obj
 0001:000020d0       ?SetEvent@IMeetingAudioControllerWrap@ZOOMSDK@@UEAA?AW4SDKError@2@PEAVIMeetingAudioCtrlEvent@2@@Z 00000001800030d0 f i zoom_native_sdk_wrap_core.obj
 0001:000020d0       ?SetEvent@IMeetingChatControllerWrap@ZOOMSDK@@UEAA?AW4SDKError@2@PEAVIMeetingChatCtrlEvent@2@@Z 00000001800030d0 f i zoom_native_sdk_wrap_core.obj
 0001:000020d0       ?SetEvent@IMeetingDocsControllerWrap@ZOOMSDK@@UEAA?AW4SDKError@2@PEAVIMeetingDocsCtrlEvent@2@@Z 00000001800030d0 f i zoom_native_sdk_wrap_core.obj
 0001:000020d0       ?SetEvent@IMeetingIndicatorControllerWrap@ZOOMSDK@@UEAA?AW4SDKError@2@PEAVIMeetingIndicatorCtrlEvent@2@@Z 00000001800030d0 f i zoom_native_sdk_wrap_core.obj
 0001:000020d0       ?SetEvent@IMeetingInterpretationControllerWrap@ZOOMSDK@@UEAA?AW4SDKError@2@PEAVIMeetingInterpretationControllerEvent@2@@Z 00000001800030d0 f i zoom_native_sdk_wrap_core.obj
 0001:000020d0       ?SetEvent@IMeetingLiveStreamControllerWrap@ZOOMSDK@@UEAA?AW4SDKError@2@PEAVIMeetingLiveStreamCtrlEvent@2@@Z 00000001800030d0 f i zoom_native_sdk_wrap_core.obj
 0001:000020d0       ?SetEvent@IMeetingParticipantsControllerWrap@ZOOMSDK@@UEAA?AW4SDKError@2@PEAVIMeetingParticipantsCtrlEvent@2@@Z 00000001800030d0 f i zoom_native_sdk_wrap_core.obj
 0001:000020d0       ?SetEvent@IMeetingPhoneHelperWrap@ZOOMSDK@@UEAA?AW4SDKError@2@PEAVIMeetingPhoneHelperEvent@2@@Z 00000001800030d0 f i zoom_native_sdk_wrap_core.obj
 0001:000020d0       ?SetEvent@IMeetingPollingControllerWrap@ZOOMSDK@@UEAA?AW4SDKError@2@PEAVIMeetingPollingCtrlEvent@2@@Z 00000001800030d0 f i zoom_native_sdk_wrap_core.obj
 0001:000020d0       ?SetEvent@IMeetingQAControllerWrap@ZOOMSDK@@UEAA?AW4SDKError@2@PEAVIMeetingQAControllerEvent@2@@Z 00000001800030d0 f i zoom_native_sdk_wrap_core.obj
 0001:000020d0       ?SetEvent@IMeetingRecordingControllerWrap@ZOOMSDK@@UEAA?AW4SDKError@2@PEAVIMeetingRecordingCtrlEvent@2@@Z 00000001800030d0 f i zoom_native_sdk_wrap_core.obj
 0001:000020d0       ?SetEvent@IMeetingReminderControllerWrap@ZOOMSDK@@UEAA?AW4SDKError@2@PEAVIMeetingReminderEvent@2@@Z 00000001800030d0 f i zoom_native_sdk_wrap_core.obj
 0001:000020d0       ?SetEvent@IMeetingRemoteControllerWrap@ZOOMSDK@@UEAA?AW4SDKError@2@PEAVIMeetingRemoteCtrlEvent@2@@Z 00000001800030d0 f i zoom_native_sdk_wrap_core.obj
 0001:000020d0       ?SetEvent@IMeetingServiceWrap@ZOOMSDK@@UEAA?AW4SDKError@2@PEAVIMeetingServiceEvent@2@@Z 00000001800030d0 f i zoom_native_sdk_wrap_core.obj
 0001:000020d0       ?SetEvent@IMeetingShareControllerWrap@ZOOMSDK@@UEAA?AW4SDKError@2@PEAVIMeetingShareCtrlEvent@2@@Z 00000001800030d0 f i zoom_native_sdk_wrap_core.obj
 0001:000020d0       ?SetEvent@IMeetingUIControllerWrap@ZOOMSDK@@UEAA?AW4SDKError@2@PEAVIMeetingUIControllerEvent@2@@Z 00000001800030d0 f i zoom_native_sdk_wrap_core.obj
 0001:000020d0       ?SetEvent@IMeetingVideoControllerWrap@ZOOMSDK@@UEAA?AW4SDKError@2@PEAVIMeetingVideoCtrlEvent@2@@Z 00000001800030d0 f i zoom_native_sdk_wrap_core.obj
 0001:000020d0       ?SetEvent@IMeetingWaitingRoomControllerWrap@ZOOMSDK@@UEAA?AW4SDKError@2@PEAVIMeetingWaitingRoomEvent@2@@Z 00000001800030d0 f i zoom_native_sdk_wrap_core.obj
 0001:000020d0       ?SetEvent@IMeetingWebinarControllerWrap@ZOOMSDK@@UEAA?AW4SDKError@2@PEAVIMeetingWebinarCtrlEvent@2@@Z 00000001800030d0 f i zoom_native_sdk_wrap_core.obj
 0001:000020d0       ?SetEvent@IMeetingWhiteboardControllerWrap@ZOOMSDK@@UEAA?AW4SDKError@2@PEAVIMeetingWhiteboardCtrlEvent@2@@Z 00000001800030d0 f i zoom_native_sdk_wrap_core.obj
 0001:000020d0       ?SetEvent@IWallpaperSettingContextWrap@ZOOMSDK@@UEAA?AW4SDKError@2@PEAVIWallpaperSettingContextEvent@2@@Z 00000001800030d0 f i zoom_native_sdk_wrap_core.obj
 0001:000020d0       ?SetRecordingSettingEvent@IRecordingSettingContextWrap@ZOOMSDK@@UEAA?AW4SDKError@2@PEAVIRecordingSettingContextEvent@2@@Z 00000001800030d0 f i zoom_native_sdk_wrap_core.obj
 0001:000020d0       ?SetVideoDeviceEvent@IVideoSettingContextWrap@ZOOMSDK@@UEAA?AW4SDKError@2@PEAVIVideoSettingContextEvent@2@@Z 00000001800030d0 f i zoom_native_sdk_wrap_core.obj
 0001:000020d0       ?SetVirtualBGEvent@IVirtualBGSettingContextWrap@ZOOMSDK@@UEAA?AW4SDKError@2@PEAVIVirtualBGSettingContextEvent@2@@Z 00000001800030d0 f i zoom_native_sdk_wrap_core.obj
 0001:000020e0       ?OnDirectShareStatusUpdate@IDirectShareServiceHelperWrap@ZOOMSDK@@UEAAXW4DirectShareStatusStatus_Enum@2@PEAVIDirectShareViaMeetingIDOrPairingCodeHandler@2@@Z 00000001800030e0 f i zoom_native_sdk_wrap_core.obj
 0001:00002140       ?OnDirectShareSpecifyContent@IDirectShareServiceHelperWrap@ZOOMSDK@@UEAAXPEAVIDirectShareSpecifyContentHandler@2@@Z 0000000180003140 f i zoom_native_sdk_wrap_core.obj
 0001:00002140       ?onChatStatusChangedNotification@IMeetingChatControllerWrap@ZOOMSDK@@UEAAXPEAUtagChatStatus@2@@Z 0000000180003140 f i zoom_native_sdk_wrap_core.obj
 0001:00002140       ?onComputerSpeakerDeviceChanged@IAudioSettingContextWrap@ZOOMSDK@@UEAAXPEAV?$IList@PEAVISpeakerInfo@ZOOMSDK@@@2@@Z 0000000180003140 f i zoom_native_sdk_wrap_core.obj
 0001:00002140       ?onIndicatorItemRemoved@IMeetingIndicatorControllerWrap@ZOOMSDK@@UEAAXPEAVIMeetingIndicatorHandler@2@@Z 0000000180003140 f i zoom_native_sdk_wrap_core.obj
 0001:00002140       ?onPollingResultUpdated@IMeetingPollingControllerWrap@ZOOMSDK@@UEAAXPEB_W@Z 0000000180003140 f i zoom_native_sdk_wrap_core.obj
 0001:00002140       ?onQueryStateSupportedButDisabled@IMeetingAICompanionQueryHelperWrap@ZOOMSDK@@UEAAXPEAVIMeetingEnableQueryHandler@2@@Z 0000000180003140 f i zoom_native_sdk_wrap_core.obj
 0001:00002190       ??_EIDirectShareServiceHelperWrap@ZOOMSDK@@UEAAPEAXI@Z 0000000180003190 f i * CIL library *:* CIL module *
 0001:00002190       ??_EIMeetingDocsControllerWrap@ZOOMSDK@@UEAAPEAXI@Z 0000000180003190 f i * CIL library *:* CIL module *
 0001:00002190       ??_EIMeetingH323HelperWrap@ZOOMSDK@@UEAAPEAXI@Z 0000000180003190 f i * CIL library *:* CIL module *
 0001:00002190       ??_EIMeetingIndicatorControllerWrap@ZOOMSDK@@UEAAPEAXI@Z 0000000180003190 f i * CIL library *:* CIL module *
 0001:00002190       ??_EIMeetingPhoneHelperWrap@ZOOMSDK@@UEAAPEAXI@Z 0000000180003190 f i * CIL library *:* CIL module *
 0001:00002190       ??_EIMeetingReminderControllerWrap@ZOOMSDK@@UEAAPEAXI@Z 0000000180003190 f i * CIL library *:* CIL module *
 0001:00002190       ??_EIMeetingWhiteboardControllerWrap@ZOOMSDK@@UEAAPEAXI@Z 0000000180003190 f i * CIL library *:* CIL module *
 0001:00002190       ??_GIDirectShareServiceHelperWrap@ZOOMSDK@@UEAAPEAXI@Z 0000000180003190 f i zoom_native_sdk_wrap_core.obj
 0001:00002190       ??_GIMeetingDocsControllerWrap@ZOOMSDK@@UEAAPEAXI@Z 0000000180003190 f i zoom_native_sdk_wrap_core.obj
 0001:00002190       ??_GIMeetingH323HelperWrap@ZOOMSDK@@UEAAPEAXI@Z 0000000180003190 f i zoom_native_sdk_wrap_core.obj
 0001:00002190       ??_GIMeetingIndicatorControllerWrap@ZOOMSDK@@UEAAPEAXI@Z 0000000180003190 f i zoom_native_sdk_wrap_core.obj
 0001:00002190       ??_GIMeetingPhoneHelperWrap@ZOOMSDK@@UEAAPEAXI@Z 0000000180003190 f i zoom_native_sdk_wrap_core.obj
 0001:00002190       ??_GIMeetingReminderControllerWrap@ZOOMSDK@@UEAAPEAXI@Z 0000000180003190 f i zoom_native_sdk_wrap_core.obj
 0001:00002190       ??_GIMeetingWhiteboardControllerWrap@ZOOMSDK@@UEAAPEAXI@Z 0000000180003190 f i zoom_native_sdk_wrap_core.obj
 0001:000021d0       ??1IDirectShareServiceHelperWrap@ZOOMSDK@@UEAA@XZ 00000001800031d0 f i zoom_native_sdk_wrap_core.obj
 0001:000021d0       ??1IMeetingDocsControllerWrap@ZOOMSDK@@UEAA@XZ 00000001800031d0 f i zoom_native_sdk_wrap_core.obj
 0001:000021d0       ??1IMeetingH323HelperWrap@ZOOMSDK@@UEAA@XZ 00000001800031d0 f i zoom_native_sdk_wrap_core.obj
 0001:000021d0       ??1IMeetingIndicatorControllerWrap@ZOOMSDK@@UEAA@XZ 00000001800031d0 f i zoom_native_sdk_wrap_core.obj
 0001:000021d0       ??1IMeetingPhoneHelperWrap@ZOOMSDK@@UEAA@XZ 00000001800031d0 f i zoom_native_sdk_wrap_core.obj
 0001:000021d0       ??1IMeetingReminderControllerWrap@ZOOMSDK@@UEAA@XZ 00000001800031d0 f i zoom_native_sdk_wrap_core.obj
 0001:000021d0       ??1IMeetingWhiteboardControllerWrap@ZOOMSDK@@UEAA@XZ 00000001800031d0 f i zoom_native_sdk_wrap_core.obj
 0001:00002240       ?onAuthenticationReturn@IAuthServiceWrap@ZOOMSDK@@UEAAXW4AuthResult@2@@Z 0000000180003240 f i zoom_native_sdk_wrap_core.obj
 0001:00002290       ?onLogout@IAuthServiceWrap@ZOOMSDK@@UEAAXXZ 0000000180003290 f i zoom_native_sdk_wrap_core.obj
 0001:000022d0       ?onZoomIdentityExpired@IAuthServiceWrap@ZOOMSDK@@UEAAXXZ 00000001800032d0 f i zoom_native_sdk_wrap_core.obj
 0001:00002310       ?onZoomAuthIdentityExpired@IAuthServiceWrap@ZOOMSDK@@UEAAXXZ 0000000180003310 f i zoom_native_sdk_wrap_core.obj
 0001:00002350       ?onLoginReturnWithReason@IAuthServiceWrap@ZOOMSDK@@UEAAXW4LOGINSTATUS@2@PEAVIAccountInfo@2@W4LoginFailReason@2@@Z 0000000180003350 f i zoom_native_sdk_wrap_core.obj
 0001:000023d0       ?onNotificationServiceStatus@IAuthServiceWrap@ZOOMSDK@@UEAAXW4SDKNotificationServiceStatus@2@W4SDKNotificationServiceError@2@@Z 00000001800033d0 f i zoom_native_sdk_wrap_core.obj
 0001:00002430       ??_EIAuthServiceWrap@ZOOMSDK@@UEAAPEAXI@Z 0000000180003430 f i * CIL library *:* CIL module *
 0001:00002430       ??_GIAuthServiceWrap@ZOOMSDK@@UEAAPEAXI@Z 0000000180003430 f i zoom_native_sdk_wrap_core.obj
 0001:00002470       ??1IAuthServiceWrap@ZOOMSDK@@UEAA@XZ 0000000180003470 f i zoom_native_sdk_wrap_core.obj
 0001:00002570       ?SetEvent@IMeetingConfigurationWrap@ZOOMSDK@@UEAAXPEAVIMeetingConfigurationEvent@2@@Z 0000000180003570 f i zoom_native_sdk_wrap_core.obj
 0001:00002570       ?SetEvent@IMeetingH323HelperWrap@ZOOMSDK@@UEAAXPEAVIMeetingH323HelperEvent@2@@Z 0000000180003570 f i zoom_native_sdk_wrap_core.obj
 0001:00002570       ?SetEvent@ITestAudioDeviceHelperWrap@ZOOMSDK@@UEAAXPEAVITestAudioDeviceHelperEvent@2@@Z 0000000180003570 f i zoom_native_sdk_wrap_core.obj
 0001:00002570       ?SetEvent@ITestVideoDeviceHelperWrap@ZOOMSDK@@UEAAXPEAVITestVideoDeviceHelperEvent@2@@Z 0000000180003570 f i zoom_native_sdk_wrap_core.obj
 0001:00002580       ?onInputMeetingPasswordAndScreenNameNotification@IMeetingConfigurationWrap@ZOOMSDK@@UEAAXPEAVIMeetingPasswordAndScreenNameHandler@2@@Z 0000000180003580 f i zoom_native_sdk_wrap_core.obj
 0001:000025d0       ?onWebinarNeedRegisterNotification@IMeetingConfigurationWrap@ZOOMSDK@@UEAAXPEAVIWebinarNeedRegisterHandler@2@@Z 00000001800035d0 f i zoom_native_sdk_wrap_core.obj
 0001:00002620       ?onEndOtherMeetingToJoinMeetingNotification@IMeetingConfigurationWrap@ZOOMSDK@@UEAAXPEAVIEndOtherMeetingToJoinMeetingHandler@2@@Z 0000000180003620 f i zoom_native_sdk_wrap_core.obj
 0001:00002670       ?onFreeMeetingRemainTime@IMeetingConfigurationWrap@ZOOMSDK@@UEAAXI@Z 0000000180003670 f i zoom_native_sdk_wrap_core.obj
 0001:00002670       ?onRecordingStatus@IMeetingRecordingControllerWrap@ZOOMSDK@@UEAAXW4RecordingStatus@2@@Z 0000000180003670 f i zoom_native_sdk_wrap_core.obj
 0001:000026c0       ?onFreeMeetingRemainTimeStopCountDown@IMeetingConfigurationWrap@ZOOMSDK@@UEAAXXZ 00000001800036c0 f i zoom_native_sdk_wrap_core.obj
 0001:00002700       ?onFreeMeetingNeedToUpgrade@IMeetingConfigurationWrap@ZOOMSDK@@UEAAXW4FreeMeetingNeedUpgradeType@IMeetingConfigurationFreeMeetingEvent@2@PEB_W@Z 0000000180003700 f i zoom_native_sdk_wrap_core.obj
 0001:00002760       ?onFreeMeetingUpgradeToGiftFreeTrialStart@IMeetingConfigurationWrap@ZOOMSDK@@UEAAXXZ 0000000180003760 f i zoom_native_sdk_wrap_core.obj
 0001:000027a0       ?onFreeMeetingUpgradeToGiftFreeTrialStop@IMeetingConfigurationWrap@ZOOMSDK@@UEAAXXZ 00000001800037a0 f i zoom_native_sdk_wrap_core.obj
 0001:000027e0       ?onFreeMeetingUpgradeToProMeeting@IMeetingConfigurationWrap@ZOOMSDK@@UEAAXXZ 00000001800037e0 f i zoom_native_sdk_wrap_core.obj
 0001:00002820       ?onQueryEnableActionCallback@IMeetingAICompanionQueryHelperWrap@ZOOMSDK@@UEAAXPEAVIMeetingEnableQueryActionHandler@2@@Z 0000000180003820 f i zoom_native_sdk_wrap_core.obj
 0001:00002820       ?onStartCaptionsRequestReceived@IClosedCaptionControllerWrap@ZOOMSDK@@UEAAXPEAVICCRequestHandler@2@@Z 0000000180003820 f i zoom_native_sdk_wrap_core.obj
 0001:00002820       ?onWebinarNeedInputScreenName@IMeetingConfigurationWrap@ZOOMSDK@@UEAAXPEAVIWebinarInputScreenNameHandler@2@@Z 0000000180003820 f i zoom_native_sdk_wrap_core.obj
 0001:00002870       ?onJoinMeetingNeedUserInfo@IMeetingConfigurationWrap@ZOOMSDK@@UEAAXPEAVIMeetingInputUserInfoHandler@2@@Z 0000000180003870 f i zoom_native_sdk_wrap_core.obj
 0001:000028c0       ?OnDeleteQuestion@IMeetingQAControllerWrap@ZOOMSDK@@UEAAXPEAV?$IList@PEB_W@2@@Z 00000001800038c0 f i zoom_native_sdk_wrap_core.obj
 0001:000028c0       ?onEnableAndStartSmartRecordingRequested@IMeetingRecordingControllerWrap@ZOOMSDK@@UEAAXPEAVIRequestEnableAndStartSmartRecordingHandler@2@@Z 00000001800038c0 f i zoom_native_sdk_wrap_core.obj
 0001:000028c0       ?onUserConfirmToStartArchive@IMeetingConfigurationWrap@ZOOMSDK@@UEAAXPEAVIMeetingArchiveConfirmHandler@2@@Z 00000001800038c0 f i zoom_native_sdk_wrap_core.obj
 0001:00002910       ?OnDeleteAnswer@IMeetingQAControllerWrap@ZOOMSDK@@UEAAXPEAV?$IList@PEB_W@2@@Z 0000000180003910 f i zoom_native_sdk_wrap_core.obj
 0001:00002910       ?onReceiveRequestToSendQuery@IMeetingAICompanionQueryHelperWrap@ZOOMSDK@@UEAAXPEAVIMeetingApproveSendQueryHandler@2@@Z 0000000180003910 f i zoom_native_sdk_wrap_core.obj
 0001:00002910       ?onSmartRecordingEnableActionCallback@IMeetingRecordingControllerWrap@ZOOMSDK@@UEAAXPEAVISmartRecordingEnableActionHandler@2@@Z 0000000180003910 f i zoom_native_sdk_wrap_core.obj
 0001:00002910       ?onSpokenLanguageChanged@IClosedCaptionControllerWrap@ZOOMSDK@@UEAAXPEAVILiveTranscriptionLanguage@2@@Z 0000000180003910 f i zoom_native_sdk_wrap_core.obj
 0001:00002910       ?onUserConfirmRecoverMeeting@IMeetingConfigurationWrap@ZOOMSDK@@UEAAXPEAVIMeetingConfirmRecoverHandler@2@@Z 0000000180003910 f i zoom_native_sdk_wrap_core.obj
 0001:00002960       ??_EIMeetingConfigurationWrap@ZOOMSDK@@UEAAPEAXI@Z 0000000180003960 f i * CIL library *:* CIL module *
 0001:00002960       ??_GIMeetingConfigurationWrap@ZOOMSDK@@UEAAPEAXI@Z 0000000180003960 f i zoom_native_sdk_wrap_core.obj
 0001:000029a0       ??1IMeetingConfigurationWrap@ZOOMSDK@@UEAA@XZ 00000001800039a0 f i zoom_native_sdk_wrap_core.obj
 0001:00002b70       ?onInviteBtnClicked@IMeetingUIControllerWrap@ZOOMSDK@@UEAAXAEA_N@Z 0000000180003b70 f i zoom_native_sdk_wrap_core.obj
 0001:00002bb0       ?OnInterpretationStop@IMeetingInterpretationControllerWrap@ZOOMSDK@@UEAAXXZ 0000000180003bb0 f i zoom_native_sdk_wrap_core.obj
 0001:00002bb0       ?OnSelectedVideoDeviceIsChanged@ITestVideoDeviceHelperWrap@ZOOMSDK@@UEAAXXZ 0000000180003bb0 f i zoom_native_sdk_wrap_core.obj
 0001:00002bb0       ?onStartShareBtnClicked@IMeetingUIControllerWrap@ZOOMSDK@@UEAAXXZ 0000000180003bb0 f i zoom_native_sdk_wrap_core.obj
 0001:00002bf0       ?OnInterpreterListChanged@IMeetingInterpretationControllerWrap@ZOOMSDK@@UEAAXXZ 0000000180003bf0 f i zoom_native_sdk_wrap_core.obj
 0001:00002bf0       ?OnNoWindowToShowPreview@ITestVideoDeviceHelperWrap@ZOOMSDK@@UEAAXXZ 0000000180003bf0 f i zoom_native_sdk_wrap_core.obj
 0001:00002bf0       ?onAllowPanelistStartVideoNotification@IMeetingWebinarControllerWrap@ZOOMSDK@@UEAAXXZ 0000000180003bf0 f i zoom_native_sdk_wrap_core.obj
 0001:00002bf0       ?onEndMeetingBtnClicked@IMeetingUIControllerWrap@ZOOMSDK@@UEAAXXZ 0000000180003bf0 f i zoom_native_sdk_wrap_core.obj
 0001:00002bf0       ?onPollingListUpdated@IMeetingPollingControllerWrap@ZOOMSDK@@UEAAXXZ 0000000180003bf0 f i zoom_native_sdk_wrap_core.obj
 0001:00002bf0       ?onSelectedVBImageChanged@IVirtualBGSettingContextWrap@ZOOMSDK@@UEAAXXZ 0000000180003bf0 f i zoom_native_sdk_wrap_core.obj
 0001:00002c30       ?OnSelectedAudioDeviceIsChanged@ITestAudioDeviceHelperWrap@ZOOMSDK@@UEAAXXZ 0000000180003c30 f i zoom_native_sdk_wrap_core.obj
 0001:00002c30       ?onDisallowPanelistStartVideoNotification@IMeetingWebinarControllerWrap@ZOOMSDK@@UEAAXXZ 0000000180003c30 f i zoom_native_sdk_wrap_core.obj
 0001:00002c30       ?onParticipantListBtnClicked@IMeetingUIControllerWrap@ZOOMSDK@@UEAAXXZ 0000000180003c30 f i zoom_native_sdk_wrap_core.obj
 0001:00002c70       ?onCustomLiveStreamMenuClicked@IMeetingUIControllerWrap@ZOOMSDK@@UEAAXXZ 0000000180003c70 f i zoom_native_sdk_wrap_core.obj
 0001:00002c70       ?onSelfAllowTalkNotification@IMeetingWebinarControllerWrap@ZOOMSDK@@UEAAXXZ 0000000180003c70 f i zoom_native_sdk_wrap_core.obj
 0001:00002cb0       ?onSelfDisallowTalkNotification@IMeetingWebinarControllerWrap@ZOOMSDK@@UEAAXXZ 0000000180003cb0 f i zoom_native_sdk_wrap_core.obj
 0001:00002cb0       ?onZoomInviteDialogFailed@IMeetingUIControllerWrap@ZOOMSDK@@UEAAXXZ 0000000180003cb0 f i zoom_native_sdk_wrap_core.obj
 0001:00002cf0       ?onAllowAttendeeChatNotification@IMeetingWebinarControllerWrap@ZOOMSDK@@UEAAXXZ 0000000180003cf0 f i zoom_native_sdk_wrap_core.obj
 0001:00002cf0       ?onCCBTNClicked@IMeetingUIControllerWrap@ZOOMSDK@@UEAAXXZ 0000000180003cf0 f i zoom_native_sdk_wrap_core.obj
 0001:00002d30       ?onAudioBtnClicked@IMeetingUIControllerWrap@ZOOMSDK@@UEAAXUtagAudioBtnClickedCallbackInfo@2@@Z 0000000180003d30 f i zoom_native_sdk_wrap_core.obj
 0001:00002d80       ?onAudioMenuBtnClicked@IMeetingUIControllerWrap@ZOOMSDK@@UEAAXXZ 0000000180003d80 f i zoom_native_sdk_wrap_core.obj
 0001:00002dc0       ?onBreakoutRoomBtnClicked@IMeetingUIControllerWrap@ZOOMSDK@@UEAAXXZ 0000000180003dc0 f i zoom_native_sdk_wrap_core.obj
 0001:00002e00       ??_EIMeetingUIControllerWrap@ZOOMSDK@@UEAAPEAXI@Z 0000000180003e00 f i * CIL library *:* CIL module *
 0001:00002e00       ??_GIMeetingUIControllerWrap@ZOOMSDK@@UEAAPEAXI@Z 0000000180003e00 f i zoom_native_sdk_wrap_core.obj
 0001:00002e40       ??1IMeetingUIControllerWrap@ZOOMSDK@@UEAA@XZ 0000000180003e40 f i zoom_native_sdk_wrap_core.obj
 0001:00002fb0       ?onCustomizedAnnotationObjDestroyed@ICustomizedAnnotationControllerWrap@ZOOMSDK@@UEAAXPEAVICustomizedAnnotationObj@2@@Z 0000000180003fb0 f i zoom_native_sdk_wrap_core.obj
 0001:00002fb0       ?onMeetingWallpaperChanged@IWallpaperSettingContextWrap@ZOOMSDK@@UEAAXPEAVIWallpaperItem@2@@Z 0000000180003fb0 f i zoom_native_sdk_wrap_core.obj
 0001:00003000       ?onSharingShareAnnotationStatusChanged@ICustomizedAnnotationControllerWrap@ZOOMSDK@@UEAAXPEAVICustomizedShareRender@2@W4CustomizedShareAnnotationStatus@2@@Z 0000000180004000 f i zoom_native_sdk_wrap_core.obj
 0001:00003070       ?onSupportAnnotationStatus@IAnnotationControllerWrap@ZOOMSDK@@UEAAXI_N@Z 0000000180004070 f i zoom_native_sdk_wrap_core.obj
 0001:000030e0       ??_EIAnnotationControllerWrap@ZOOMSDK@@UEAAPEAXI@Z 00000001800040e0 f i * CIL library *:* CIL module *
 0001:000030e0       ??_GIAnnotationControllerWrap@ZOOMSDK@@UEAAPEAXI@Z 00000001800040e0 f i zoom_native_sdk_wrap_core.obj
 0001:00003160       ?onRemoteControlStatus@IMeetingRemoteControllerWrap@ZOOMSDK@@UEAAXW4RemoteControlStatus@2@II@Z 0000000180004160 f i zoom_native_sdk_wrap_core.obj
 0001:000031e0       ?onUserRemoteControlForbidden@IMeetingRemoteControllerWrap@ZOOMSDK@@UEAAXI@Z 00000001800041e0 f i zoom_native_sdk_wrap_core.obj
 0001:00003230       ?OnQAConnectStatus@IMeetingQAControllerWrap@ZOOMSDK@@UEAAXW4QAConnectStatus@2@@Z 0000000180004230 f i zoom_native_sdk_wrap_core.obj
 0001:00003230       ?onCalloutStatusNotify@IMeetingH323HelperWrap@ZOOMSDK@@UEAAXW4H323CalloutStatus@2@@Z 0000000180004230 f i zoom_native_sdk_wrap_core.obj
 0001:00003230       ?onPromptAttendee2PanelistResult@IMeetingWebinarControllerWrap@ZOOMSDK@@UEAAXH@Z 0000000180004230 f i zoom_native_sdk_wrap_core.obj
 0001:00003230       ?onWaitingRoomUserJoin@IMeetingWaitingRoomControllerWrap@ZOOMSDK@@UEAAXI@Z 0000000180004230 f i zoom_native_sdk_wrap_core.obj
 0001:00003230       ?onWhiteboardStatusChanged@IMeetingWhiteboardControllerWrap@ZOOMSDK@@UEAAXW4SDKWhiteboardStatus@2@@Z 0000000180004230 f i zoom_native_sdk_wrap_core.obj
 0001:00003280       ?onParingH323Result@IMeetingH323HelperWrap@ZOOMSDK@@UEAAXW4H323ParingResult@2@_K@Z 0000000180004280 f i zoom_native_sdk_wrap_core.obj
 0001:000032e0       ?OnEmojiReactionReceived@IEmojiReactionControllerWrap@ZOOMSDK@@UEAAXIW4tagSDKEmojiReactionType@2@@Z 00000001800042e0 f i zoom_native_sdk_wrap_core.obj
 0001:000032e0       ?OnMicSpkVolumeChanged@ITestAudioDeviceHelperWrap@ZOOMSDK@@UEAAXII@Z 00000001800042e0 f i zoom_native_sdk_wrap_core.obj
 0001:000032e0       ?onInviteCallOutUserStatus@IMeetingPhoneHelperWrap@ZOOMSDK@@UEAAXW4PhoneStatus@2@W4PhoneFailedReason@2@@Z 00000001800042e0 f i zoom_native_sdk_wrap_core.obj
 0001:00003340       ?onCallMeStatus@IMeetingPhoneHelperWrap@ZOOMSDK@@UEAAXW4PhoneStatus@2@W4PhoneFailedReason@2@@Z 0000000180004340 f i zoom_native_sdk_wrap_core.obj
 0001:00003340       ?onDocsPermissionChanged@IMeetingDocsControllerWrap@ZOOMSDK@@UEAAXW4SDKDocsCreateOption@2@W4SDKDocsShareOption@2@@Z 0000000180004340 f i zoom_native_sdk_wrap_core.obj
 0001:000033a0       ?onLiveStreamStatusChange@IMeetingLiveStreamControllerWrap@ZOOMSDK@@UEAAXW4LiveStreamStatus@2@@Z 00000001800043a0 f i zoom_native_sdk_wrap_core.obj
 0001:000033f0       ?onRawLiveStreamPrivilegeChanged@IMeetingLiveStreamControllerWrap@ZOOMSDK@@UEAAX_N@Z 00000001800043f0 f i zoom_native_sdk_wrap_core.obj
 0001:00003440       ?onRawLiveStreamPrivilegeRequestTimeout@IMeetingLiveStreamControllerWrap@ZOOMSDK@@UEAAXXZ 0000000180004440 f i zoom_native_sdk_wrap_core.obj
 0001:00003480       ?onUserRawLiveStreamPrivilegeChanged@IMeetingLiveStreamControllerWrap@ZOOMSDK@@UEAAXI_N@Z 0000000180004480 f i zoom_native_sdk_wrap_core.obj
 0001:000034f0       ?onRawLiveStreamPrivilegeRequested@IMeetingLiveStreamControllerWrap@ZOOMSDK@@UEAAXPEAVIRequestRawLiveStreamPrivilegeHandler@2@@Z 00000001800044f0 f i zoom_native_sdk_wrap_core.obj
 0001:00003540       ?onSmartSummaryEnableRequestReceived@IMeetingAICompanionSmartSummaryHelperWrap@ZOOMSDK@@UEAAXPEAVIMeetingApproveEnableSmartSummaryHandler@2@@Z 0000000180004540 f i zoom_native_sdk_wrap_core.obj
 0001:00003540       ?onUserRawLiveStreamingStatusChanged@IMeetingLiveStreamControllerWrap@ZOOMSDK@@UEAAXPEAV?$IList@URawLiveStreamInfo@ZOOMSDK@@@2@@Z 0000000180004540 f i zoom_native_sdk_wrap_core.obj
 0001:00003590       ?onLiveStreamReminderStatusChanged@IMeetingLiveStreamControllerWrap@ZOOMSDK@@UEAAX_N@Z 0000000180004590 f i zoom_native_sdk_wrap_core.obj
 0001:000035e0       ?onLiveStreamReminderStatusChangeFailed@IMeetingLiveStreamControllerWrap@ZOOMSDK@@UEAAXXZ 00000001800045e0 f i zoom_native_sdk_wrap_core.obj
 0001:00003620       ?onUserThresholdReachedForLiveStream@IMeetingLiveStreamControllerWrap@ZOOMSDK@@UEAAXH@Z 0000000180004620 f i zoom_native_sdk_wrap_core.obj
 0001:00003670       ?onAssignedToSendCC@IClosedCaptionControllerWrap@ZOOMSDK@@UEAAX_N@Z 0000000180004670 f i zoom_native_sdk_wrap_core.obj
 0001:000036c0       ?onClosedCaptionMsgReceived@IClosedCaptionControllerWrap@ZOOMSDK@@UEAAXPEB_WI_J@Z 00000001800046c0 f i zoom_native_sdk_wrap_core.obj
 0001:00003740       ?onHostChangeNotification@IMeetingParticipantsControllerWrap@ZOOMSDK@@UEAAXI@Z 0000000180004740 f i zoom_native_sdk_wrap_core.obj
 0001:00003740       ?onLiveTranscriptionStatus@IClosedCaptionControllerWrap@ZOOMSDK@@UEAAXW4SDKLiveTranscriptionStatus@2@@Z 0000000180004740 f i zoom_native_sdk_wrap_core.obj
 0001:00003790       ?onRequestForLiveTranscriptReceived@IClosedCaptionControllerWrap@ZOOMSDK@@UEAAXI_N@Z 0000000180004790 f i zoom_native_sdk_wrap_core.obj
 0001:00003800       ?onRequestLiveTranscriptionStatusChange@IClosedCaptionControllerWrap@ZOOMSDK@@UEAAX_N@Z 0000000180004800 f i zoom_native_sdk_wrap_core.obj
 0001:00003850       ?onLiveTranscriptionMsgError@IClosedCaptionControllerWrap@ZOOMSDK@@UEAAXPEAVILiveTranscriptionLanguage@2@0@Z 0000000180004850 f i zoom_native_sdk_wrap_core.obj
 0001:000038c0       ?onCaptionStatusChanged@IClosedCaptionControllerWrap@ZOOMSDK@@UEAAX_N@Z 00000001800048c0 f i zoom_native_sdk_wrap_core.obj
 0001:00003910       ?onLiveTranscriptionMsgInfoReceived@IClosedCaptionControllerWrap@ZOOMSDK@@UEAAXPEAVILiveTranscriptionMessageInfo@2@@Z 0000000180004910 f i zoom_native_sdk_wrap_core.obj
 0001:00003910       ?onUserNamesChanged@IMeetingParticipantsControllerWrap@ZOOMSDK@@UEAAXPEAV?$IList@I@2@@Z 0000000180004910 f i zoom_native_sdk_wrap_core.obj
 0001:00003960       ?onOriginalLanguageMsgReceived@IClosedCaptionControllerWrap@ZOOMSDK@@UEAAXPEAVILiveTranscriptionMessageInfo@2@@Z 0000000180004960 f i zoom_native_sdk_wrap_core.obj
 0001:000039b0       ?onStartCaptionsRequestApproved@IClosedCaptionControllerWrap@ZOOMSDK@@UEAAXXZ 00000001800049b0 f i zoom_native_sdk_wrap_core.obj
 0001:000039f0       ?onAllowParticipantsStartVideoNotification@IMeetingParticipantsControllerWrap@ZOOMSDK@@UEAAX_N@Z 00000001800049f0 f i zoom_native_sdk_wrap_core.obj
 0001:000039f0       ?onFailedToRequestSendQuery@IMeetingAICompanionQueryHelperWrap@ZOOMSDK@@UEAAX_N@Z 00000001800049f0 f i zoom_native_sdk_wrap_core.obj
 0001:000039f0       ?onManualCaptionStatusChanged@IClosedCaptionControllerWrap@ZOOMSDK@@UEAAX_N@Z 00000001800049f0 f i zoom_native_sdk_wrap_core.obj
 0001:00003a40       ??_EIClosedCaptionControllerWrap@ZOOMSDK@@UEAAPEAXI@Z 0000000180004a40 f i * CIL library *:* CIL module *
 0001:00003a40       ??_EIMeetingAICompanionQueryHelperWrap@ZOOMSDK@@UEAAPEAXI@Z 0000000180004a40 f i * CIL library *:* CIL module *
 0001:00003a40       ??_EIMeetingRecordingControllerWrap@ZOOMSDK@@UEAAPEAXI@Z 0000000180004a40 f i * CIL library *:* CIL module *
 0001:00003a40       ??_EIMeetingWebinarControllerWrap@ZOOMSDK@@UEAAPEAXI@Z 0000000180004a40 f i * CIL library *:* CIL module *
 0001:00003a40       ??_GIClosedCaptionControllerWrap@ZOOMSDK@@UEAAPEAXI@Z 0000000180004a40 f i zoom_native_sdk_wrap_core.obj
 0001:00003a40       ??_GIMeetingAICompanionQueryHelperWrap@ZOOMSDK@@UEAAPEAXI@Z 0000000180004a40 f i zoom_native_sdk_wrap_core.obj
 0001:00003a40       ??_GIMeetingRecordingControllerWrap@ZOOMSDK@@UEAAPEAXI@Z 0000000180004a40 f i zoom_native_sdk_wrap_core.obj
 0001:00003a40       ??_GIMeetingWebinarControllerWrap@ZOOMSDK@@UEAAPEAXI@Z 0000000180004a40 f i zoom_native_sdk_wrap_core.obj
 0001:00003a80       ??1IClosedCaptionControllerWrap@ZOOMSDK@@UEAA@XZ 0000000180004a80 f i zoom_native_sdk_wrap_core.obj
 0001:00003a80       ??1IMeetingAICompanionQueryHelperWrap@ZOOMSDK@@UEAA@XZ 0000000180004a80 f i zoom_native_sdk_wrap_core.obj
 0001:00003a80       ??1IMeetingRecordingControllerWrap@ZOOMSDK@@UEAA@XZ 0000000180004a80 f i zoom_native_sdk_wrap_core.obj
 0001:00003a80       ??1IMeetingWebinarControllerWrap@ZOOMSDK@@UEAA@XZ 0000000180004a80 f i zoom_native_sdk_wrap_core.obj
 0001:00003c50       ?onNeedRealNameAuthMeetingNotification@IZoomRealNameAuthMeetingHelperWrap@ZOOMSDK@@UEAAXPEAV?$IVector@PEAVIZoomRealNameAuthCountryInfo@@@@PEBDPEAVIZoomRetrieveSMSVerificationCodeHandler@@@Z 0000000180004c50 f i zoom_native_sdk_wrap_core.obj
 0001:00003cd0       ?onMeetingWallpaperImageDownloadStatus@IWallpaperSettingContextWrap@ZOOMSDK@@UEAAXW4ZoomSDKWallpaperSettingStatus@2@PEB_W@Z 0000000180004cd0 f i zoom_native_sdk_wrap_core.obj
 0001:00003cd0       ?onRetrieveSMSVerificationCodeResultNotification@IZoomRealNameAuthMeetingHelperWrap@ZOOMSDK@@UEAAXW4SMSVerificationCodeErr@@PEAVIZoomVerifySMSVerificationCodeHandler@@@Z 0000000180004cd0 f i zoom_native_sdk_wrap_core.obj
 0001:00003d30       ?onVerifySMSVerificationCodeResultNotification@IZoomRealNameAuthMeetingHelperWrap@ZOOMSDK@@UEAAXW4SMSVerificationCodeErr@@@Z 0000000180004d30 f i zoom_native_sdk_wrap_core.obj
 0001:00003d80       ??_EIZoomRealNameAuthMeetingHelperWrap@ZOOMSDK@@UEAAPEAXI@Z 0000000180004d80 f i * CIL library *:* CIL module *
 0001:00003d80       ??_GIZoomRealNameAuthMeetingHelperWrap@ZOOMSDK@@UEAAPEAXI@Z 0000000180004d80 f i zoom_native_sdk_wrap_core.obj
 0001:00003dc0       ??1IZoomRealNameAuthMeetingHelperWrap@ZOOMSDK@@UEAA@XZ 0000000180004dc0 f i zoom_native_sdk_wrap_core.obj
 0001:00003e50       ?OnInterpretationStart@IMeetingInterpretationControllerWrap@ZOOMSDK@@UEAAXXZ 0000000180004e50 f i zoom_native_sdk_wrap_core.obj
 0001:00003e50       ?OnNoVideoDeviceIsUseful@ITestVideoDeviceHelperWrap@ZOOMSDK@@UEAAXXZ 0000000180004e50 f i zoom_native_sdk_wrap_core.obj
 0001:00003e50       ?onQueryStateNotSupported@IMeetingAICompanionQueryHelperWrap@ZOOMSDK@@UEAAXXZ 0000000180004e50 f i zoom_native_sdk_wrap_core.obj
 0001:00003e50       ?onVBImageDidDownloaded@IVirtualBGSettingContextWrap@ZOOMSDK@@UEAAXXZ 0000000180004e50 f i zoom_native_sdk_wrap_core.obj
 0001:00003e90       ?OnInterpreterRoleChanged@IMeetingInterpretationControllerWrap@ZOOMSDK@@UEAAXI_N@Z 0000000180004e90 f i zoom_native_sdk_wrap_core.obj
 0001:00003f00       ?OnInterpreterActiveLanguageChanged@IMeetingInterpretationControllerWrap@ZOOMSDK@@UEAAXIH@Z 0000000180004f00 f i zoom_native_sdk_wrap_core.obj
 0001:00003f60       ?OnInterpreterLanguageChanged@IMeetingInterpretationControllerWrap@ZOOMSDK@@UEAAXHH@Z 0000000180004f60 f i zoom_native_sdk_wrap_core.obj
 0001:00003fc0       ?OnAvailableLanguageListUpdated@IMeetingInterpretationControllerWrap@ZOOMSDK@@UEAAXPEAV?$IList@PEAVIInterpretationLanguage@ZOOMSDK@@@2@@Z 0000000180004fc0 f i zoom_native_sdk_wrap_core.obj
 0001:00003fc0       ?OnReceiveAnswer@IMeetingQAControllerWrap@ZOOMSDK@@UEAAXPEB_W@Z 0000000180004fc0 f i zoom_native_sdk_wrap_core.obj
 0001:00003fc0       ?onReceiveRequestToEnableQuery@IMeetingAICompanionQueryHelperWrap@ZOOMSDK@@UEAAXPEAVIMeetingApproveEnableQueryHandler@2@@Z 0000000180004fc0 f i zoom_native_sdk_wrap_core.obj
 0001:00004010       ?OnInterpreterLanguagesUpdated@IMeetingInterpretationControllerWrap@ZOOMSDK@@UEAAXPEAV?$IList@PEAVIInterpretationLanguage@ZOOMSDK@@@2@@Z 0000000180005010 f i zoom_native_sdk_wrap_core.obj
 0001:00004010       ?OnUserLivingReply@IMeetingQAControllerWrap@ZOOMSDK@@UEAAXPEB_W@Z 0000000180005010 f i zoom_native_sdk_wrap_core.obj
 0001:00004010       ?onReceiveRequestToStartQuery@IMeetingAICompanionQueryHelperWrap@ZOOMSDK@@UEAAXPEAVIMeetingApproveStartQueryHandler@2@@Z 0000000180005010 f i zoom_native_sdk_wrap_core.obj
 0001:00004060       ??_EIMeetingChatControllerWrap@ZOOMSDK@@UEAAPEAXI@Z 0000000180005060 f i * CIL library *:* CIL module *
 0001:00004060       ??_EIMeetingInterpretationControllerWrap@ZOOMSDK@@UEAAPEAXI@Z 0000000180005060 f i * CIL library *:* CIL module *
 0001:00004060       ??_EIMeetingPollingControllerWrap@ZOOMSDK@@UEAAPEAXI@Z 0000000180005060 f i * CIL library *:* CIL module *
 0001:00004060       ??_GIMeetingChatControllerWrap@ZOOMSDK@@UEAAPEAXI@Z 0000000180005060 f i zoom_native_sdk_wrap_core.obj
 0001:00004060       ??_GIMeetingInterpretationControllerWrap@ZOOMSDK@@UEAAPEAXI@Z 0000000180005060 f i zoom_native_sdk_wrap_core.obj
 0001:00004060       ??_GIMeetingPollingControllerWrap@ZOOMSDK@@UEAAPEAXI@Z 0000000180005060 f i zoom_native_sdk_wrap_core.obj
 0001:000040a0       ??1IMeetingChatControllerWrap@ZOOMSDK@@UEAA@XZ 00000001800050a0 f i zoom_native_sdk_wrap_core.obj
 0001:000040a0       ??1IMeetingInterpretationControllerWrap@ZOOMSDK@@UEAA@XZ 00000001800050a0 f i zoom_native_sdk_wrap_core.obj
 0001:000040a0       ??1IMeetingPollingControllerWrap@ZOOMSDK@@UEAA@XZ 00000001800050a0 f i zoom_native_sdk_wrap_core.obj
 0001:000041d0       ?OnEmojiReactionReceivedInWebinar@IEmojiReactionControllerWrap@ZOOMSDK@@UEAAXW4tagSDKEmojiReactionType@2@@Z 00000001800051d0 f i zoom_native_sdk_wrap_core.obj
 0001:000041d0       ?onDepromptPanelist2AttendeeResult@IMeetingWebinarControllerWrap@ZOOMSDK@@UEAAXH@Z 00000001800051d0 f i zoom_native_sdk_wrap_core.obj
 0001:000041d0       ?onGreenVBDidUpdateWithReplaceColor@IVirtualBGSettingContextWrap@ZOOMSDK@@UEAAXK@Z 00000001800051d0 f i zoom_native_sdk_wrap_core.obj
 0001:000041d0       ?onWaitingRoomUserLeft@IMeetingWaitingRoomControllerWrap@ZOOMSDK@@UEAAXI@Z 00000001800051d0 f i zoom_native_sdk_wrap_core.obj
 0001:00004220       ?OnEmojiFeedbackReceived@IEmojiReactionControllerWrap@ZOOMSDK@@UEAAXIW4tagSDKEmojiFeedbackType@2@@Z 0000000180005220 f i zoom_native_sdk_wrap_core.obj
 0001:00004280       ?OnEmojiFeedbackCanceled@IEmojiReactionControllerWrap@ZOOMSDK@@UEAAXI@Z 0000000180005280 f i zoom_native_sdk_wrap_core.obj
 0001:000042d0       ??_EIEmojiReactionControllerWrap@ZOOMSDK@@UEAAPEAXI@Z 00000001800052d0 f i * CIL library *:* CIL module *
 0001:000042d0       ??_EITestAudioDeviceHelperWrap@ZOOMSDK@@UEAAPEAXI@Z 00000001800052d0 f i * CIL library *:* CIL module *
 0001:000042d0       ??_GIEmojiReactionControllerWrap@ZOOMSDK@@UEAAPEAXI@Z 00000001800052d0 f i zoom_native_sdk_wrap_core.obj
 0001:000042d0       ??_GITestAudioDeviceHelperWrap@ZOOMSDK@@UEAAPEAXI@Z 00000001800052d0 f i zoom_native_sdk_wrap_core.obj
 0001:00004310       ??1IEmojiReactionControllerWrap@ZOOMSDK@@UEAA@XZ 0000000180005310 f i zoom_native_sdk_wrap_core.obj
 0001:00004310       ??1ITestAudioDeviceHelperWrap@ZOOMSDK@@UEAA@XZ 0000000180005310 f i zoom_native_sdk_wrap_core.obj
 0001:000043c0       ?OnAddQuestion@IMeetingQAControllerWrap@ZOOMSDK@@UEAAXPEB_W_N@Z 00000001800053c0 f i zoom_native_sdk_wrap_core.obj
 0001:00004430       ?OnAddAnswer@IMeetingQAControllerWrap@ZOOMSDK@@UEAAXPEB_W_N@Z 0000000180005430 f i zoom_native_sdk_wrap_core.obj
 0001:000044a0       ?OnQuestionMarkedAsDismissed@IMeetingQAControllerWrap@ZOOMSDK@@UEAAXPEB_W@Z 00000001800054a0 f i zoom_native_sdk_wrap_core.obj
 0001:000044a0       ?OnVideoThumbReady@IVirtualBGSettingContextWrap@ZOOMSDK@@UEAAXPEB_W@Z 00000001800054a0 f i zoom_native_sdk_wrap_core.obj
 0001:000044a0       ?onQueryStateStarted@IMeetingAICompanionQueryHelperWrap@ZOOMSDK@@UEAAXPEAVIMeetingSendQueryHandler@2@@Z 00000001800054a0 f i zoom_native_sdk_wrap_core.obj
 0001:000044f0       ?OnReopenQuestion@IMeetingQAControllerWrap@ZOOMSDK@@UEAAXPEB_W@Z 00000001800054f0 f i zoom_native_sdk_wrap_core.obj
 0001:00004540       ?OnReceiveQuestion@IMeetingQAControllerWrap@ZOOMSDK@@UEAAXPEB_W@Z 0000000180005540 f i zoom_native_sdk_wrap_core.obj
 0001:00004590       ?OnUserEndLiving@IMeetingQAControllerWrap@ZOOMSDK@@UEAAXPEB_W@Z 0000000180005590 f i zoom_native_sdk_wrap_core.obj
 0001:00004590       ?onReceiveQueryAnswer@IMeetingAICompanionQueryHelperWrap@ZOOMSDK@@UEAAXPEAVIMeetingAICompanionQueryItem@2@@Z 0000000180005590 f i zoom_native_sdk_wrap_core.obj
 0001:000045e0       ?OnUpvoteQuestion@IMeetingQAControllerWrap@ZOOMSDK@@UEAAXPEB_W_N@Z 00000001800055e0 f i zoom_native_sdk_wrap_core.obj
 0001:00004650       ?OnRevokeUpvoteQuestion@IMeetingQAControllerWrap@ZOOMSDK@@UEAAXPEB_W_N@Z 0000000180005650 f i zoom_native_sdk_wrap_core.obj
 0001:000046c0       ?OnAllowAskQuestionAnonymousStatus@IMeetingQAControllerWrap@ZOOMSDK@@UEAAX_N@Z 00000001800056c0 f i zoom_native_sdk_wrap_core.obj
 0001:00004710       ?OnAllowAttendeeViewAllQuestionStatus@IMeetingQAControllerWrap@ZOOMSDK@@UEAAX_N@Z 0000000180005710 f i zoom_native_sdk_wrap_core.obj
 0001:00004710       ?onAllowParticipantsRequestCloudRecording@IMeetingParticipantsControllerWrap@ZOOMSDK@@UEAAX_N@Z 0000000180005710 f i zoom_native_sdk_wrap_core.obj
 0001:00004760       ?OnAllowAttendeeVoteupQuestionStatus@IMeetingQAControllerWrap@ZOOMSDK@@UEAAX_N@Z 0000000180005760 f i zoom_native_sdk_wrap_core.obj
 0001:000047b0       ?OnAllowAttendeeCommentQuestionStatus@IMeetingQAControllerWrap@ZOOMSDK@@UEAAX_N@Z 00000001800057b0 f i zoom_native_sdk_wrap_core.obj
 0001:000047b0       ?onParticipantProfilePictureStatusChange@IMeetingParticipantsControllerWrap@ZOOMSDK@@UEAAX_N@Z 00000001800057b0 f i zoom_native_sdk_wrap_core.obj
 0001:00004800       ?OnRefreshQAData@IMeetingQAControllerWrap@ZOOMSDK@@UEAAXXZ 0000000180005800 f i zoom_native_sdk_wrap_core.obj
 0001:00004840       ?onMeetingQAStatusChanged@IMeetingQAControllerWrap@ZOOMSDK@@UEAAX_N@Z 0000000180005840 f i zoom_native_sdk_wrap_core.obj
 0001:00004890       ?onAllowAskQuestionStatus@IMeetingQAControllerWrap@ZOOMSDK@@UEAAX_N@Z 0000000180005890 f i zoom_native_sdk_wrap_core.obj
 0001:000048e0       ??_EIMeetingQAControllerWrap@ZOOMSDK@@UEAAPEAXI@Z 00000001800058e0 f i * CIL library *:* CIL module *
 0001:000048e0       ??_GIMeetingQAControllerWrap@ZOOMSDK@@UEAAPEAXI@Z 00000001800058e0 f i zoom_native_sdk_wrap_core.obj
 0001:00004920       ??1IMeetingQAControllerWrap@ZOOMSDK@@UEAA@XZ 0000000180005920 f i zoom_native_sdk_wrap_core.obj
 0001:00004bd0       ?onPollingStatusChanged@IMeetingPollingControllerWrap@ZOOMSDK@@UEAAXPEB_WW4SDKPollingStatus@2@@Z 0000000180005bd0 f i zoom_native_sdk_wrap_core.obj
 0001:00004c30       ?onPollingActionResult@IMeetingPollingControllerWrap@ZOOMSDK@@UEAAXW4SDKPollingActionType@2@PEB_W_N1@Z 0000000180005c30 f i zoom_native_sdk_wrap_core.obj
 0001:00004cd0       ?onPollingQuestionImageDownloaded@IMeetingPollingControllerWrap@ZOOMSDK@@UEAAXPEB_W0@Z 0000000180005cd0 f i zoom_native_sdk_wrap_core.obj
 0001:00004d40       ?OnVideoPlayError@IVirtualBGSettingContextWrap@ZOOMSDK@@UEAAXPEB_WW4VBVideoError@2@@Z 0000000180005d40 f i zoom_native_sdk_wrap_core.obj
 0001:00004d40       ?onPollingElapsedTime@IMeetingPollingControllerWrap@ZOOMSDK@@UEAAXPEB_WI@Z 0000000180005d40 f i zoom_native_sdk_wrap_core.obj
 0001:00004db0       ?onGetRightAnswerListPrivilege@IMeetingPollingControllerWrap@ZOOMSDK@@UEAAX_N@Z 0000000180005db0 f i zoom_native_sdk_wrap_core.obj
 0001:00004db0       ?onWaitingRoomEntranceEnabled@IMeetingWaitingRoomControllerWrap@ZOOMSDK@@UEAAX_N@Z 0000000180005db0 f i zoom_native_sdk_wrap_core.obj
 0001:00004e00       ?onDisallowAttendeeChatNotification@IMeetingWebinarControllerWrap@ZOOMSDK@@UEAAXXZ 0000000180005e00 f i zoom_native_sdk_wrap_core.obj
 0001:00004e00       ?onPollingInactive@IMeetingPollingControllerWrap@ZOOMSDK@@UEAAXXZ 0000000180005e00 f i zoom_native_sdk_wrap_core.obj
 0001:00004e40       ?onComputerCamDeviceChanged@IVideoSettingContextWrap@ZOOMSDK@@UEAAXPEAV?$IList@PEAVICameraInfo@ZOOMSDK@@@2@@Z 0000000180005e40 f i zoom_native_sdk_wrap_core.obj
 0001:00004e40       ?onComputerMicDeviceChanged@IAudioSettingContextWrap@ZOOMSDK@@UEAAXPEAV?$IList@PEAVIMicInfo@ZOOMSDK@@@2@@Z 0000000180005e40 f i zoom_native_sdk_wrap_core.obj
 0001:00004e40       ?onDocsSharingSourceInfoChanged@IMeetingDocsControllerWrap@ZOOMSDK@@UEAAXPEAVIZoomSDKDocSharingSourceInfo@2@@Z 0000000180005e40 f i zoom_native_sdk_wrap_core.obj
 0001:00004e40       ?onIndicatorItemReceived@IMeetingIndicatorControllerWrap@ZOOMSDK@@UEAAXPEAVIMeetingIndicatorHandler@2@@Z 0000000180005e40 f i zoom_native_sdk_wrap_core.obj
 0001:00004e90       ?onWhiteboardSettingsChanged@IMeetingWhiteboardControllerWrap@ZOOMSDK@@UEAAXW4SDKWhiteboardShareOption@2@W4SDKWhiteboardCreateOption@2@_N@Z 0000000180005e90 f i zoom_native_sdk_wrap_core.obj
 0001:00004f10       ?onControllerStatusChanged@ICameraControllerWrap@ZOOMSDK@@UEAAX_N@Z 0000000180005f10 f i zoom_native_sdk_wrap_core.obj
 0001:00004f60       ?onUserVideoStatusChange@IMeetingVideoControllerWrap@ZOOMSDK@@UEAAXIW4VideoStatus@2@@Z 0000000180005f60 f i zoom_native_sdk_wrap_core.obj
 0001:00004fc0       ?onSpotlightedUserListChangeNotification@IMeetingVideoControllerWrap@ZOOMSDK@@UEAAXPEAV?$IList@I@2@@Z 0000000180005fc0 f i zoom_native_sdk_wrap_core.obj
 0001:00005010       ?onHostRequestStartVideo@IMeetingVideoControllerWrap@ZOOMSDK@@UEAAXPEAVIRequestStartVideoHandler@2@@Z 0000000180006010 f i zoom_native_sdk_wrap_core.obj
 0001:00005060       ?onActiveSpeakerVideoUserChanged@IMeetingVideoControllerWrap@ZOOMSDK@@UEAAXI@Z 0000000180006060 f i zoom_native_sdk_wrap_core.obj
 0001:000050b0       ?onActiveVideoUserChanged@IMeetingVideoControllerWrap@ZOOMSDK@@UEAAXI@Z 00000001800060b0 f i zoom_native_sdk_wrap_core.obj
 0001:00005100       ?onHostVideoOrderUpdated@IMeetingVideoControllerWrap@ZOOMSDK@@UEAAXPEAV?$IList@I@2@@Z 0000000180006100 f i zoom_native_sdk_wrap_core.obj
 0001:00005150       ?onFollowHostVideoOrderChanged@IMeetingVideoControllerWrap@ZOOMSDK@@UEAAX_N@Z 0000000180006150 f i zoom_native_sdk_wrap_core.obj
 0001:000051a0       ?onLocalVideoOrderUpdated@IMeetingVideoControllerWrap@ZOOMSDK@@UEAAXPEAV?$IList@I@2@@Z 00000001800061a0 f i zoom_native_sdk_wrap_core.obj
 0001:000051f0       ?onUserVideoQualityChanged@IMeetingVideoControllerWrap@ZOOMSDK@@UEAAXW4VideoConnectionQuality@2@I@Z 00000001800061f0 f i zoom_native_sdk_wrap_core.obj
 0001:00005250       ?onVideoAlphaChannelStatusChanged@IMeetingVideoControllerWrap@ZOOMSDK@@UEAAX_N@Z 0000000180006250 f i zoom_native_sdk_wrap_core.obj
 0001:000052a0       ?onCameraControlRequestReceived@IMeetingVideoControllerWrap@ZOOMSDK@@UEAAXIW4CameraControlRequestType@2@PEAVICameraControlRequestHandler@2@@Z 00000001800062a0 f i zoom_native_sdk_wrap_core.obj
 0001:00005320       ?onCameraControlRequestResult@IMeetingVideoControllerWrap@ZOOMSDK@@UEAAXIW4CameraControlRequestResult@2@@Z 0000000180006320 f i zoom_native_sdk_wrap_core.obj
 0001:00005380       ??_EIMeetingVideoControllerWrap@ZOOMSDK@@UEAAPEAXI@Z 0000000180006380 f i * CIL library *:* CIL module *
 0001:00005380       ??_GIMeetingVideoControllerWrap@ZOOMSDK@@UEAAPEAXI@Z 0000000180006380 f i zoom_native_sdk_wrap_core.obj
 0001:000053c0       ??1IMeetingVideoControllerWrap@ZOOMSDK@@UEAA@XZ 00000001800063c0 f i zoom_native_sdk_wrap_core.obj
 0001:00005590       ?onSharingStatus@IMeetingShareControllerWrap@ZOOMSDK@@UEAAXUtagZoomSDKSharingSourceInfo@2@@Z 0000000180006590 f i zoom_native_sdk_wrap_core.obj
 0001:00005610       ?onLockShareStatus@IMeetingShareControllerWrap@ZOOMSDK@@UEAAX_N@Z 0000000180006610 f i zoom_native_sdk_wrap_core.obj
 0001:00005660       ?onShareContentNotification@IMeetingShareControllerWrap@ZOOMSDK@@UEAAXUtagZoomSDKSharingSourceInfo@2@@Z 0000000180006660 f i zoom_native_sdk_wrap_core.obj
 0001:000056e0       ?onMultiShareSwitchToSingleShareNeedConfirm@IMeetingShareControllerWrap@ZOOMSDK@@UEAAXPEAVIShareSwitchMultiToSingleConfirmHandler@2@@Z 00000001800066e0 f i zoom_native_sdk_wrap_core.obj
 0001:00005730       ?onShareSettingTypeChangedNotification@IMeetingShareControllerWrap@ZOOMSDK@@UEAAXW4ShareSettingType@2@@Z 0000000180006730 f i zoom_native_sdk_wrap_core.obj
 0001:00005780       ?onInvalidReclaimHostkey@IMeetingParticipantsControllerWrap@ZOOMSDK@@UEAAXXZ 0000000180006780 f i zoom_native_sdk_wrap_core.obj
 0001:00005780       ?onSharedVideoEnded@IMeetingShareControllerWrap@ZOOMSDK@@UEAAXXZ 0000000180006780 f i zoom_native_sdk_wrap_core.obj
 0001:000057c0       ?onVideoFileSharePlayError@IMeetingShareControllerWrap@ZOOMSDK@@UEAAXW4ZoomSDKVideoFileSharePlayError@2@@Z 00000001800067c0 f i zoom_native_sdk_wrap_core.obj
 0001:00005810       ?onFailedToStartShare@IMeetingShareControllerWrap@ZOOMSDK@@UEAAXXZ 0000000180006810 f i zoom_native_sdk_wrap_core.obj
 0001:00005850       ?onOptimizingShareForVideoClipStatusChanged@IMeetingShareControllerWrap@ZOOMSDK@@UEAAXUtagZoomSDKSharingSourceInfo@2@@Z 0000000180006850 f i zoom_native_sdk_wrap_core.obj
 0001:000058d0       ??_EIMeetingShareControllerWrap@ZOOMSDK@@UEAAPEAXI@Z 00000001800068d0 f i * CIL library *:* CIL module *
 0001:000058d0       ??_GIMeetingShareControllerWrap@ZOOMSDK@@UEAAPEAXI@Z 00000001800068d0 f i zoom_native_sdk_wrap_core.obj
 0001:00005910       ??1IMeetingShareControllerWrap@ZOOMSDK@@UEAA@XZ 0000000180006910 f i zoom_native_sdk_wrap_core.obj
 0001:00005a60       ?onUserAudioStatusChange@IMeetingAudioControllerWrap@ZOOMSDK@@UEAAXPEAV?$IList@PEAVIUserAudioStatus@ZOOMSDK@@@2@PEB_W@Z 0000000180006a60 f i zoom_native_sdk_wrap_core.obj
 0001:00005ac0       ?onSmartSummaryStateSupportedButDisabled@IMeetingAICompanionSmartSummaryHelperWrap@ZOOMSDK@@UEAAXPEAVIMeetingEnableSmartSummaryHandler@2@@Z 0000000180006ac0 f i zoom_native_sdk_wrap_core.obj
 0001:00005ac0       ?onUserActiveAudioChange@IMeetingAudioControllerWrap@ZOOMSDK@@UEAAXPEAV?$IList@I@2@@Z 0000000180006ac0 f i zoom_native_sdk_wrap_core.obj
 0001:00005b10       ?onHostRequestStartAudio@IMeetingAudioControllerWrap@ZOOMSDK@@UEAAXPEAVIRequestStartAudioHandler@2@@Z 0000000180006b10 f i zoom_native_sdk_wrap_core.obj
 0001:00005b10       ?onPersonalWallpaperChanged@IWallpaperSettingContextWrap@ZOOMSDK@@UEAAXPEAVIWallpaperItem@2@@Z 0000000180006b10 f i zoom_native_sdk_wrap_core.obj
 0001:00005b10       ?onSmartSummaryStateEnabledButNotStarted@IMeetingAICompanionSmartSummaryHelperWrap@ZOOMSDK@@UEAAXPEAVIMeetingStartSmartSummaryHandler@2@@Z 0000000180006b10 f i zoom_native_sdk_wrap_core.obj
 0001:00005b60       ?onJoin3rdPartyTelephonyAudio@IMeetingAudioControllerWrap@ZOOMSDK@@UEAAXPEB_W@Z 0000000180006b60 f i zoom_native_sdk_wrap_core.obj
 0001:00005b60       ?onSmartSummaryStateStarted@IMeetingAICompanionSmartSummaryHelperWrap@ZOOMSDK@@UEAAXPEAVIMeetingStopSmartSummaryHandler@2@@Z 0000000180006b60 f i zoom_native_sdk_wrap_core.obj
 0001:00005bb0       ?onFailedToStartSmartSummary@IMeetingAICompanionSmartSummaryHelperWrap@ZOOMSDK@@UEAAX_N@Z 0000000180006bb0 f i zoom_native_sdk_wrap_core.obj
 0001:00005bb0       ?onMuteOnEntryStatusChange@IMeetingAudioControllerWrap@ZOOMSDK@@UEAAX_N@Z 0000000180006bb0 f i zoom_native_sdk_wrap_core.obj
 0001:00005c00       ??_EIMeetingAudioControllerWrap@ZOOMSDK@@UEAAPEAXI@Z 0000000180006c00 f i * CIL library *:* CIL module *
 0001:00005c00       ??_GIMeetingAudioControllerWrap@ZOOMSDK@@UEAAPEAXI@Z 0000000180006c00 f i zoom_native_sdk_wrap_core.obj
 0001:00005c40       ??1IMeetingAudioControllerWrap@ZOOMSDK@@UEAA@XZ 0000000180006c40 f i zoom_native_sdk_wrap_core.obj
 0001:00005d10       ?onRecording2MP4Done@IMeetingRecordingControllerWrap@ZOOMSDK@@UEAAX_NHPEB_W@Z 0000000180006d10 f i zoom_native_sdk_wrap_core.obj
 0001:00005d90       ?onRecording2MP4Processing@IMeetingRecordingControllerWrap@ZOOMSDK@@UEAAXH@Z 0000000180006d90 f i zoom_native_sdk_wrap_core.obj
 0001:00005de0       ?onCustomizedLocalRecordingSourceNotification@IMeetingRecordingControllerWrap@ZOOMSDK@@UEAAXPEAVICustomizedLocalRecordingLayoutHelper@2@@Z 0000000180006de0 f i zoom_native_sdk_wrap_core.obj
 0001:00005e30       ?onCloudRecordingStatus@IMeetingRecordingControllerWrap@ZOOMSDK@@UEAAXW4RecordingStatus@2@@Z 0000000180006e30 f i zoom_native_sdk_wrap_core.obj
 0001:00005e80       ?onRecordPrivilegeChanged@IMeetingRecordingControllerWrap@ZOOMSDK@@UEAAX_N@Z 0000000180006e80 f i zoom_native_sdk_wrap_core.obj
 0001:00005ed0       ?onLocalRecordingPrivilegeRequestStatus@IMeetingRecordingControllerWrap@ZOOMSDK@@UEAAXW4RequestLocalRecordingStatus@2@@Z 0000000180006ed0 f i zoom_native_sdk_wrap_core.obj
 0001:00005f20       ?onLocalRecordingPrivilegeRequested@IMeetingRecordingControllerWrap@ZOOMSDK@@UEAAXPEAVIRequestLocalRecordingPrivilegeHandler@2@@Z 0000000180006f20 f i zoom_native_sdk_wrap_core.obj
 0001:00005f70       ?onCloudRecordingStorageFull@IMeetingRecordingControllerWrap@ZOOMSDK@@UEAAX_J@Z 0000000180006f70 f i zoom_native_sdk_wrap_core.obj
 0001:00005fc0       ?onRequestCloudRecordingResponse@IMeetingRecordingControllerWrap@ZOOMSDK@@UEAAXW4RequestStartCloudRecordingStatus@2@@Z 0000000180006fc0 f i zoom_native_sdk_wrap_core.obj
 0001:00006010       ?onStartCloudRecordingRequested@IMeetingRecordingControllerWrap@ZOOMSDK@@UEAAXPEAVIRequestStartCloudRecordingHandler@2@@Z 0000000180007010 f i zoom_native_sdk_wrap_core.obj
 0001:00006060       ?onChatMsgNotification@IMeetingChatControllerWrap@ZOOMSDK@@UEAAXPEAVIChatMsgInfo@2@PEB_W@Z 0000000180007060 f i zoom_native_sdk_wrap_core.obj
 0001:00006060       ?onReminderNotify@IMeetingReminderControllerWrap@ZOOMSDK@@UEAAXPEAVIMeetingReminderContent@2@PEAVIMeetingReminderHandler@2@@Z 0000000180007060 f i zoom_native_sdk_wrap_core.obj
 0001:00006060       ?onUserJoin@IMeetingParticipantsControllerWrap@ZOOMSDK@@UEAAXPEAV?$IList@I@2@PEB_W@Z 0000000180007060 f i zoom_native_sdk_wrap_core.obj
 0001:000060c0       ?onChatMsgDeleteNotification@IMeetingChatControllerWrap@ZOOMSDK@@UEAAXPEB_WW4SDKChatMessageDeleteType@2@@Z 00000001800070c0 f i zoom_native_sdk_wrap_core.obj
 0001:00006130       ?onShareMeetingChatStatusChanged@IMeetingChatControllerWrap@ZOOMSDK@@UEAAX_N@Z 0000000180007130 f i zoom_native_sdk_wrap_core.obj
 0001:00006180       ?onFileSendStart@IMeetingChatControllerWrap@ZOOMSDK@@UEAAXPEAVISDKFileSender@2@@Z 0000000180007180 f i zoom_native_sdk_wrap_core.obj
 0001:000061d0       ?onFileReceived@IMeetingChatControllerWrap@ZOOMSDK@@UEAAXPEAVISDKFileReceiver@2@@Z 00000001800071d0 f i zoom_native_sdk_wrap_core.obj
 0001:00006220       ?onFileTransferProgress@IMeetingChatControllerWrap@ZOOMSDK@@UEAAXPEAUtagSDKFileTransferInfo@2@@Z 0000000180007220 f i zoom_native_sdk_wrap_core.obj
 0001:00006270       ?onChatMessageEditNotification@IMeetingChatControllerWrap@ZOOMSDK@@UEAAXPEAVIChatMsgInfo@2@@Z 0000000180007270 f i zoom_native_sdk_wrap_core.obj
 0001:000062c0       ?onWaitingRoomPresetAudioStatusChanged@IMeetingWaitingRoomControllerWrap@ZOOMSDK@@UEAAX_N@Z 00000001800072c0 f i zoom_native_sdk_wrap_core.obj
 0001:00006310       ?onWaitingRoomPresetVideoStatusChanged@IMeetingWaitingRoomControllerWrap@ZOOMSDK@@UEAAX_N@Z 0000000180007310 f i zoom_native_sdk_wrap_core.obj
 0001:00006360       ?onCustomWaitingRoomDataUpdated@IMeetingWaitingRoomControllerWrap@ZOOMSDK@@UEAAXAEAUCustomWaitingRoomData_s@2@PEAVIWaitingRoomDataDownloadHandler@2@@Z 0000000180007360 f i zoom_native_sdk_wrap_core.obj
 0001:000063c0       ?onWaitingRoomUserNameChanged@IMeetingWaitingRoomControllerWrap@ZOOMSDK@@UEAAXIPEB_W@Z 00000001800073c0 f i zoom_native_sdk_wrap_core.obj
 0001:00006420       ??_EIMeetingWaitingRoomControllerWrap@ZOOMSDK@@UEAAPEAXI@Z 0000000180007420 f i * CIL library *:* CIL module *
 0001:00006420       ??_GIMeetingWaitingRoomControllerWrap@ZOOMSDK@@UEAAPEAXI@Z 0000000180007420 f i zoom_native_sdk_wrap_core.obj
 0001:00006460       ??1IMeetingWaitingRoomControllerWrap@ZOOMSDK@@UEAA@XZ 0000000180007460 f i zoom_native_sdk_wrap_core.obj
 0001:00006570       ?onDefaultCamDeviceChanged@IVideoSettingContextWrap@ZOOMSDK@@UEAAXPEB_W0@Z 0000000180007570 f i zoom_native_sdk_wrap_core.obj
 0001:00006570       ?onEnableReminderNotify@IMeetingReminderControllerWrap@ZOOMSDK@@UEAAXPEAVIMeetingReminderContent@2@PEAVIMeetingEnableReminderHandler@2@@Z 0000000180007570 f i zoom_native_sdk_wrap_core.obj
 0001:00006570       ?onUserLeft@IMeetingParticipantsControllerWrap@ZOOMSDK@@UEAAXPEAV?$IList@I@2@PEB_W@Z 0000000180007570 f i zoom_native_sdk_wrap_core.obj
 0001:000065e0       ?onLowOrRaiseHandStatusChanged@IMeetingParticipantsControllerWrap@ZOOMSDK@@UEAAX_NI@Z 00000001800075e0 f i zoom_native_sdk_wrap_core.obj
 0001:00006650       ?onCoHostChangeNotification@IMeetingParticipantsControllerWrap@ZOOMSDK@@UEAAXI_N@Z 0000000180007650 f i zoom_native_sdk_wrap_core.obj
 0001:000066c0       ?onAllHandsLowered@IMeetingParticipantsControllerWrap@ZOOMSDK@@UEAAXXZ 00000001800076c0 f i zoom_native_sdk_wrap_core.obj
 0001:00006700       ?onLocalRecordingStatusChanged@IMeetingParticipantsControllerWrap@ZOOMSDK@@UEAAXIW4RecordingStatus@2@@Z 0000000180007700 f i zoom_native_sdk_wrap_core.obj
 0001:00006760       ?onAllowParticipantsRenameNotification@IMeetingParticipantsControllerWrap@ZOOMSDK@@UEAAX_N@Z 0000000180007760 f i zoom_native_sdk_wrap_core.obj
 0001:000067b0       ?onAllowParticipantsUnmuteSelfNotification@IMeetingParticipantsControllerWrap@ZOOMSDK@@UEAAX_N@Z 00000001800077b0 f i zoom_native_sdk_wrap_core.obj
 0001:000067b0       ?onSendQueryPrivilegeChanged@IMeetingAICompanionQueryHelperWrap@ZOOMSDK@@UEAAX_N@Z 00000001800077b0 f i zoom_native_sdk_wrap_core.obj
 0001:00006800       ?onAllowParticipantsShareWhiteBoardNotification@IMeetingParticipantsControllerWrap@ZOOMSDK@@UEAAX_N@Z 0000000180007800 f i zoom_native_sdk_wrap_core.obj
 0001:00006850       ?onRequestLocalRecordingPrivilegeChanged@IMeetingParticipantsControllerWrap@ZOOMSDK@@UEAAXW4LocalRecordingRequestPrivilegeStatus@2@@Z 0000000180007850 f i zoom_native_sdk_wrap_core.obj
 0001:000068a0       ?onInMeetingUserAvatarPathUpdated@IMeetingParticipantsControllerWrap@ZOOMSDK@@UEAAXI@Z 00000001800078a0 f i zoom_native_sdk_wrap_core.obj
 0001:000068f0       ?onFocusModeStateChanged@IMeetingParticipantsControllerWrap@ZOOMSDK@@UEAAX_N@Z 00000001800078f0 f i zoom_native_sdk_wrap_core.obj
 0001:00006940       ?onFocusModeShareTypeChanged@IMeetingParticipantsControllerWrap@ZOOMSDK@@UEAAXW4FocusModeShareType@2@@Z 0000000180007940 f i zoom_native_sdk_wrap_core.obj
 0001:00006990       ?onBotAuthorizerRelationChanged@IMeetingParticipantsControllerWrap@ZOOMSDK@@UEAAXI@Z 0000000180007990 f i zoom_native_sdk_wrap_core.obj
 0001:000069e0       ?onVirtualNameTagStatusChanged@IMeetingParticipantsControllerWrap@ZOOMSDK@@UEAAX_NI@Z 00000001800079e0 f i zoom_native_sdk_wrap_core.obj
 0001:00006a50       ?onVirtualNameTagRosterInfoUpdated@IMeetingParticipantsControllerWrap@ZOOMSDK@@UEAAXI@Z 0000000180007a50 f i zoom_native_sdk_wrap_core.obj
 0001:00006aa0       ?onCreateCompanionRelation@IMeetingParticipantsControllerWrap@ZOOMSDK@@UEAAXII@Z 0000000180007aa0 f i zoom_native_sdk_wrap_core.obj
 0001:00006b10       ?onRemoveCompanionRelation@IMeetingParticipantsControllerWrap@ZOOMSDK@@UEAAXI@Z 0000000180007b10 f i zoom_native_sdk_wrap_core.obj
 0001:00006b60       ?onGrantCoOwnerPrivilegeChanged@IMeetingParticipantsControllerWrap@ZOOMSDK@@UEAAX_N@Z 0000000180007b60 f i zoom_native_sdk_wrap_core.obj
 0001:00006bb0       ??_EIMeetingParticipantsControllerWrap@ZOOMSDK@@UEAAPEAXI@Z 0000000180007bb0 f i * CIL library *:* CIL module *
 0001:00006bb0       ??_GIMeetingParticipantsControllerWrap@ZOOMSDK@@UEAAPEAXI@Z 0000000180007bb0 f i zoom_native_sdk_wrap_core.obj
 0001:00006bf0       ??1IMeetingParticipantsControllerWrap@ZOOMSDK@@UEAA@XZ 0000000180007bf0 f i zoom_native_sdk_wrap_core.obj
 0001:00006f40       ?onAttendeeAudioStatusNotification@IMeetingWebinarControllerWrap@ZOOMSDK@@UEAAXI_N0@Z 0000000180007f40 f i zoom_native_sdk_wrap_core.obj
 0001:00006fc0       ?onAttendeePromoteConfirmResult@IMeetingWebinarControllerWrap@ZOOMSDK@@UEAAX_NI@Z 0000000180007fc0 f i zoom_native_sdk_wrap_core.obj
 0001:00007030       ?onAllowWebinarReactionStatusChanged@IMeetingWebinarControllerWrap@ZOOMSDK@@UEAAX_N@Z 0000000180008030 f i zoom_native_sdk_wrap_core.obj
 0001:00007080       ?onAllowAttendeeRaiseHandStatusChanged@IMeetingWebinarControllerWrap@ZOOMSDK@@UEAAX_N@Z 0000000180008080 f i zoom_native_sdk_wrap_core.obj
 0001:000070d0       ?onAllowAttendeeViewTheParticipantCountStatusChanged@IMeetingWebinarControllerWrap@ZOOMSDK@@UEAAX_N@Z 00000001800080d0 f i zoom_native_sdk_wrap_core.obj
 0001:00007120       ?onSmartSummaryStateNotSupported@IMeetingAICompanionSmartSummaryHelperWrap@ZOOMSDK@@UEAAXXZ 0000000180008120 f i zoom_native_sdk_wrap_core.obj
 0001:00007160       ?onSmartSummaryStartRequestReceived@IMeetingAICompanionSmartSummaryHelperWrap@ZOOMSDK@@UEAAXPEAVIMeetingApproveStartSmartSummaryHandler@2@@Z 0000000180008160 f i zoom_native_sdk_wrap_core.obj
 0001:000071b0       ?onSmartSummaryEnableActionCallback@IMeetingAICompanionSmartSummaryHelperWrap@ZOOMSDK@@UEAAXPEAVIMeetingEnableSmartSummaryActionHandler@2@@Z 00000001800081b0 f i zoom_native_sdk_wrap_core.obj
 0001:00007200       ??_EIMeetingAICompanionSmartSummaryHelperWrap@ZOOMSDK@@UEAAPEAXI@Z 0000000180008200 f i * CIL library *:* CIL module *
 0001:00007200       ??_GIMeetingAICompanionSmartSummaryHelperWrap@ZOOMSDK@@UEAAPEAXI@Z 0000000180008200 f i zoom_native_sdk_wrap_core.obj
 0001:00007240       ??1IMeetingAICompanionSmartSummaryHelperWrap@ZOOMSDK@@UEAA@XZ 0000000180008240 f i zoom_native_sdk_wrap_core.obj
 0001:00007370       ?onQueryStateEnabledButNotStarted@IMeetingAICompanionQueryHelperWrap@ZOOMSDK@@UEAAXPEAVIMeetingStartQueryHandler@2@@Z 0000000180008370 f i zoom_native_sdk_wrap_core.obj
 0001:000073c0       ?onQuerySettingChanged@IMeetingAICompanionQueryHelperWrap@ZOOMSDK@@UEAAXW4MeetingAICompanionQuerySettingOptions@2@@Z 00000001800083c0 f i zoom_native_sdk_wrap_core.obj
 0001:00007410       ?onFailedToStartQuery@IMeetingAICompanionQueryHelperWrap@ZOOMSDK@@UEAAX_N@Z 0000000180008410 f i zoom_native_sdk_wrap_core.obj
 0001:00007460       ?onAICompanionFeatureTurnOffByParticipant@IMeetingAICompanionControllerWrap@ZOOMSDK@@UEAAXPEAVIAICompanionFeatureTurnOnAgainHandler@2@@Z 0000000180008460 f i zoom_native_sdk_wrap_core.obj
 0001:000074b0       ?onAICompanionFeatureSwitchRequested@IMeetingAICompanionControllerWrap@ZOOMSDK@@UEAAXPEAVIAICompanionFeatureSwitchHandler@2@@Z 00000001800084b0 f i zoom_native_sdk_wrap_core.obj
 0001:00007500       ?onAICompanionFeatureSwitchRequestResponse@IMeetingAICompanionControllerWrap@ZOOMSDK@@UEAAX_N00@Z 0000000180008500 f i zoom_native_sdk_wrap_core.obj
 0001:00007590       ?onAICompanionFeatureCanNotBeTurnedOff@IMeetingAICompanionControllerWrap@ZOOMSDK@@UEAAXPEAV?$IList@W4AICompanionFeature@ZOOMSDK@@@2@@Z 0000000180008590 f i zoom_native_sdk_wrap_core.obj
 0001:000075e0       ?onHostUnsupportedStopNotesRequest@IMeetingAICompanionControllerWrap@ZOOMSDK@@UEAAXXZ 00000001800085e0 f i zoom_native_sdk_wrap_core.obj
 0001:00007620       ??_EIMeetingAICompanionControllerWrap@ZOOMSDK@@UEAAPEAXI@Z 0000000180008620 f i * CIL library *:* CIL module *
 0001:00007620       ??_GIMeetingAICompanionControllerWrap@ZOOMSDK@@UEAAPEAXI@Z 0000000180008620 f i zoom_native_sdk_wrap_core.obj
 0001:00007660       ??1IMeetingAICompanionControllerWrap@ZOOMSDK@@UEAA@XZ 0000000180008660 f i zoom_native_sdk_wrap_core.obj
 0001:00007750       ??0IMeetingServiceWrap@ZOOMSDK@@AEAA@XZ 0000000180008750 f i zoom_native_sdk_wrap_core.obj
 0001:000080f0       ?onMeetingStatusChanged@IMeetingServiceWrap@ZOOMSDK@@UEAAXW4MeetingStatus@2@H@Z 00000001800090f0 f i zoom_native_sdk_wrap_core.obj
 0001:00008150       ?onMeetingStatisticsWarningNotification@IMeetingServiceWrap@ZOOMSDK@@UEAAXW4StatisticsWarningType@2@@Z 0000000180009150 f i zoom_native_sdk_wrap_core.obj
 0001:000081a0       ?onMeetingParameterNotification@IMeetingServiceWrap@ZOOMSDK@@UEAAXPEBUtagMeetingParameter@2@@Z 00000001800091a0 f i zoom_native_sdk_wrap_core.obj
 0001:000081f0       ?onSuspendParticipantsActivities@IMeetingServiceWrap@ZOOMSDK@@UEAAXXZ 00000001800091f0 f i zoom_native_sdk_wrap_core.obj
 0001:00008230       ?onAICompanionActiveChangeNotice@IMeetingServiceWrap@ZOOMSDK@@UEAAX_N@Z 0000000180009230 f i zoom_native_sdk_wrap_core.obj
 0001:00008280       ?onMeetingTopicChanged@IMeetingServiceWrap@ZOOMSDK@@UEAAXPEB_W@Z 0000000180009280 f i zoom_native_sdk_wrap_core.obj
 0001:000082d0       ?onMeetingFullToWatchLiveStream@IMeetingServiceWrap@ZOOMSDK@@UEAAXPEB_W@Z 00000001800092d0 f i zoom_native_sdk_wrap_core.obj
 0001:00008320       ?onUserNetworkStatusChanged@IMeetingServiceWrap@ZOOMSDK@@UEAAXW4MeetingComponentType@2@W4ConnectionQuality@2@I_N@Z 0000000180009320 f i zoom_native_sdk_wrap_core.obj
 0001:000083c0       ?onAppSignalPanelUpdated@IMeetingServiceWrap@ZOOMSDK@@UEAAXPEAVIMeetingAppSignalHandler@2@@Z 00000001800093c0 f i zoom_native_sdk_wrap_core.obj
 0001:00008410       ??_EIMeetingServiceWrap@ZOOMSDK@@UEAAPEAXI@Z 0000000180009410 f i * CIL library *:* CIL module *
 0001:00008410       ??_GIMeetingServiceWrap@ZOOMSDK@@UEAAPEAXI@Z 0000000180009410 f i zoom_native_sdk_wrap_core.obj
 0001:00008450       ??1IMeetingServiceWrap@ZOOMSDK@@UEAA@XZ 0000000180009450 f i zoom_native_sdk_wrap_core.obj
 0001:00008740       ??1IMeetingLiveStreamControllerWrap@ZOOMSDK@@QEAA@XZ 0000000180009740 f i zoom_native_sdk_wrap_core.obj
 0001:00008880       ??_EITestVideoDeviceHelperWrap@ZOOMSDK@@UEAAPEAXI@Z 0000000180009880 f i * CIL library *:* CIL module *
 0001:00008880       ??_GITestVideoDeviceHelperWrap@ZOOMSDK@@UEAAPEAXI@Z 0000000180009880 f i zoom_native_sdk_wrap_core.obj
 0001:000088c0       ??1ITestVideoDeviceHelperWrap@ZOOMSDK@@UEAA@XZ 00000001800098c0 f i zoom_native_sdk_wrap_core.obj
 0001:00008950       ??_EIVideoSettingContextWrap@ZOOMSDK@@UEAAPEAXI@Z 0000000180009950 f i * CIL library *:* CIL module *
 0001:00008950       ??_GIVideoSettingContextWrap@ZOOMSDK@@UEAAPEAXI@Z 0000000180009950 f i zoom_native_sdk_wrap_core.obj
 0001:00008990       ??1IVideoSettingContextWrap@ZOOMSDK@@UEAA@XZ 0000000180009990 f i zoom_native_sdk_wrap_core.obj
 0001:00008a00       ?OnNoAudioDeviceIsUseful@ITestAudioDeviceHelperWrap@ZOOMSDK@@UEAAX_N@Z 0000000180009a00 f i zoom_native_sdk_wrap_core.obj
 0001:00008a50       ?OnTestMicStatusChanged@ITestAudioDeviceHelperWrap@ZOOMSDK@@UEAAXW4SDK_TESTMIC_STATUS@2@AEA_N@Z 0000000180009a50 f i zoom_native_sdk_wrap_core.obj
 0001:00008ab0       ?onDefaultMicDeviceChanged@IAudioSettingContextWrap@ZOOMSDK@@UEAAXPEB_W0@Z 0000000180009ab0 f i zoom_native_sdk_wrap_core.obj
 0001:00008b20       ?onDefaultSpeakerDeviceChanged@IAudioSettingContextWrap@ZOOMSDK@@UEAAXPEB_W0@Z 0000000180009b20 f i zoom_native_sdk_wrap_core.obj
 0001:00008b90       ??_EIAudioSettingContextWrap@ZOOMSDK@@UEAAPEAXI@Z 0000000180009b90 f i * CIL library *:* CIL module *
 0001:00008b90       ??_GIAudioSettingContextWrap@ZOOMSDK@@UEAAPEAXI@Z 0000000180009b90 f i zoom_native_sdk_wrap_core.obj
 0001:00008bd0       ??1IAudioSettingContextWrap@ZOOMSDK@@UEAA@XZ 0000000180009bd0 f i zoom_native_sdk_wrap_core.obj
 0001:00008c90       ?onCloudRecordingStorageInfo@IRecordingSettingContextWrap@ZOOMSDK@@UEAAX_J0_N@Z 0000000180009c90 f i zoom_native_sdk_wrap_core.obj
 0001:00008d10       ??_EIRecordingSettingContextWrap@ZOOMSDK@@UEAAPEAXI@Z 0000000180009d10 f i * CIL library *:* CIL module *
 0001:00008d10       ??_GIRecordingSettingContextWrap@ZOOMSDK@@UEAAPEAXI@Z 0000000180009d10 f i zoom_native_sdk_wrap_core.obj
 0001:00008d80       ?onPersonalWallpaperImageDownloadStatus@IWallpaperSettingContextWrap@ZOOMSDK@@UEAAXW4ZoomSDKWallpaperSettingStatus@2@PEB_W@Z 0000000180009d80 f i zoom_native_sdk_wrap_core.obj
 0001:00008de0       ?OnVideoThumbError@IVirtualBGSettingContextWrap@ZOOMSDK@@UEAAXPEB_WW4VBVideoError@2@@Z 0000000180009de0 f i zoom_native_sdk_wrap_core.obj
 0001:00008e50       ??_EIVirtualBGSettingContextWrap@ZOOMSDK@@UEAAPEAXI@Z 0000000180009e50 f i * CIL library *:* CIL module *
 0001:00008e50       ??_GIVirtualBGSettingContextWrap@ZOOMSDK@@UEAAPEAXI@Z 0000000180009e50 f i zoom_native_sdk_wrap_core.obj
 0001:00008e90       ??1IVirtualBGSettingContextWrap@ZOOMSDK@@UEAA@XZ 0000000180009e90 f i zoom_native_sdk_wrap_core.obj
 0001:00008f80       ??1IWallpaperSettingContextWrap@ZOOMSDK@@QEAA@XZ 0000000180009f80 f i zoom_native_sdk_wrap_core.obj
 0001:00009020       ?GetInst@ICustomizedResourceHelperWrap@ZOOMSDK@@SAAEAV12@XZ 000000018000a020 f i zoom_native_sdk_wrap_core.obj
 0001:00009120       ?GetAuthServiceWrap@CSDKWrap@ZOOMSDK@@QEAAAEAVIAuthServiceWrap@2@XZ 000000018000a120 f   zoom_native_sdk_wrap_core.obj
 0001:00009200       ?GetSettingServiceWrap@CSDKWrap@ZOOMSDK@@QEAAAEAVISettingServiceWrap@2@XZ 000000018000a200 f   zoom_native_sdk_wrap_core.obj
 0001:000093d0       ??_ECSDKImpl@@UEAAPEAXI@Z  000000018000a3d0 f i * CIL library *:* CIL module *
 0001:000093d0       ??_GCSDKImpl@@UEAAPEAXI@Z  000000018000a3d0 f i zoom_native_sdk_wrap_core.obj
 0001:00009470       ?GetInst@CSDKImpl@@SAAEAV1@XZ 000000018000a470 f   zoom_native_sdk_wrap_core.obj
 0001:00009590       ?dummyproc@@YAXXZ          000000018000a590 f   zoom_native_sdk_wrap_core.obj
 0001:000095b0       ?ConfigSDKModule@CSDKImpl@@QEAA_NPEB_W@Z 000000018000a5b0 f   zoom_native_sdk_wrap_core.obj
 0001:00009c80       ?InitSDK@CSDKImpl@@UEAA?AW4SDKError@ZOOMSDK@@AEAUtagInitParam@3@@Z 000000018000ac80 f   zoom_native_sdk_wrap_core.obj
 0001:00009ca0       ?CreateMeetingService@CSDKImpl@@UEAA?AW4SDKError@ZOOMSDK@@PEAPEAVIMeetingService@3@@Z 000000018000aca0 f   zoom_native_sdk_wrap_core.obj
 0001:00009cc0       ?DestroyMeetingService@CSDKImpl@@UEAA?AW4SDKError@ZOOMSDK@@PEAVIMeetingService@3@@Z 000000018000acc0 f   zoom_native_sdk_wrap_core.obj
 0001:00009ce0       ?CreateAuthService@CSDKImpl@@UEAA?AW4SDKError@ZOOMSDK@@PEAPEAVIAuthService@3@@Z 000000018000ace0 f   zoom_native_sdk_wrap_core.obj
 0001:00009d00       ?DestroyAuthService@CSDKImpl@@UEAA?AW4SDKError@ZOOMSDK@@PEAVIAuthService@3@@Z 000000018000ad00 f   zoom_native_sdk_wrap_core.obj
 0001:00009d20       ?CreateSettingService@CSDKImpl@@UEAA?AW4SDKError@ZOOMSDK@@PEAPEAVISettingService@3@@Z 000000018000ad20 f   zoom_native_sdk_wrap_core.obj
 0001:00009d40       ?DestroySettingService@CSDKImpl@@UEAA?AW4SDKError@ZOOMSDK@@PEAVISettingService@3@@Z 000000018000ad40 f   zoom_native_sdk_wrap_core.obj
 0001:00009d60       ?CreateNetworkConnectionHelper@CSDKImpl@@UEAA?AW4SDKError@ZOOMSDK@@PEAPEAVINetworkConnectionHelper@3@@Z 000000018000ad60 f   zoom_native_sdk_wrap_core.obj
 0001:00009d80       ?DestroyNetworkConnectionHelper@CSDKImpl@@UEAA?AW4SDKError@ZOOMSDK@@PEAVINetworkConnectionHelper@3@@Z 000000018000ad80 f   zoom_native_sdk_wrap_core.obj
 0001:00009da0       ?GetSDKVersion@CSDKImpl@@UEAAPEB_WXZ 000000018000ada0 f   zoom_native_sdk_wrap_core.obj
 0001:00009db0       ?CleanUPSDK@CSDKImpl@@UEAA?AW4SDKError@ZOOMSDK@@XZ 000000018000adb0 f   zoom_native_sdk_wrap_core.obj
 0001:00009dd0       ?RetrieveUIHooker@CSDKImpl@@UEAA?AW4SDKError@ZOOMSDK@@PEAPEAVIUIHooker@3@@Z 000000018000add0 f   zoom_native_sdk_wrap_core.obj
 0001:00009df0       ?RetrieveCustomizedResourceHelper@CSDKImpl@@UEAA?AW4SDKError@ZOOMSDK@@PEAPEAVICustomizedResourceHelper@3@@Z 000000018000adf0 f   zoom_native_sdk_wrap_core.obj
 0001:00009e10       ?CreateCustomizedUIMgr@CSDKImpl@@UEAA?AW4SDKError@ZOOMSDK@@PEAPEAVICustomizedUIMgr@3@@Z 000000018000ae10 f   zoom_native_sdk_wrap_core.obj
 0001:00009e30       ?DestroyCustomizedUIMgr@CSDKImpl@@UEAA?AW4SDKError@ZOOMSDK@@PEAVICustomizedUIMgr@3@@Z 000000018000ae30 f   zoom_native_sdk_wrap_core.obj
 0001:00009e50       ?GetRawdataVideoSourceHelper@CSDKImpl@@UEAAPEAVIZoomSDKVideoSourceHelper@ZOOMSDK@@XZ 000000018000ae50 f   zoom_native_sdk_wrap_core.obj
 0001:00009e60       ?GetAudioRawdataHelper@CSDKImpl@@UEAAPEAVIZoomSDKAudioRawDataHelper@ZOOMSDK@@XZ 000000018000ae60 f   zoom_native_sdk_wrap_core.obj
 0001:00009e70       ?HasRawDataLicense@CSDKImpl@@UEAA_NXZ 000000018000ae70 f   zoom_native_sdk_wrap_core.obj
 0001:00009e80       ?createRenderer@CSDKImpl@@UEAA?AW4SDKError@ZOOMSDK@@PEAPEAVIZoomSDKRenderer@3@PEAVIZoomSDKRendererDelegate@3@@Z 000000018000ae80 f   zoom_native_sdk_wrap_core.obj
 0001:00009ea0       ?destroyRenderer@CSDKImpl@@UEAA?AW4SDKError@ZOOMSDK@@PEAVIZoomSDKRenderer@3@@Z 000000018000aea0 f   zoom_native_sdk_wrap_core.obj
 0001:00009ec0       DllMain                    000000018000aec0 f   zoom_native_sdk_wrap_core.obj
 0001:00009f80       ?AddCustomizedPictureResource@ICustomizedResourceHelperWrap@ZOOMSDK@@UEAA?AW4SDKError@2@PEB_W0@Z 000000018000af80 f   zoom_native_sdk_wrap_core.obj
 0001:00009fc0       ?AddCustomizedStringResource@ICustomizedResourceHelperWrap@ZOOMSDK@@UEAA?AW4SDKError@2@W4SDKCustomizedStringType@2@PEB_W@Z 000000018000afc0 f   zoom_native_sdk_wrap_core.obj
 0001:0000a0c0       ?AddCustomizedURLResource@ICustomizedResourceHelperWrap@ZOOMSDK@@UEAA?AW4SDKError@2@W4SDKCustomizedURLType@2@PEB_W@Z 000000018000b0c0 f   zoom_native_sdk_wrap_core.obj
 0001:0000a1c0       ?ApplyAll@ICustomizedResourceHelperWrap@ZOOMSDK@@QEAAXXZ 000000018000b1c0 f   zoom_native_sdk_wrap_core.obj
 0001:0000a4f0       ??1ICustomizedAnnotationControllerWrap@ZOOMSDK@@QEAA@XZ 000000018000b4f0 f   zoom_native_sdk_wrap_core.obj
 0001:0000a580       ?DummyFunc@@YAXXZ          000000018000b580 f   zoom_native_sdk_wrap_core.obj
 0001:0000a5a0       ?InitSDK@ZNativeSDKWrap@@QEAA?AW4ZNSDKError@@AEAU_ZNInitParam@@@Z 000000018000b5a0 f   zoom_native_sdk_wrap_core.obj
 0001:0000aba0       ??_EZNativeSDKWrap@@UEAAPEAXI@Z 000000018000bba0 f i * CIL library *:* CIL module *
 0001:0000aba0       ??_GZNativeSDKWrap@@UEAAPEAXI@Z 000000018000bba0 f i zoom_native_sdk_wrap_core.obj
 0001:0000ac20       ??1?$_Tree@V?$_Tmap_traits@W4SDKCustomizedStringType@ZOOMSDK@@V?$basic_string@_WU?$char_traits@_W@std@@V?$allocator@_W@2@@std@@U?$less@W4SDKCustomizedStringType@ZOOMSDK@@@4@V?$allocator@U?$pair@$$CBW4SDKCustomizedStringType@ZOOMSDK@@V?$basic_string@_WU?$char_traits@_W@std@@V?$allocator@_W@2@@std@@@std@@@4@$0A@@std@@@std@@QEAA@XZ 000000018000bc20 f i zoom_native_sdk_wrap_core.obj
 0001:0000ac20       ??1?$_Tree@V?$_Tmap_traits@W4SDKCustomizedURLType@ZOOMSDK@@V?$basic_string@_WU?$char_traits@_W@std@@V?$allocator@_W@2@@std@@U?$less@W4SDKCustomizedURLType@ZOOMSDK@@@4@V?$allocator@U?$pair@$$CBW4SDKCustomizedURLType@ZOOMSDK@@V?$basic_string@_WU?$char_traits@_W@std@@V?$allocator@_W@2@@std@@@std@@@4@$0A@@std@@@std@@QEAA@XZ 000000018000bc20 f i zoom_native_sdk_wrap_core.obj
 0001:0000ac90       ??0?$basic_string@_WU?$char_traits@_W@std@@V?$allocator@_W@2@@std@@QEAA@QEB_W@Z 000000018000bc90 f i zoom_native_sdk_wrap_core.obj
 0001:0000ad80       ??0?$basic_string@_WU?$char_traits@_W@std@@V?$allocator@_W@2@@std@@QEAA@AEBV01@@Z 000000018000bd80 f i zoom_native_sdk_wrap_core.obj
 0001:0000ae60       ??1?$basic_string@DU?$char_traits@D@std@@V?$allocator@D@2@@std@@QEAA@XZ 000000018000be60 f i zoom_native_sdk_wrap_core.obj
 0001:0000ae60       ?_Tidy_deallocate@?$basic_string@DU?$char_traits@D@std@@V?$allocator@D@2@@std@@AEAAXXZ 000000018000be60 f i zoom_native_sdk_wrap_core.obj
 0001:0000aec0       ??0?$basic_string@DU?$char_traits@D@std@@V?$allocator@D@2@@std@@QEAA@_KD@Z 000000018000bec0 f i zoom_native_sdk_wrap_core.obj
 0001:0000afe0       ?_Tidy_deallocate@?$basic_string@_WU?$char_traits@_W@std@@V?$allocator@_W@2@@std@@AEAAXXZ 000000018000bfe0 f i zoom_native_sdk_wrap_core.obj
 0001:0000b050       ?assign@?$basic_string@_WU?$char_traits@_W@std@@V?$allocator@_W@2@@std@@QEAAAEAV12@QEB_W_K@Z 000000018000c050 f i zoom_native_sdk_wrap_core.obj
 0001:0000b180       ??$_Erase_tree@V?$allocator@U?$_Tree_node@U?$pair@$$CBW4SDKCustomizedStringType@ZOOMSDK@@V?$basic_string@_WU?$char_traits@_W@std@@V?$allocator@_W@2@@std@@@std@@PEAX@std@@@std@@@?$_Tree_val@U?$_Tree_simple_types@U?$pair@$$CBW4SDKCustomizedStringType@ZOOMSDK@@V?$basic_string@_WU?$char_traits@_W@std@@V?$allocator@_W@2@@std@@@std@@@std@@@std@@QEAAXAEAV?$allocator@U?$_Tree_node@U?$pair@$$CBW4SDKCustomizedStringType@ZOOMSDK@@V?$basic_string@_WU?$char_traits@_W@std@@V?$allocator@_W@2@@std@@@std@@PEAX@std@@@1@PEAU?$_Tree_node@U?$pair@$$CBW4SDKCustomizedStringType@ZOOMSDK@@V?$basic_string@_WU?$char_traits@_W@std@@V?$allocator@_W@2@@std@@@std@@PEAX@1@@Z 000000018000c180 f i zoom_native_sdk_wrap_core.obj
 0001:0000b180       ??$_Erase_tree@V?$allocator@U?$_Tree_node@U?$pair@$$CBW4SDKCustomizedURLType@ZOOMSDK@@V?$basic_string@_WU?$char_traits@_W@std@@V?$allocator@_W@2@@std@@@std@@PEAX@std@@@std@@@?$_Tree_val@U?$_Tree_simple_types@U?$pair@$$CBW4SDKCustomizedURLType@ZOOMSDK@@V?$basic_string@_WU?$char_traits@_W@std@@V?$allocator@_W@2@@std@@@std@@@std@@@std@@QEAAXAEAV?$allocator@U?$_Tree_node@U?$pair@$$CBW4SDKCustomizedURLType@ZOOMSDK@@V?$basic_string@_WU?$char_traits@_W@std@@V?$allocator@_W@2@@std@@@std@@PEAX@std@@@1@PEAU?$_Tree_node@U?$pair@$$CBW4SDKCustomizedURLType@ZOOMSDK@@V?$basic_string@_WU?$char_traits@_W@std@@V?$allocator@_W@2@@std@@@std@@PEAX@1@@Z 000000018000c180 f i zoom_native_sdk_wrap_core.obj
 0001:0000b200       ??$_Erase_tree@V?$allocator@U?$_Tree_node@U?$pair@$$CBV?$basic_string@_WU?$char_traits@_W@std@@V?$allocator@_W@2@@std@@V12@@std@@PEAX@std@@@std@@@?$_Tree_val@U?$_Tree_simple_types@U?$pair@$$CBV?$basic_string@_WU?$char_traits@_W@std@@V?$allocator@_W@2@@std@@V12@@std@@@std@@@std@@QEAAXAEAV?$allocator@U?$_Tree_node@U?$pair@$$CBV?$basic_string@_WU?$char_traits@_W@std@@V?$allocator@_W@2@@std@@V12@@std@@PEAX@std@@@1@PEAU?$_Tree_node@U?$pair@$$CBV?$basic_string@_WU?$char_traits@_W@std@@V?$allocator@_W@2@@std@@V12@@std@@PEAX@1@@Z 000000018000c200 f i zoom_native_sdk_wrap_core.obj
 0001:0000b290       ??$_Reallocate_grow_by@V<lambda_1>@?1??append@?$basic_string@_WU?$char_traits@_W@std@@V?$allocator@_W@2@@std@@QEAAAEAV34@_K_W@Z@_K_W@?$basic_string@_WU?$char_traits@_W@std@@V?$allocator@_W@2@@std@@AEAAAEAV01@_KV<lambda_1>@?1??append@01@QEAAAEAV01@0_W@Z@_K_W@Z 000000018000c290 f i zoom_native_sdk_wrap_core.obj
 0001:0000b3e0       ?allocate@?$allocator@_W@std@@QEAAPEA_W_K@Z 000000018000c3e0 f i zoom_native_sdk_wrap_core.obj
 0001:0000b450       ??$_Emplace@U?$pair@PEB_WPEB_W@std@@@?$_Tree@V?$_Tmap_traits@V?$basic_string@_WU?$char_traits@_W@std@@V?$allocator@_W@2@@std@@V12@U?$less@V?$basic_string@_WU?$char_traits@_W@std@@V?$allocator@_W@2@@std@@@2@V?$allocator@U?$pair@$$CBV?$basic_string@_WU?$char_traits@_W@std@@V?$allocator@_W@2@@std@@V12@@std@@@2@$0A@@std@@@std@@IEAA?AU?$pair@PEAU?$_Tree_node@U?$pair@$$CBV?$basic_string@_WU?$char_traits@_W@std@@V?$allocator@_W@2@@std@@V12@@std@@PEAX@std@@_N@1@$$QEAU?$pair@PEB_WPEB_W@1@@Z 000000018000c450 f i zoom_native_sdk_wrap_core.obj
 0001:0000b670       ?_Insert_node@?$_Tree_val@U?$_Tree_simple_types@U?$pair@$$CBIH@std@@@std@@@std@@QEAAPEAU?$_Tree_node@U?$pair@$$CBIH@std@@PEAX@2@U?$_Tree_id@PEAU?$_Tree_node@U?$pair@$$CBIH@std@@PEAX@std@@@2@QEAU32@@Z 000000018000c670 f i zoom_node_rawdata_helper_mgr_class.obj
 0001:0000b670       ?_Insert_node@?$_Tree_val@U?$_Tree_simple_types@U?$pair@$$CBV?$basic_string@_WU?$char_traits@_W@std@@V?$allocator@_W@2@@std@@V12@@std@@@std@@@std@@QEAAPEAU?$_Tree_node@U?$pair@$$CBV?$basic_string@_WU?$char_traits@_W@std@@V?$allocator@_W@2@@std@@V12@@std@@PEAX@2@U?$_Tree_id@PEAU?$_Tree_node@U?$pair@$$CBV?$basic_string@_WU?$char_traits@_W@std@@V?$allocator@_W@2@@std@@V12@@std@@PEAX@std@@@2@QEAU32@@Z 000000018000c670 f i zoom_native_sdk_wrap_core.obj
 0001:0000b670       ?_Insert_node@?$_Tree_val@U?$_Tree_simple_types@U?$pair@$$CBW4SDKCustomizedStringType@ZOOMSDK@@V?$basic_string@_WU?$char_traits@_W@std@@V?$allocator@_W@2@@std@@@std@@@std@@@std@@QEAAPEAU?$_Tree_node@U?$pair@$$CBW4SDKCustomizedStringType@ZOOMSDK@@V?$basic_string@_WU?$char_traits@_W@std@@V?$allocator@_W@2@@std@@@std@@PEAX@2@U?$_Tree_id@PEAU?$_Tree_node@U?$pair@$$CBW4SDKCustomizedStringType@ZOOMSDK@@V?$basic_string@_WU?$char_traits@_W@std@@V?$allocator@_W@2@@std@@@std@@PEAX@std@@@2@QEAU32@@Z 000000018000c670 f i zoom_native_sdk_wrap_core.obj
 0001:0000b670       ?_Insert_node@?$_Tree_val@U?$_Tree_simple_types@U?$pair@$$CBW4SDKCustomizedURLType@ZOOMSDK@@V?$basic_string@_WU?$char_traits@_W@std@@V?$allocator@_W@2@@std@@@std@@@std@@@std@@QEAAPEAU?$_Tree_node@U?$pair@$$CBW4SDKCustomizedURLType@ZOOMSDK@@V?$basic_string@_WU?$char_traits@_W@std@@V?$allocator@_W@2@@std@@@std@@PEAX@2@U?$_Tree_id@PEAU?$_Tree_node@U?$pair@$$CBW4SDKCustomizedURLType@ZOOMSDK@@V?$basic_string@_WU?$char_traits@_W@std@@V?$allocator@_W@2@@std@@@std@@PEAX@std@@@2@QEAU32@@Z 000000018000c670 f i zoom_native_sdk_wrap_core.obj
 0001:0000b670       ?_Insert_node@?$_Tree_val@U?$_Tree_simple_types@U?$pair@$$CB_KPEAVZNativeRawRenderWrap@@@std@@@std@@@std@@QEAAPEAU?$_Tree_node@U?$pair@$$CB_KPEAVZNativeRawRenderWrap@@@std@@PEAX@2@U?$_Tree_id@PEAU?$_Tree_node@U?$pair@$$CB_KPEAVZNativeRawRenderWrap@@@std@@PEAX@std@@@2@QEAU32@@Z 000000018000c670 f i zoom_native_raw_api_wrap_core.obj
 0001:0000b670       ?_Insert_node@?$_Tree_val@U?$_Tree_simple_types@U?$pair@QEAXPEAVUVIPC@@@std@@@std@@@std@@QEAAPEAU?$_Tree_node@U?$pair@QEAXPEAVUVIPC@@@std@@PEAX@2@U?$_Tree_id@PEAU?$_Tree_node@U?$pair@QEAXPEAVUVIPC@@@std@@PEAX@std@@@2@QEAU32@@Z 000000018000c670 f i uv_ipc_common.obj
 0001:0000b8d0       ?onAuthenticationReturn@ZAuthServiceWrapEvent@@UEAAXW4AuthResult@ZOOMSDK@@@Z 000000018000c8d0 f i auth_service_wrap_core.obj
 0001:0000baf0       ?OnEmojiReactionReceivedInWebinar@ZMeetingEmojiReactionControllerEvent@@UEAAXW4tagSDKEmojiReactionType@ZOOMSDK@@@Z 000000018000caf0 f i auth_service_wrap_core.obj
 0001:0000baf0       ?onActiveSpeakerVideoUserChanged@ZMeetingVideoCtrlWrapEvent@@UEAAXI@Z 000000018000caf0 f i auth_service_wrap_core.obj
 0001:0000baf0       ?onDepromptPanelist2AttendeeResult@ZMeetingWebinarCtrlEvent@@UEAAXH@Z 000000018000caf0 f i auth_service_wrap_core.obj
 0001:0000baf0       ?onFailedToStartShare@ZMeetingShareCtrlWrapEvent@@UEAAXXZ 000000018000caf0 f i auth_service_wrap_core.obj
 0001:0000baf0       ?onFreeMeetingUpgradeToGiftFreeTrialStart@ZMeetingConfigCtrlWrapFreeMeetingEvent@@UEAAXXZ 000000018000caf0 f i auth_service_wrap_core.obj
 0001:0000baf0       ?onLogout@ZAuthServiceWrapEvent@@UEAAXXZ 000000018000caf0 f i auth_service_wrap_core.obj
 0001:0000baf0       ?onRawLiveStreamPrivilegeChanged@ZMeetingLiveStreamWrapEvent@@UEAAX_N@Z 000000018000caf0 f i auth_service_wrap_core.obj
 0001:0000baf0       ?onRecording2MP4Processing@ZMeetingRecordingCtrlWrapEvent@@UEAAXH@Z 000000018000caf0 f i auth_service_wrap_core.obj
 0001:0000baf0       ?onStartShareBtnClicked@ZMeetingUIControllerWrapEvent@@UEAAXXZ 000000018000caf0 f i auth_service_wrap_core.obj
 0001:0000baf0       ?onWaitingRoomUserLeft@ZMeetingWaitingRoomCtrlEvent@@UEAAXI@Z 000000018000caf0 f i auth_service_wrap_core.obj
 0001:0000bb10       ?onAICompanionFeatureSwitchRequestResponse@ZMeetingAICompanionCtrlEvent@@UEAAX_N00@Z 000000018000cb10 f i auth_service_wrap_core.obj
 0001:0000bb10       ?onActiveVideoUserChanged@ZMeetingVideoCtrlWrapEvent@@UEAAXI@Z 000000018000cb10 f i auth_service_wrap_core.obj
 0001:0000bb10       ?onAllowPanelistStartVideoNotification@ZMeetingWebinarCtrlEvent@@UEAAXXZ 000000018000cb10 f i auth_service_wrap_core.obj
 0001:0000bb10       ?onEndMeetingBtnClicked@ZMeetingUIControllerWrapEvent@@UEAAXXZ 000000018000cb10 f i auth_service_wrap_core.obj
 0001:0000bb10       ?onFreeMeetingUpgradeToGiftFreeTrialStop@ZMeetingConfigCtrlWrapFreeMeetingEvent@@UEAAXXZ 000000018000cb10 f i auth_service_wrap_core.obj
 0001:0000bb10       ?onHostChangeNotification@ZMeetingParticipantsCtrlEvent@@UEAAXI@Z 000000018000cb10 f i auth_service_wrap_core.obj
 0001:0000bb10       ?onMuteOnEntryStatusChange@ZMeetingAudioCtrlWrapEvent@@UEAAX_N@Z 000000018000cb10 f i auth_service_wrap_core.obj
 0001:0000bb10       ?onPollingListUpdated@ZMeetingPollingCtrlEvent@@UEAAXXZ 000000018000cb10 f i auth_service_wrap_core.obj
 0001:0000bb10       ?onSelectedVBImageChanged@ZVirtualBGSettingContextEvent@@UEAAXXZ 000000018000cb10 f i auth_service_wrap_core.obj
 0001:0000bb10       ?onUserRawLiveStreamPrivilegeChanged@ZMeetingLiveStreamWrapEvent@@UEAAXI_N@Z 000000018000cb10 f i auth_service_wrap_core.obj
 0001:0000bb10       ?onWaitingRoomPresetAudioStatusChanged@ZMeetingWaitingRoomCtrlEvent@@UEAAX_N@Z 000000018000cb10 f i auth_service_wrap_core.obj
 0001:0000bb10       ?onZoomIdentityExpired@ZAuthServiceWrapEvent@@UEAAXXZ 000000018000cb10 f i auth_service_wrap_core.obj
 0001:0000bb30       ?onAllowParticipantsRequestCloudRecording@ZMeetingParticipantsCtrlEvent@@UEAAX_N@Z 000000018000cb30 f i auth_service_wrap_core.obj
 0001:0000bb30       ?onDisallowPanelistStartVideoNotification@ZMeetingWebinarCtrlEvent@@UEAAXXZ 000000018000cb30 f i auth_service_wrap_core.obj
 0001:0000bb30       ?onFreeMeetingUpgradeToProMeeting@ZMeetingConfigCtrlWrapFreeMeetingEvent@@UEAAXXZ 000000018000cb30 f i auth_service_wrap_core.obj
 0001:0000bb30       ?onParticipantListBtnClicked@ZMeetingUIControllerWrapEvent@@UEAAXXZ 000000018000cb30 f i auth_service_wrap_core.obj
 0001:0000bb30       ?onWaitingRoomPresetVideoStatusChanged@ZMeetingWaitingRoomCtrlEvent@@UEAAX_N@Z 000000018000cb30 f i auth_service_wrap_core.obj
 0001:0000bb30       ?onZoomAuthIdentityExpired@ZAuthServiceWrapEvent@@UEAAXXZ 000000018000cb30 f i auth_service_wrap_core.obj
 0001:0000bb50       ?onLoginReturnWithReason@ZAuthServiceWrapEvent@@UEAAXW4LOGINSTATUS@ZOOMSDK@@PEAVIAccountInfo@3@W4LoginFailReason@3@@Z 000000018000cb50 f i auth_service_wrap_core.obj
 0001:0000be30       ?GetInst@ZMeetingAppSignalHandler@@SAAEAV1@XZ 000000018000ce30 f i auth_service_wrap_core.obj
 0001:0000be90       ?onMeetingStatusChanged@ZMeetingServiceWrapEvent@@UEAAXW4MeetingStatus@ZOOMSDK@@H@Z 000000018000ce90 f i auth_service_wrap_core.obj
 0001:0000bf80       ?onMeetingStatisticsWarningNotification@ZMeetingServiceWrapEvent@@UEAAXW4StatisticsWarningType@ZOOMSDK@@@Z 000000018000cf80 f i auth_service_wrap_core.obj
 0001:0000bfc0       ?onMeetingParameterNotification@ZMeetingServiceWrapEvent@@UEAAXPEBUtagMeetingParameter@ZOOMSDK@@@Z 000000018000cfc0 f i auth_service_wrap_core.obj
 0001:0000c1c0       ?OnQuestionMarkedAsDismissed@ZMeetingQACtrlEvent@@UEAAXPEB_W@Z 000000018000d1c0 f i auth_service_wrap_core.obj
 0001:0000c1c0       ?onMeetingTopicChanged@ZMeetingServiceWrapEvent@@UEAAXPEB_W@Z 000000018000d1c0 f i auth_service_wrap_core.obj
 0001:0000c390       ?OnReopenQuestion@ZMeetingQACtrlEvent@@UEAAXPEB_W@Z 000000018000d390 f i auth_service_wrap_core.obj
 0001:0000c390       ?onMeetingFullToWatchLiveStream@ZMeetingServiceWrapEvent@@UEAAXPEB_W@Z 000000018000d390 f i auth_service_wrap_core.obj
 0001:0000c560       ?onUserNetworkStatusChanged@ZMeetingServiceWrapEvent@@UEAAXW4MeetingComponentType@ZOOMSDK@@W4ConnectionQuality@3@I_N@Z 000000018000d560 f i auth_service_wrap_core.obj
 0001:0000c5d0       ?onAppSignalPanelUpdated@ZMeetingServiceWrapEvent@@UEAAXPEAVIMeetingAppSignalHandler@ZOOMSDK@@@Z 000000018000d5d0 f i auth_service_wrap_core.obj
 0001:0000c620       ?onInviteBtnClicked@ZMeetingUIControllerWrapEvent@@UEAAXAEA_N@Z 000000018000d620 f i auth_service_wrap_core.obj
 0001:0000c620       ?onPromptAttendee2PanelistResult@ZMeetingWebinarCtrlEvent@@UEAAXH@Z 000000018000d620 f i auth_service_wrap_core.obj
 0001:0000c620       ?onSupportAnnotationStatus@ZMeetingAnnotationCtrlWrapEvent@@UEAAXI_N@Z 000000018000d620 f i auth_service_wrap_core.obj
 0001:0000c620       ?onVBImageDidDownloaded@ZVirtualBGSettingContextEvent@@UEAAXXZ 000000018000d620 f i auth_service_wrap_core.obj
 0001:0000c620       ?onWaitingRoomUserJoin@ZMeetingWaitingRoomCtrlEvent@@UEAAXI@Z 000000018000d620 f i auth_service_wrap_core.obj
 0001:0000c640       ?onBotAuthorizerRelationChanged@ZMeetingParticipantsCtrlEvent@@UEAAXI@Z 000000018000d640 f i auth_service_wrap_core.obj
 0001:0000c640       ?onCustomLiveStreamMenuClicked@ZMeetingUIControllerWrapEvent@@UEAAXXZ 000000018000d640 f i auth_service_wrap_core.obj
 0001:0000c640       ?onHostUnsupportedStopNotesRequest@ZMeetingAICompanionCtrlEvent@@UEAAXXZ 000000018000d640 f i auth_service_wrap_core.obj
 0001:0000c640       ?onRecordPrivilegeChanged@ZMeetingRecordingCtrlWrapEvent@@UEAAX_N@Z 000000018000d640 f i auth_service_wrap_core.obj
 0001:0000c640       ?onSelfAllowTalkNotification@ZMeetingWebinarCtrlEvent@@UEAAXXZ 000000018000d640 f i auth_service_wrap_core.obj
 0001:0000c640       ?onShareMeetingChatStatusChanged@ZMeetingChatCtrlEvent@@UEAAX_N@Z 000000018000d640 f i auth_service_wrap_core.obj
 0001:0000c660       ?onCloudRecordingStorageFull@ZMeetingRecordingCtrlWrapEvent@@UEAAX_J@Z 000000018000d660 f i auth_service_wrap_core.obj
 0001:0000c660       ?onRawLiveStreamPrivilegeRequestTimeout@ZMeetingLiveStreamWrapEvent@@UEAAXXZ 000000018000d660 f i auth_service_wrap_core.obj
 0001:0000c660       ?onSelfDisallowTalkNotification@ZMeetingWebinarCtrlEvent@@UEAAXXZ 000000018000d660 f i auth_service_wrap_core.obj
 0001:0000c660       ?onSmartSummaryStateNotSupported@ZMeetingAICompanionSmartSummaryEvent@@UEAAXXZ 000000018000d660 f i auth_service_wrap_core.obj
 0001:0000c660       ?onZoomInviteDialogFailed@ZMeetingUIControllerWrapEvent@@UEAAXXZ 000000018000d660 f i auth_service_wrap_core.obj
 0001:0000c680       ?onAllowAttendeeChatNotification@ZMeetingWebinarCtrlEvent@@UEAAXXZ 000000018000d680 f i auth_service_wrap_core.obj
 0001:0000c680       ?onCCBTNClicked@ZMeetingUIControllerWrapEvent@@UEAAXXZ 000000018000d680 f i auth_service_wrap_core.obj
 0001:0000c680       ?onLiveStreamReminderStatusChanged@ZMeetingLiveStreamWrapEvent@@UEAAX_N@Z 000000018000d680 f i auth_service_wrap_core.obj
 0001:0000c680       ?onWaitingRoomEntranceEnabled@ZMeetingWaitingRoomCtrlEvent@@UEAAX_N@Z 000000018000d680 f i auth_service_wrap_core.obj
 0001:0000c6a0       ?onAudioBtnClicked@ZMeetingUIControllerWrapEvent@@UEAAXUtagAudioBtnClickedCallbackInfo@ZOOMSDK@@@Z 000000018000d6a0 f i auth_service_wrap_core.obj
 0001:0000c740       ?onAllowWebinarReactionStatusChanged@ZMeetingWebinarCtrlEvent@@UEAAX_N@Z 000000018000d740 f i auth_service_wrap_core.obj
 0001:0000c740       ?onAudioMenuBtnClicked@ZMeetingUIControllerWrapEvent@@UEAAXXZ 000000018000d740 f i auth_service_wrap_core.obj
 0001:0000c740       ?onFreeMeetingRemainTime@ZMeetingConfigCtrlWrapFreeMeetingEvent@@UEAAXI@Z 000000018000d740 f i auth_service_wrap_core.obj
 0001:0000c740       ?onUserThresholdReachedForLiveStream@ZMeetingLiveStreamWrapEvent@@UEAAXH@Z 000000018000d740 f i auth_service_wrap_core.obj
 0001:0000c760       ?onUserAudioStatusChange@ZMeetingAudioCtrlWrapEvent@@UEAAXPEAV?$IList@PEAVIUserAudioStatus@ZOOMSDK@@@ZOOMSDK@@PEB_W@Z 000000018000d760 f i auth_service_wrap_core.obj
 0001:0000ca50       ?onUserActiveAudioChange@ZMeetingAudioCtrlWrapEvent@@UEAAXPEAV?$IList@I@ZOOMSDK@@@Z 000000018000da50 f i auth_service_wrap_core.obj
 0001:0000cc10       ?onUserVideoStatusChange@ZMeetingVideoCtrlWrapEvent@@UEAAXIW4VideoStatus@ZOOMSDK@@@Z 000000018000dc10 f i auth_service_wrap_core.obj
 0001:0000cc40       ?GetInst@ZRequestStartCloudRecordingHandler@@SAAEAV1@XZ 000000018000dc40 f i auth_service_wrap_core.obj
 0001:0000cca0       ?GetInst@ZRequestEnableAndStartSmartRecordingHandler@@SAAEAV1@XZ 000000018000dca0 f i auth_service_wrap_core.obj
 0001:0000cd00       ?GetInst@ZSmartRecordingEnableActionHandler@@SAAEAV1@XZ 000000018000dd00 f i auth_service_wrap_core.obj
 0001:0000cd60       ?onRecording2MP4Done@ZMeetingRecordingCtrlWrapEvent@@UEAAX_NHPEB_W@Z 000000018000dd60 f i auth_service_wrap_core.obj
 0001:0000cf50       ?onRecordingStatus@ZMeetingRecordingCtrlWrapEvent@@UEAAXW4RecordingStatus@ZOOMSDK@@@Z 000000018000df50 f i auth_service_wrap_core.obj
 0001:0000cfd0       ?onCloudRecordingStatus@ZMeetingRecordingCtrlWrapEvent@@UEAAXW4RecordingStatus@ZOOMSDK@@@Z 000000018000dfd0 f i auth_service_wrap_core.obj
 0001:0000d050       ?onRequestCloudRecordingResponse@ZMeetingRecordingCtrlWrapEvent@@UEAAXW4RequestStartCloudRecordingStatus@ZOOMSDK@@@Z 000000018000e050 f i auth_service_wrap_core.obj
 0001:0000d090       ?onStartCloudRecordingRequested@ZMeetingRecordingCtrlWrapEvent@@UEAAXPEAVIRequestStartCloudRecordingHandler@ZOOMSDK@@@Z 000000018000e090 f i auth_service_wrap_core.obj
 0001:0000d0d0       ?onEnableAndStartSmartRecordingRequested@ZMeetingRecordingCtrlWrapEvent@@UEAAXPEAVIRequestEnableAndStartSmartRecordingHandler@ZOOMSDK@@@Z 000000018000e0d0 f i auth_service_wrap_core.obj
 0001:0000d110       ?onSmartRecordingEnableActionCallback@ZMeetingRecordingCtrlWrapEvent@@UEAAXPEAVISmartRecordingEnableActionHandler@ZOOMSDK@@@Z 000000018000e110 f i auth_service_wrap_core.obj
 0001:0000d150       ?onSharingStatus@ZMeetingShareCtrlWrapEvent@@UEAAXUtagZoomSDKSharingSourceInfo@ZOOMSDK@@@Z 000000018000e150 f i auth_service_wrap_core.obj
 0001:0000d2a0       ?onOptimizingShareForVideoClipStatusChanged@ZMeetingShareCtrlWrapEvent@@UEAAXUtagZoomSDKSharingSourceInfo@ZOOMSDK@@@Z 000000018000e2a0 f i auth_service_wrap_core.obj
 0001:0000d3f0       ?onUserJoin@ZMeetingParticipantsCtrlEvent@@UEAAXPEAV?$IList@I@ZOOMSDK@@PEB_W@Z 000000018000e3f0 f i auth_service_wrap_core.obj
 0001:0000d630       ?onUserLeft@ZMeetingParticipantsCtrlEvent@@UEAAXPEAV?$IList@I@ZOOMSDK@@PEB_W@Z 000000018000e630 f i auth_service_wrap_core.obj
 0001:0000d880       ?onCalloutStatusNotify@ZMeetingH323CtrlWrapEvent@@UEAAXW4H323CalloutStatus@ZOOMSDK@@@Z 000000018000e880 f i auth_service_wrap_core.obj
 0001:0000d910       ?GetInst@ZMeetingPasswordAndScreenNameHandler@@SAAEAV1@XZ 000000018000e910 f i auth_service_wrap_core.obj
 0001:0000d970       ?GetInst@ZWebinarNeedRegisterHandler@@SAAEAV1@XZ 000000018000e970 f i auth_service_wrap_core.obj
 0001:0000d9d0       ?GetInst@ZWebinarInputScreenNameHandler@@SAAEAV1@XZ 000000018000e9d0 f i auth_service_wrap_core.obj
 0001:0000da30       ?GetInst@ZMeetingInputUserInfoHandler@@SAAEAV1@XZ 000000018000ea30 f i auth_service_wrap_core.obj
 0001:0000da90       ?GetInst@ZMeetingArchiveConfirmHandler@@SAAEAV1@XZ 000000018000ea90 f i auth_service_wrap_core.obj
 0001:0000daf0       ?onAllowAttendeeRaiseHandStatusChanged@ZMeetingWebinarCtrlEvent@@UEAAX_N@Z 000000018000eaf0 f i auth_service_wrap_core.obj
 0001:0000daf0       ?onFailedToStartSmartSummary@ZMeetingAICompanionSmartSummaryEvent@@UEAAX_N@Z 000000018000eaf0 f i auth_service_wrap_core.obj
 0001:0000daf0       ?onFreeMeetingRemainTimeStopCountDown@ZMeetingConfigCtrlWrapFreeMeetingEvent@@UEAAXXZ 000000018000eaf0 f i auth_service_wrap_core.obj
 0001:0000db10       ?onFreeMeetingNeedToUpgrade@ZMeetingConfigCtrlWrapFreeMeetingEvent@@UEAAXW4FreeMeetingNeedUpgradeType@IMeetingConfigurationFreeMeetingEvent@ZOOMSDK@@PEB_W@Z 000000018000eb10 f i auth_service_wrap_core.obj
 0001:0000dd20       ?onInputMeetingPasswordAndScreenNameNotification@ZMeetingConfigCtrlWrapFreeMeetingEvent@@UEAAXPEAVIMeetingPasswordAndScreenNameHandler@ZOOMSDK@@@Z 000000018000ed20 f i auth_service_wrap_core.obj
 0001:0000dd70       ?onAirPlayInstructionWndNotification@ZMeetingConfigCtrlWrapFreeMeetingEvent@@UEAAX_NPEB_W@Z 000000018000ed70 f i auth_service_wrap_core.obj
 0001:0000df50       ?onWebinarNeedRegisterNotification@ZMeetingConfigCtrlWrapFreeMeetingEvent@@UEAAXPEAVIWebinarNeedRegisterHandler@ZOOMSDK@@@Z 000000018000ef50 f i auth_service_wrap_core.obj
 0001:0000dfa0       ?onEndOtherMeetingToJoinMeetingNotification@ZMeetingConfigCtrlWrapFreeMeetingEvent@@UEAAXPEAVIEndOtherMeetingToJoinMeetingHandler@ZOOMSDK@@@Z 000000018000efa0 f i auth_service_wrap_core.obj
 0001:0000e040       ?onWebinarNeedInputScreenName@ZMeetingConfigCtrlWrapFreeMeetingEvent@@UEAAXPEAVIWebinarInputScreenNameHandler@ZOOMSDK@@@Z 000000018000f040 f i auth_service_wrap_core.obj
 0001:0000e090       ?onJoinMeetingNeedUserInfo@ZMeetingConfigCtrlWrapFreeMeetingEvent@@UEAAXPEAVIMeetingInputUserInfoHandler@ZOOMSDK@@@Z 000000018000f090 f i auth_service_wrap_core.obj
 0001:0000e0e0       ?onUserConfirmToStartArchive@ZMeetingConfigCtrlWrapFreeMeetingEvent@@UEAAXPEAVIMeetingArchiveConfirmHandler@ZOOMSDK@@@Z 000000018000f0e0 f i auth_service_wrap_core.obj
 0001:0000e130       ?GetInst@ZMeetingReminderHandler@@SAAEAV1@XZ 000000018000f130 f i auth_service_wrap_core.obj
 0001:0000e190       ?GetInst@ZMeetingEnableReminderHandler@@SAAEAV1@XZ 000000018000f190 f i auth_service_wrap_core.obj
 0001:0000e1f0       ?onReminderNotify@ZMeetingReminderCtrlEvent@@UEAAXPEAVIMeetingReminderContent@ZOOMSDK@@PEAVIMeetingReminderHandler@3@@Z 000000018000f1f0 f i auth_service_wrap_core.obj
 0001:0000e390       ?onEnableReminderNotify@ZMeetingReminderCtrlEvent@@UEAAXPEAVIMeetingReminderContent@ZOOMSDK@@PEAVIMeetingEnableReminderHandler@3@@Z 000000018000f390 f i auth_service_wrap_core.obj
 0001:0000e530       ?GetInst@ZSDKFileSender@@SAAEAV1@XZ 000000018000f530 f i auth_service_wrap_core.obj
 0001:0000e590       ?GetInst@ZSDKFileReceiver@@SAAEAV1@XZ 000000018000f590 f i auth_service_wrap_core.obj
 0001:0000e5f0       ?onChatMsgNotification@ZMeetingChatCtrlEvent@@UEAAXPEAVIChatMsgInfo@ZOOMSDK@@PEB_W@Z 000000018000f5f0 f i auth_service_wrap_core.obj
 0001:0000e8d0       ?onChatStatusChangedNotification@ZMeetingChatCtrlEvent@@UEAAXPEAUtagChatStatus@ZOOMSDK@@@Z 000000018000f8d0 f i auth_service_wrap_core.obj
 0001:0000e950       ?onChatMsgDeleteNotification@ZMeetingChatCtrlEvent@@UEAAXPEB_WW4SDKChatMessageDeleteType@ZOOMSDK@@@Z 000000018000f950 f i auth_service_wrap_core.obj
 0001:0000eb80       ?onChatMessageEditNotification@ZMeetingChatCtrlEvent@@UEAAXPEAVIChatMsgInfo@ZOOMSDK@@@Z 000000018000fb80 f i auth_service_wrap_core.obj
 0001:0000ecc0       ?onFileSendStart@ZMeetingChatCtrlEvent@@UEAAXPEAVISDKFileSender@ZOOMSDK@@@Z 000000018000fcc0 f i auth_service_wrap_core.obj
 0001:0000eee0       ?onFileReceived@ZMeetingChatCtrlEvent@@UEAAXPEAVISDKFileReceiver@ZOOMSDK@@@Z 000000018000fee0 f i auth_service_wrap_core.obj
 0001:0000f100       ?onFileTransferProgress@ZMeetingChatCtrlEvent@@UEAAXPEAUtagSDKFileTransferInfo@ZOOMSDK@@@Z 0000000180010100 f i auth_service_wrap_core.obj
 0001:0000f310       ??0_ZNChatMsgInfo@@QEAA@AEBU0@@Z 0000000180010310 f i auth_service_wrap_core.obj
 0001:0000f480       ?GetInst@ZMeetingWaitingRoomHandler@@SAAEAV1@XZ 0000000180010480 f i auth_service_wrap_core.obj
 0001:0000f4e0       ?onCustomWaitingRoomDataUpdated@ZMeetingWaitingRoomCtrlEvent@@UEAAXAEAUCustomWaitingRoomData_s@ZOOMSDK@@PEAVIWaitingRoomDataDownloadHandler@3@@Z 00000001800104e0 f i auth_service_wrap_core.obj
 0001:0000f900       ?onWaitingRoomUserNameChanged@ZMeetingWaitingRoomCtrlEvent@@UEAAXIPEB_W@Z 0000000180010900 f i auth_service_wrap_core.obj
 0001:0000fb00       ??0CustomWaitingRoomData_s@@QEAA@AEBU0@@Z 0000000180010b00 f i auth_service_wrap_core.obj
 0001:0000fbe0       ?GetInst@ZAICompanionFeatureTurnOnAgainHandler@@SAAEAV1@XZ 0000000180010be0 f i auth_service_wrap_core.obj
 0001:0000fc40       ?GetInst@ZAICompanionFeatureSwitchHandler@@SAAEAV1@XZ 0000000180010c40 f i auth_service_wrap_core.obj
 0001:0000fca0       ?onAICompanionFeatureTurnOffByParticipant@ZMeetingAICompanionCtrlEvent@@UEAAXPEAVIAICompanionFeatureTurnOnAgainHandler@ZOOMSDK@@@Z 0000000180010ca0 f i auth_service_wrap_core.obj
 0001:0000fce0       ?onAICompanionFeatureSwitchRequested@ZMeetingAICompanionCtrlEvent@@UEAAXPEAVIAICompanionFeatureSwitchHandler@ZOOMSDK@@@Z 0000000180010ce0 f i auth_service_wrap_core.obj
 0001:0000fd20       ?onAICompanionFeatureCanNotBeTurnedOff@ZMeetingAICompanionCtrlEvent@@UEAAXPEAV?$IList@W4AICompanionFeature@ZOOMSDK@@@ZOOMSDK@@@Z 0000000180010d20 f i auth_service_wrap_core.obj
 0001:00010010       ?GetInst@ZMeetingEnableSmartSummaryHandler@@SAAEAV1@XZ 0000000180011010 f i auth_service_wrap_core.obj
 0001:00010070       ?GetInst@ZMeetingStartSmartSummaryHandler@@SAAEAV1@XZ 0000000180011070 f i auth_service_wrap_core.obj
 0001:000100d0       ?GetInst@ZMeetingStopSmartSummaryHandler@@SAAEAV1@XZ 00000001800110d0 f i auth_service_wrap_core.obj
 0001:00010130       ?GetInst@ZMeetingApproveEnableSmartSummaryHandler@@SAAEAV1@XZ 0000000180011130 f i auth_service_wrap_core.obj
 0001:00010190       ?onOriginalLanguageMsgReceived@ZMeetingClosedCaptionControllerEvent@@UEAAXPEAVILiveTranscriptionMessageInfo@ZOOMSDK@@@Z 0000000180011190 f i auth_service_wrap_core.obj
 0001:000102e0       ?onLiveTranscriptionMsgInfoReceived@ZMeetingClosedCaptionControllerEvent@@UEAAXPEAVILiveTranscriptionMessageInfo@ZOOMSDK@@@Z 00000001800112e0 f i auth_service_wrap_core.obj
 0001:00010430       ?OnEmojiReactionReceived@ZMeetingEmojiReactionControllerEvent@@UEAAXIW4tagSDKEmojiReactionType@ZOOMSDK@@@Z 0000000180011430 f i auth_service_wrap_core.obj
 0001:00010450       ?OnAddQuestion@ZMeetingQACtrlEvent@@UEAAXPEB_W_N@Z 0000000180011450 f i auth_service_wrap_core.obj
 0001:00010630       ?OnAddAnswer@ZMeetingQACtrlEvent@@UEAAXPEB_W_N@Z 0000000180011630 f i auth_service_wrap_core.obj
 0001:00010810       ?OnReceiveQuestion@ZMeetingQACtrlEvent@@UEAAXPEB_W@Z 0000000180011810 f i auth_service_wrap_core.obj
 0001:000109e0       ?OnReceiveAnswer@ZMeetingQACtrlEvent@@UEAAXPEB_W@Z 00000001800119e0 f i auth_service_wrap_core.obj
 0001:00010bb0       ?OnUserLivingReply@ZMeetingQACtrlEvent@@UEAAXPEB_W@Z 0000000180011bb0 f i auth_service_wrap_core.obj
 0001:00010d80       ?OnUserEndLiving@ZMeetingQACtrlEvent@@UEAAXPEB_W@Z 0000000180011d80 f i auth_service_wrap_core.obj
 0001:00010f50       ?OnUpvoteQuestion@ZMeetingQACtrlEvent@@UEAAXPEB_W_N@Z 0000000180011f50 f i auth_service_wrap_core.obj
 0001:00011130       ?OnRevokeUpvoteQuestion@ZMeetingQACtrlEvent@@UEAAXPEB_W_N@Z 0000000180012130 f i auth_service_wrap_core.obj
 0001:00011310       ?OnDeleteQuestion@ZMeetingQACtrlEvent@@UEAAXPEAV?$IList@PEB_W@ZOOMSDK@@@Z 0000000180012310 f i auth_service_wrap_core.obj
 0001:000114b0       ?OnDeleteAnswer@ZMeetingQACtrlEvent@@UEAAXPEAV?$IList@PEB_W@ZOOMSDK@@@Z 00000001800124b0 f i auth_service_wrap_core.obj
 0001:00011650       ?onPollingStatusChanged@ZMeetingPollingCtrlEvent@@UEAAXPEB_WW4SDKPollingStatus@ZOOMSDK@@@Z 0000000180012650 f i auth_service_wrap_core.obj
 0001:00011850       ?onPollingResultUpdated@ZMeetingPollingCtrlEvent@@UEAAXPEB_W@Z 0000000180012850 f i auth_service_wrap_core.obj
 0001:00011a50       ?onPollingActionResult@ZMeetingPollingCtrlEvent@@UEAAXW4SDKPollingActionType@ZOOMSDK@@PEB_W_N1@Z 0000000180012a50 f i auth_service_wrap_core.obj
 0001:00011dd0       ?GetInst@ZMeetingApproveStartSmartSummaryHandler@@SAAEAV1@XZ 0000000180012dd0 f i auth_service_wrap_core.obj
 0001:00011e30       ?GetInst@ZMeetingEnableSmartSummaryActionHandler@@SAAEAV1@XZ 0000000180012e30 f i auth_service_wrap_core.obj
 0001:00011e90       ?onSmartSummaryStateSupportedButDisabled@ZMeetingAICompanionSmartSummaryEvent@@UEAAXPEAVIMeetingEnableSmartSummaryHandler@ZOOMSDK@@@Z 0000000180012e90 f i auth_service_wrap_core.obj
 0001:00011ed0       ?onSmartSummaryStateEnabledButNotStarted@ZMeetingAICompanionSmartSummaryEvent@@UEAAXPEAVIMeetingStartSmartSummaryHandler@ZOOMSDK@@@Z 0000000180012ed0 f i auth_service_wrap_core.obj
 0001:00011f10       ?onSmartSummaryStateStarted@ZMeetingAICompanionSmartSummaryEvent@@UEAAXPEAVIMeetingStopSmartSummaryHandler@ZOOMSDK@@@Z 0000000180012f10 f i auth_service_wrap_core.obj
 0001:00011f50       ?onSmartSummaryEnableRequestReceived@ZMeetingAICompanionSmartSummaryEvent@@UEAAXPEAVIMeetingApproveEnableSmartSummaryHandler@ZOOMSDK@@@Z 0000000180012f50 f i auth_service_wrap_core.obj
 0001:00011f90       ?onSmartSummaryStartRequestReceived@ZMeetingAICompanionSmartSummaryEvent@@UEAAXPEAVIMeetingApproveStartSmartSummaryHandler@ZOOMSDK@@@Z 0000000180012f90 f i auth_service_wrap_core.obj
 0001:00011fd0       ?onSmartSummaryEnableActionCallback@ZMeetingAICompanionSmartSummaryEvent@@UEAAXPEAVIMeetingEnableSmartSummaryActionHandler@ZOOMSDK@@@Z 0000000180012fd0 f i auth_service_wrap_core.obj
 0001:00012010       ?GetInst@ZMeetingEnableQueryHandler@@SAAEAV1@XZ 0000000180013010 f i auth_service_wrap_core.obj
 0001:00012070       ?GetInst@ZMeetingStartQueryHandler@@SAAEAV1@XZ 0000000180013070 f i auth_service_wrap_core.obj
 0001:000120d0       ?GetInst@ZMeetingSendQueryHandler@@SAAEAV1@XZ 00000001800130d0 f i auth_service_wrap_core.obj
 0001:00012130       ?GetInst@ZMeetingApproveEnableQueryHandler@@SAAEAV1@XZ 0000000180013130 f i auth_service_wrap_core.obj
 0001:00012190       ?GetInst@ZMeetingApproveStartQueryHandler@@SAAEAV1@XZ 0000000180013190 f i auth_service_wrap_core.obj
 0001:000121f0       ?GetInst@ZMeetingAICompanionQueryItemHandler@@SAAEAV1@XZ 00000001800131f0 f i auth_service_wrap_core.obj
 0001:00012250       ?GetInst@ZMeetingEnableQueryActionHandler@@SAAEAV1@XZ 0000000180013250 f i auth_service_wrap_core.obj
 0001:000122b0       ?GetInst@ZMeetingApproveSendQueryHandler@@SAAEAV1@XZ 00000001800132b0 f i auth_service_wrap_core.obj
 0001:00012310       ?onQueryStateNotSupported@ZMeetingAICompanionQueryEvent@@UEAAXXZ 0000000180013310 f i auth_service_wrap_core.obj
 0001:00012330       ?onQueryStateSupportedButDisabled@ZMeetingAICompanionQueryEvent@@UEAAXPEAVIMeetingEnableQueryHandler@ZOOMSDK@@@Z 0000000180013330 f i auth_service_wrap_core.obj
 0001:00012370       ?onQueryStateEnabledButNotStarted@ZMeetingAICompanionQueryEvent@@UEAAXPEAVIMeetingStartQueryHandler@ZOOMSDK@@@Z 0000000180013370 f i auth_service_wrap_core.obj
 0001:000123b0       ?onQueryStateStarted@ZMeetingAICompanionQueryEvent@@UEAAXPEAVIMeetingSendQueryHandler@ZOOMSDK@@@Z 00000001800133b0 f i auth_service_wrap_core.obj
 0001:000123f0       ?onQuerySettingChanged@ZMeetingAICompanionQueryEvent@@UEAAXW4MeetingAICompanionQuerySettingOptions@ZOOMSDK@@@Z 00000001800133f0 f i auth_service_wrap_core.obj
 0001:00012430       ?onFailedToStartQuery@ZMeetingAICompanionQueryEvent@@UEAAX_N@Z 0000000180013430 f i auth_service_wrap_core.obj
 0001:00012450       ?onReceiveRequestToEnableQuery@ZMeetingAICompanionQueryEvent@@UEAAXPEAVIMeetingApproveEnableQueryHandler@ZOOMSDK@@@Z 0000000180013450 f i auth_service_wrap_core.obj
 0001:00012490       ?onReceiveRequestToStartQuery@ZMeetingAICompanionQueryEvent@@UEAAXPEAVIMeetingApproveStartQueryHandler@ZOOMSDK@@@Z 0000000180013490 f i auth_service_wrap_core.obj
 0001:000124d0       ?onReceiveQueryAnswer@ZMeetingAICompanionQueryEvent@@UEAAXPEAVIMeetingAICompanionQueryItem@ZOOMSDK@@@Z 00000001800134d0 f i auth_service_wrap_core.obj
 0001:00012880       ?onQueryEnableActionCallback@ZMeetingAICompanionQueryEvent@@UEAAXPEAVIMeetingEnableQueryActionHandler@ZOOMSDK@@@Z 0000000180013880 f i auth_service_wrap_core.obj
 0001:000128c0       ?onSendQueryPrivilegeChanged@ZMeetingAICompanionQueryEvent@@UEAAX_N@Z 00000001800138c0 f i auth_service_wrap_core.obj
 0001:000128e0       ?onFailedToRequestSendQuery@ZMeetingAICompanionQueryEvent@@UEAAX_N@Z 00000001800138e0 f i auth_service_wrap_core.obj
 0001:00012900       ?onReceiveRequestToSendQuery@ZMeetingAICompanionQueryEvent@@UEAAXPEAVIMeetingApproveSendQueryHandler@ZOOMSDK@@@Z 0000000180013900 f i auth_service_wrap_core.obj
 0001:00012940       ?GetInst@ZDirectShareViaMeetingIDOrPairingCodeHandler@@SAAEAV1@XZ 0000000180013940 f i auth_service_wrap_core.obj
 0001:000129a0       ?OnDirectShareStatusUpdate@ZDirectShareHelperWrapEvent@@UEAAXW4DirectShareStatusStatus_Enum@ZOOMSDK@@PEAVIDirectShareViaMeetingIDOrPairingCodeHandler@3@@Z 00000001800139a0 f i auth_service_wrap_core.obj
 0001:00012a80       ?GetInst@ZoomRetrieveSMSVerificationCodeHandler@@SAAEAV1@XZ 0000000180013a80 f i auth_service_wrap_core.obj
 0001:00012ae0       ?GetInst@ZoomVerifySMSVerificationCodeHandler@@SAAEAV1@XZ 0000000180013ae0 f i auth_service_wrap_core.obj
 0001:00012b40       ?onNeedRealNameAuthMeetingNotification@ZZoomRealNameAuthMeetingWrapEvent@@UEAAXPEAV?$IVector@PEAVIZoomRealNameAuthCountryInfo@@@@PEBDPEAVIZoomRetrieveSMSVerificationCodeHandler@@@Z 0000000180013b40 f i auth_service_wrap_core.obj
 0001:00012ef0       ?onRetrieveSMSVerificationCodeResultNotification@ZZoomRealNameAuthMeetingWrapEvent@@UEAAXW4SMSVerificationCodeErr@@PEAVIZoomVerifySMSVerificationCodeHandler@@@Z 0000000180013ef0 f i auth_service_wrap_core.obj
 0001:00012f50       ?onVerifySMSVerificationCodeResultNotification@ZZoomRealNameAuthMeetingWrapEvent@@UEAAXW4SMSVerificationCodeErr@@@Z 0000000180013f50 f i auth_service_wrap_core.obj
 0001:00012f90       ?onComputerCamDeviceChanged@ZVideoSettingContextWrapEvent@@UEAAXPEAV?$IList@PEAVICameraInfo@ZOOMSDK@@@ZOOMSDK@@@Z 0000000180013f90 f i auth_service_wrap_core.obj
 0001:00012f90       ?onComputerMicDeviceChanged@ZAudioSettingContextWrapEvent@@UEAAXPEAV?$IList@PEAVIMicInfo@ZOOMSDK@@@ZOOMSDK@@@Z 0000000180013f90 f i auth_service_wrap_core.obj
 0001:000131f0       ?onComputerSpeakerDeviceChanged@ZAudioSettingContextWrapEvent@@UEAAXPEAV?$IList@PEAVISpeakerInfo@ZOOMSDK@@@ZOOMSDK@@@Z 00000001800141f0 f i auth_service_wrap_core.obj
 0001:00013450       ?onDefaultMicDeviceChanged@ZAudioSettingContextWrapEvent@@UEAAXPEB_W0@Z 0000000180014450 f i auth_service_wrap_core.obj
 0001:00013740       ?onDefaultSpeakerDeviceChanged@ZAudioSettingContextWrapEvent@@UEAAXPEB_W0@Z 0000000180014740 f i auth_service_wrap_core.obj
 0001:00013a30       ?onDefaultCamDeviceChanged@ZVideoSettingContextWrapEvent@@UEAAXPEB_W0@Z 0000000180014a30 f i auth_service_wrap_core.obj
 0001:00013d20       ?onCloudRecordingStorageInfo@ZRecordingSettingContextWrapEvent@@UEAAX_J0_N@Z 0000000180014d20 f i auth_service_wrap_core.obj
 0001:00013ef0       ?onMeetingWallpaperChanged@ZWallpaperSettingContextWrapEvent@@UEAAXPEAVIWallpaperItem@ZOOMSDK@@@Z 0000000180014ef0 f i auth_service_wrap_core.obj
 0001:00014010       ?onMeetingWallpaperImageDownloadStatus@ZWallpaperSettingContextWrapEvent@@UEAAXW4ZoomSDKWallpaperSettingStatus@ZOOMSDK@@PEB_W@Z 0000000180015010 f i auth_service_wrap_core.obj
 0001:00014220       ?onPersonalWallpaperChanged@ZWallpaperSettingContextWrapEvent@@UEAAXPEAVIWallpaperItem@ZOOMSDK@@@Z 0000000180015220 f i auth_service_wrap_core.obj
 0001:00014340       ?onPersonalWallpaperImageDownloadStatus@ZWallpaperSettingContextWrapEvent@@UEAAXW4ZoomSDKWallpaperSettingStatus@ZOOMSDK@@PEB_W@Z 0000000180015340 f i auth_service_wrap_core.obj
 0001:00014550       ?onGreenVBDidUpdateWithReplaceColor@ZVirtualBGSettingContextEvent@@UEAAXK@Z 0000000180015550 f i auth_service_wrap_core.obj
 0001:000145a0       ?OnVideoThumbReady@ZVirtualBGSettingContextEvent@@UEAAXPEB_W@Z 00000001800155a0 f i auth_service_wrap_core.obj
 0001:000145c0       ?OnVideoPlayError@ZVirtualBGSettingContextEvent@@UEAAXPEB_WW4VBVideoError@ZOOMSDK@@@Z 00000001800155c0 f i auth_service_wrap_core.obj
 0001:000145c0       ?OnVideoThumbError@ZVirtualBGSettingContextEvent@@UEAAXPEB_WW4VBVideoError@ZOOMSDK@@@Z 00000001800155c0 f i auth_service_wrap_core.obj
 0001:00014600       ?GetInst@ZNRequestRawLiveStreamPrivilegeHandler@@SAAEAV1@XZ 0000000180015600 f i auth_service_wrap_core.obj
 0001:00014660       ?onLiveStreamStatusChange@ZMeetingLiveStreamWrapEvent@@UEAAXW4LiveStreamStatus@ZOOMSDK@@@Z 0000000180015660 f i auth_service_wrap_core.obj
 0001:000146a0       ?onRawLiveStreamPrivilegeRequested@ZMeetingLiveStreamWrapEvent@@UEAAXPEAVIRequestRawLiveStreamPrivilegeHandler@ZOOMSDK@@@Z 00000001800156a0 f i auth_service_wrap_core.obj
 0001:000146f0       ?onUserRawLiveStreamingStatusChanged@ZMeetingLiveStreamWrapEvent@@UEAAXPEAV?$IList@URawLiveStreamInfo@ZOOMSDK@@@ZOOMSDK@@@Z 00000001800156f0 f i auth_service_wrap_core.obj
 0001:000148b0       ?onDisallowAttendeeChatNotification@ZMeetingWebinarCtrlEvent@@UEAAXXZ 00000001800158b0 f i auth_service_wrap_core.obj
 0001:000148b0       ?onLiveStreamReminderStatusChangeFailed@ZMeetingLiveStreamWrapEvent@@UEAAXXZ 00000001800158b0 f i auth_service_wrap_core.obj
 0001:000148d0       ?GetInst@ZMeetingIndicatorHandler@@SAAEAV1@XZ 00000001800158d0 f i auth_service_wrap_core.obj
 0001:00014930       ?onIndicatorItemReceived@ZMeetingIndicatorCtrlEvent@@UEAAXPEAVIMeetingIndicatorHandler@ZOOMSDK@@@Z 0000000180015930 f i auth_service_wrap_core.obj
 0001:00014970       ?onIndicatorItemRemoved@ZMeetingIndicatorCtrlEvent@@UEAAXPEAVIMeetingIndicatorHandler@ZOOMSDK@@@Z 0000000180015970 f i auth_service_wrap_core.obj
 0001:000149b0       ?onAllowAttendeeViewTheParticipantCountStatusChanged@ZMeetingWebinarCtrlEvent@@UEAAX_N@Z 00000001800159b0 f i auth_service_wrap_core.obj
 0001:000149d0       ?onAttendeeAudioStatusNotification@ZMeetingWebinarCtrlEvent@@UEAAXI_N0@Z 00000001800159d0 f i auth_service_wrap_core.obj
 0001:000149f0       ?onAttendeePromoteConfirmResult@ZMeetingWebinarCtrlEvent@@UEAAX_NI@Z 00000001800159f0 f i auth_service_wrap_core.obj
 0001:00014a10       ?onWhiteboardStatusChanged@ZMeetingWhiteboardCtrlEvent@@UEAAXW4SDKWhiteboardStatus@ZOOMSDK@@@Z 0000000180015a10 f i auth_service_wrap_core.obj
 0001:00014a40       ?onWhiteboardSettingsChanged@ZMeetingWhiteboardCtrlEvent@@UEAAXW4SDKWhiteboardShareOption@ZOOMSDK@@W4SDKWhiteboardCreateOption@3@_N@Z 0000000180015a40 f i auth_service_wrap_core.obj
 0001:00014aa0       ?onDocsSharingSourceInfoChanged@ZMeetingDocsCtrlEvent@@UEAAXPEAVIZoomSDKDocSharingSourceInfo@ZOOMSDK@@@Z 0000000180015aa0 f i auth_service_wrap_core.obj
 0001:00014bc0       ?onDocsPermissionChanged@ZMeetingDocsCtrlEvent@@UEAAXW4SDKDocsCreateOption@ZOOMSDK@@W4SDKDocsShareOption@3@@Z 0000000180015bc0 f i auth_service_wrap_core.obj
 0001:00014c40       ?GetInst@SDKEventWrapMgr@@SAAEAV1@XZ 0000000180015c40 f i auth_service_wrap_core.obj
 0001:00014e80       ??_EZAuthServiceWrapEvent@@UEAAPEAXI@Z 0000000180015e80 f i * CIL library *:* CIL module *
 0001:00014e80       ??_EZMeetingConfigCtrlWrapFreeMeetingEvent@@UEAAPEAXI@Z 0000000180015e80 f i * CIL library *:* CIL module *
 0001:00014e80       ??_EZVirtualBGSettingContextEvent@@UEAAPEAXI@Z 0000000180015e80 f i * CIL library *:* CIL module *
 0001:00014e80       ??_GZAuthServiceWrapEvent@@UEAAPEAXI@Z 0000000180015e80 f i auth_service_wrap_core.obj
 0001:00014e80       ??_GZMeetingConfigCtrlWrapFreeMeetingEvent@@UEAAPEAXI@Z 0000000180015e80 f i auth_service_wrap_core.obj
 0001:00014e80       ??_GZVirtualBGSettingContextEvent@@UEAAPEAXI@Z 0000000180015e80 f i auth_service_wrap_core.obj
 0001:00014eb0       ??_EZMeetingServiceWrapEvent@@UEAAPEAXI@Z 0000000180015eb0 f i * CIL library *:* CIL module *
 0001:00014eb0       ??_EZMeetingShareCtrlWrapEvent@@UEAAPEAXI@Z 0000000180015eb0 f i * CIL library *:* CIL module *
 0001:00014eb0       ??_GZMeetingServiceWrapEvent@@UEAAPEAXI@Z 0000000180015eb0 f i auth_service_wrap_core.obj
 0001:00014eb0       ??_GZMeetingShareCtrlWrapEvent@@UEAAPEAXI@Z 0000000180015eb0 f i auth_service_wrap_core.obj
 0001:00014ee0       ??_EZMeetingUIControllerWrapEvent@@UEAAPEAXI@Z 0000000180015ee0 f i * CIL library *:* CIL module *
 0001:00014ee0       ??_GZMeetingUIControllerWrapEvent@@UEAAPEAXI@Z 0000000180015ee0 f i auth_service_wrap_core.obj
 0001:00014f10       ??_EZMeetingAudioCtrlWrapEvent@@UEAAPEAXI@Z 0000000180015f10 f i * CIL library *:* CIL module *
 0001:00014f10       ??_GZMeetingAudioCtrlWrapEvent@@UEAAPEAXI@Z 0000000180015f10 f i auth_service_wrap_core.obj
 0001:00014f40       ??_EZMeetingVideoCtrlWrapEvent@@UEAAPEAXI@Z 0000000180015f40 f i * CIL library *:* CIL module *
 0001:00014f40       ??_GZMeetingVideoCtrlWrapEvent@@UEAAPEAXI@Z 0000000180015f40 f i auth_service_wrap_core.obj
 0001:00014f70       ??_EZMeetingAnnotationCtrlWrapEvent@@UEAAPEAXI@Z 0000000180015f70 f i * CIL library *:* CIL module *
 0001:00014f70       ??_GZMeetingAnnotationCtrlWrapEvent@@UEAAPEAXI@Z 0000000180015f70 f i auth_service_wrap_core.obj
 0001:00014fa0       ??_EZMeetingAICompanionQueryEvent@@UEAAPEAXI@Z 0000000180015fa0 f i * CIL library *:* CIL module *
 0001:00014fa0       ??_EZMeetingClosedCaptionControllerEvent@@UEAAPEAXI@Z 0000000180015fa0 f i * CIL library *:* CIL module *
 0001:00014fa0       ??_EZMeetingRecordingCtrlWrapEvent@@UEAAPEAXI@Z 0000000180015fa0 f i * CIL library *:* CIL module *
 0001:00014fa0       ??_EZMeetingWebinarCtrlEvent@@UEAAPEAXI@Z 0000000180015fa0 f i * CIL library *:* CIL module *
 0001:00014fa0       ??_GZMeetingAICompanionQueryEvent@@UEAAPEAXI@Z 0000000180015fa0 f i auth_service_wrap_core.obj
 0001:00014fa0       ??_GZMeetingClosedCaptionControllerEvent@@UEAAPEAXI@Z 0000000180015fa0 f i auth_service_wrap_core.obj
 0001:00014fa0       ??_GZMeetingRecordingCtrlWrapEvent@@UEAAPEAXI@Z 0000000180015fa0 f i auth_service_wrap_core.obj
 0001:00014fa0       ??_GZMeetingWebinarCtrlEvent@@UEAAPEAXI@Z 0000000180015fa0 f i auth_service_wrap_core.obj
 0001:00014fd0       ??_EZMeetingParticipantsCtrlEvent@@UEAAPEAXI@Z 0000000180015fd0 f i * CIL library *:* CIL module *
 0001:00014fd0       ??_GZMeetingParticipantsCtrlEvent@@UEAAPEAXI@Z 0000000180015fd0 f i auth_service_wrap_core.obj
 0001:00015000       ??_EZDirectShareHelperWrapEvent@@UEAAPEAXI@Z 0000000180016000 f i * CIL library *:* CIL module *
 0001:00015000       ??_EZMeetingDocsCtrlEvent@@UEAAPEAXI@Z 0000000180016000 f i * CIL library *:* CIL module *
 0001:00015000       ??_EZMeetingH323CtrlWrapEvent@@UEAAPEAXI@Z 0000000180016000 f i * CIL library *:* CIL module *
 0001:00015000       ??_EZMeetingIndicatorCtrlEvent@@UEAAPEAXI@Z 0000000180016000 f i * CIL library *:* CIL module *
 0001:00015000       ??_EZMeetingReminderCtrlEvent@@UEAAPEAXI@Z 0000000180016000 f i * CIL library *:* CIL module *
 0001:00015000       ??_EZMeetingWhiteboardCtrlEvent@@UEAAPEAXI@Z 0000000180016000 f i * CIL library *:* CIL module *
 0001:00015000       ??_EZVideoSettingContextWrapEvent@@UEAAPEAXI@Z 0000000180016000 f i * CIL library *:* CIL module *
 0001:00015000       ??_GZDirectShareHelperWrapEvent@@UEAAPEAXI@Z 0000000180016000 f i auth_service_wrap_core.obj
 0001:00015000       ??_GZMeetingDocsCtrlEvent@@UEAAPEAXI@Z 0000000180016000 f i auth_service_wrap_core.obj
 0001:00015000       ??_GZMeetingH323CtrlWrapEvent@@UEAAPEAXI@Z 0000000180016000 f i auth_service_wrap_core.obj
 0001:00015000       ??_GZMeetingIndicatorCtrlEvent@@UEAAPEAXI@Z 0000000180016000 f i auth_service_wrap_core.obj
 0001:00015000       ??_GZMeetingReminderCtrlEvent@@UEAAPEAXI@Z 0000000180016000 f i auth_service_wrap_core.obj
 0001:00015000       ??_GZMeetingWhiteboardCtrlEvent@@UEAAPEAXI@Z 0000000180016000 f i auth_service_wrap_core.obj
 0001:00015000       ??_GZVideoSettingContextWrapEvent@@UEAAPEAXI@Z 0000000180016000 f i auth_service_wrap_core.obj
 0001:00015030       ??_EZMeetingChatCtrlEvent@@UEAAPEAXI@Z 0000000180016030 f i * CIL library *:* CIL module *
 0001:00015030       ??_EZMeetingPollingCtrlEvent@@UEAAPEAXI@Z 0000000180016030 f i * CIL library *:* CIL module *
 0001:00015030       ??_GZMeetingChatCtrlEvent@@UEAAPEAXI@Z 0000000180016030 f i auth_service_wrap_core.obj
 0001:00015030       ??_GZMeetingPollingCtrlEvent@@UEAAPEAXI@Z 0000000180016030 f i auth_service_wrap_core.obj
 0001:00015060       ??_EZMeetingWaitingRoomCtrlEvent@@UEAAPEAXI@Z 0000000180016060 f i * CIL library *:* CIL module *
 0001:00015060       ??_GZMeetingWaitingRoomCtrlEvent@@UEAAPEAXI@Z 0000000180016060 f i auth_service_wrap_core.obj
 0001:00015090       ??_EZMeetingAICompanionCtrlEvent@@UEAAPEAXI@Z 0000000180016090 f i * CIL library *:* CIL module *
 0001:00015090       ??_GZMeetingAICompanionCtrlEvent@@UEAAPEAXI@Z 0000000180016090 f i auth_service_wrap_core.obj
 0001:000150c0       ??_EZMeetingAICompanionSmartSummaryEvent@@UEAAPEAXI@Z 00000001800160c0 f i * CIL library *:* CIL module *
 0001:000150c0       ??_GZMeetingAICompanionSmartSummaryEvent@@UEAAPEAXI@Z 00000001800160c0 f i auth_service_wrap_core.obj
 0001:000150f0       ??_EZZoomRealNameAuthMeetingWrapEvent@@UEAAPEAXI@Z 00000001800160f0 f i * CIL library *:* CIL module *
 0001:000150f0       ??_GZZoomRealNameAuthMeetingWrapEvent@@UEAAPEAXI@Z 00000001800160f0 f i auth_service_wrap_core.obj
 0001:00015120       ??_EZAudioSettingContextWrapEvent@@UEAAPEAXI@Z 0000000180016120 f i * CIL library *:* CIL module *
 0001:00015120       ??_EZMeetingEmojiReactionControllerEvent@@UEAAPEAXI@Z 0000000180016120 f i * CIL library *:* CIL module *
 0001:00015120       ??_GZAudioSettingContextWrapEvent@@UEAAPEAXI@Z 0000000180016120 f i auth_service_wrap_core.obj
 0001:00015120       ??_GZMeetingEmojiReactionControllerEvent@@UEAAPEAXI@Z 0000000180016120 f i auth_service_wrap_core.obj
 0001:00015150       ??_EZRecordingSettingContextWrapEvent@@UEAAPEAXI@Z 0000000180016150 f i * CIL library *:* CIL module *
 0001:00015150       ??_GZRecordingSettingContextWrapEvent@@UEAAPEAXI@Z 0000000180016150 f i auth_service_wrap_core.obj
 0001:00015180       ??_EZMeetingQACtrlEvent@@UEAAPEAXI@Z 0000000180016180 f i * CIL library *:* CIL module *
 0001:00015180       ??_GZMeetingQACtrlEvent@@UEAAPEAXI@Z 0000000180016180 f i auth_service_wrap_core.obj
 0001:000151b0       ??_EZAuthServiceWrap@@UEAAPEAXI@Z 00000001800161b0 f i * CIL library *:* CIL module *
 0001:000151b0       ??_GZAuthServiceWrap@@UEAAPEAXI@Z 00000001800161b0 f i auth_service_wrap_core.obj
 0001:000151f0       ??1ZAuthServiceWrap@@UEAA@XZ 00000001800161f0 f   auth_service_wrap_core.obj
 0001:000152e0       ??0?$vector@V?$basic_string@_WU?$char_traits@_W@std@@V?$allocator@_W@2@@std@@V?$allocator@V?$basic_string@_WU?$char_traits@_W@std@@V?$allocator@_W@2@@std@@@2@@std@@QEAA@AEBV01@@Z 00000001800162e0 f i auth_service_wrap_core.obj
 0001:000153f0       ??0?$vector@IV?$allocator@I@std@@@std@@QEAA@AEBV01@@Z 00000001800163f0 f i auth_service_wrap_core.obj
 0001:000153f0       ??0?$vector@W4ZNAICompanionFeature@@V?$allocator@W4ZNAICompanionFeature@@@std@@@std@@QEAA@AEBV01@@Z 00000001800163f0 f i auth_service_wrap_core.obj
 0001:000154e0       ??0?$vector@UZNRawLiveStreamInfo@@V?$allocator@UZNRawLiveStreamInfo@@@std@@@std@@QEAA@AEBV01@@Z 00000001800164e0 f i auth_service_wrap_core.obj
 0001:00015600       ??0?$vector@U_ZNCameraInfo@@V?$allocator@U_ZNCameraInfo@@@std@@@std@@QEAA@AEBV01@@Z 0000000180016600 f i auth_service_wrap_core.obj
 0001:00015600       ??0?$vector@U_ZNMicInfo@@V?$allocator@U_ZNMicInfo@@@std@@@std@@QEAA@AEBV01@@Z 0000000180016600 f i auth_service_wrap_core.obj
 0001:00015600       ??0?$vector@U_ZNSpeakerInfo@@V?$allocator@U_ZNSpeakerInfo@@@std@@@std@@QEAA@AEBV01@@Z 0000000180016600 f i auth_service_wrap_core.obj
 0001:00015730       ??0?$vector@U_ZNZoomRealNameAuthCountryInfo@@V?$allocator@U_ZNZoomRealNameAuthCountryInfo@@@std@@@std@@QEAA@AEBV01@@Z 0000000180016730 f i auth_service_wrap_core.obj
 0001:00015860       ??0?$vector@U_ZNUserAudioStatus@@V?$allocator@U_ZNUserAudioStatus@@@std@@@std@@QEAA@AEBV01@@Z 0000000180016860 f i auth_service_wrap_core.obj
 0001:00015950       ?_Tidy@?$vector@V?$basic_string@_WU?$char_traits@_W@std@@V?$allocator@_W@2@@std@@V?$allocator@V?$basic_string@_WU?$char_traits@_W@std@@V?$allocator@_W@2@@std@@@2@@std@@AEAAXXZ 0000000180016950 f i auth_service_wrap_core.obj
 0001:000159e0       ?_Tidy@?$vector@UZNRawLiveStreamInfo@@V?$allocator@UZNRawLiveStreamInfo@@@std@@@std@@AEAAXXZ 00000001800169e0 f i auth_service_wrap_core.obj
 0001:000159e0       ?_Tidy@?$vector@U_ZNRichTextStyleOffset@@V?$allocator@U_ZNRichTextStyleOffset@@@std@@@std@@AEAAXXZ 00000001800169e0 f i auth_service_wrap_core.obj
 0001:00015aa0       ?_Tidy@?$vector@U_ZNCameraInfo@@V?$allocator@U_ZNCameraInfo@@@std@@@std@@AEAAXXZ 0000000180016aa0 f i auth_service_wrap_core.obj
 0001:00015aa0       ?_Tidy@?$vector@U_ZNMicInfo@@V?$allocator@U_ZNMicInfo@@@std@@@std@@AEAAXXZ 0000000180016aa0 f i auth_service_wrap_core.obj
 0001:00015aa0       ?_Tidy@?$vector@U_ZNSpeakerInfo@@V?$allocator@U_ZNSpeakerInfo@@@std@@@std@@AEAAXXZ 0000000180016aa0 f i auth_service_wrap_core.obj
 0001:00015b60       ?_Tidy@?$vector@U_ZNZoomRealNameAuthCountryInfo@@V?$allocator@U_ZNZoomRealNameAuthCountryInfo@@@std@@@std@@AEAAXXZ 0000000180016b60 f i auth_service_wrap_core.obj
 0001:00015c30       ?_Tidy@?$vector@U_ZNRichTextStyleItem@@V?$allocator@U_ZNRichTextStyleItem@@@std@@@std@@AEAAXXZ 0000000180016c30 f i auth_service_wrap_core.obj
 0001:00015cc0       ?_Xlength@?$vector@IV?$allocator@I@std@@@std@@CAXXZ 0000000180016cc0 f i auth_service_wrap_core.obj
 0001:00015cc0       ?_Xlength@?$vector@UZNRawLiveStreamInfo@@V?$allocator@UZNRawLiveStreamInfo@@@std@@@std@@CAXXZ 0000000180016cc0 f i auth_service_wrap_core.obj
 0001:00015cc0       ?_Xlength@?$vector@U_ZNAnswerItem@@V?$allocator@U_ZNAnswerItem@@@std@@@std@@CAXXZ 0000000180016cc0 f i meeting_qa_wrap_core.obj
 0001:00015cc0       ?_Xlength@?$vector@U_ZNCameraInfo@@V?$allocator@U_ZNCameraInfo@@@std@@@std@@CAXXZ 0000000180016cc0 f i auth_service_wrap_core.obj
 0001:00015cc0       ?_Xlength@?$vector@U_ZNH323DeviecInfo@@V?$allocator@U_ZNH323DeviecInfo@@@std@@@std@@CAXXZ 0000000180016cc0 f i meeting_h323_wrap_core.obj
 0001:00015cc0       ?_Xlength@?$vector@U_ZNMicInfo@@V?$allocator@U_ZNMicInfo@@@std@@@std@@CAXXZ 0000000180016cc0 f i auth_service_wrap_core.obj
 0001:00015cc0       ?_Xlength@?$vector@U_ZNQAItemInfo@@V?$allocator@U_ZNQAItemInfo@@@std@@@std@@CAXXZ 0000000180016cc0 f i meeting_qa_wrap_core.obj
 0001:00015cc0       ?_Xlength@?$vector@U_ZNRichTextStyleItem@@V?$allocator@U_ZNRichTextStyleItem@@@std@@@std@@CAXXZ 0000000180016cc0 f i auth_service_wrap_core.obj
 0001:00015cc0       ?_Xlength@?$vector@U_ZNRichTextStyleOffset@@V?$allocator@U_ZNRichTextStyleOffset@@@std@@@std@@CAXXZ 0000000180016cc0 f i auth_service_wrap_core.obj
 0001:00015cc0       ?_Xlength@?$vector@U_ZNSDKPollingAnswerItem@@V?$allocator@U_ZNSDKPollingAnswerItem@@@std@@@std@@CAXXZ 0000000180016cc0 f i meeting_polling_wrap_core.obj
 0001:00015cc0       ?_Xlength@?$vector@U_ZNSDKPollingAnswerResultItem@@V?$allocator@U_ZNSDKPollingAnswerResultItem@@@std@@@std@@CAXXZ 0000000180016cc0 f i meeting_polling_wrap_core.obj
 0001:00015cc0       ?_Xlength@?$vector@U_ZNSDKPollingItem@@V?$allocator@U_ZNSDKPollingItem@@@std@@@std@@CAXXZ 0000000180016cc0 f i meeting_polling_wrap_core.obj
 0001:00015cc0       ?_Xlength@?$vector@U_ZNSDKPollingQuestionItem@@V?$allocator@U_ZNSDKPollingQuestionItem@@@std@@@std@@CAXXZ 0000000180016cc0 f i meeting_polling_wrap_core.obj
 0001:00015cc0       ?_Xlength@?$vector@U_ZNSpeakerInfo@@V?$allocator@U_ZNSpeakerInfo@@@std@@@std@@CAXXZ 0000000180016cc0 f i auth_service_wrap_core.obj
 0001:00015cc0       ?_Xlength@?$vector@U_ZNUserAudioStatus@@V?$allocator@U_ZNUserAudioStatus@@@std@@@std@@CAXXZ 0000000180016cc0 f i auth_service_wrap_core.obj
 0001:00015cc0       ?_Xlength@?$vector@U_ZNZoomRealNameAuthCountryInfo@@V?$allocator@U_ZNZoomRealNameAuthCountryInfo@@@std@@@std@@CAXXZ 0000000180016cc0 f i auth_service_wrap_core.obj
 0001:00015cc0       ?_Xlength@?$vector@U_ZNZoomSDKDocSharingSourceInfo@@V?$allocator@U_ZNZoomSDKDocSharingSourceInfo@@@std@@@std@@CAXXZ 0000000180016cc0 f i meeting_docs_wrap_core.obj
 0001:00015cc0       ?_Xlength@?$vector@UtagVirtualBGImageInfo@@V?$allocator@UtagVirtualBGImageInfo@@@std@@@std@@CAXXZ 0000000180016cc0 f i setting_virtual_bg_wrap_core.obj
 0001:00015cc0       ?_Xlength@?$vector@UtagWallpaperItem@@V?$allocator@UtagWallpaperItem@@@std@@@std@@CAXXZ 0000000180016cc0 f i setting_wallpaper_wrap_core.obj
 0001:00015cc0       ?_Xlength@?$vector@V?$basic_string@_WU?$char_traits@_W@std@@V?$allocator@_W@2@@std@@V?$allocator@V?$basic_string@_WU?$char_traits@_W@std@@V?$allocator@_W@2@@std@@@2@@std@@CAXXZ 0000000180016cc0 f i auth_service_wrap_core.obj
 0001:00015cc0       ?_Xlength@?$vector@W4ZNAICompanionFeature@@V?$allocator@W4ZNAICompanionFeature@@@std@@@std@@CAXXZ 0000000180016cc0 f i auth_service_wrap_core.obj
 0001:00015cc0       ?_Xlength@?$vector@_JV?$allocator@_J@std@@@std@@CAXXZ 0000000180016cc0 f i meeting_live_stream_wrap_core.obj
 0001:00015ce0       ?_Buy_raw@?$vector@U_ZNRichTextStyleItem@@V?$allocator@U_ZNRichTextStyleItem@@@std@@@std@@AEAAX_K@Z 0000000180016ce0 f i auth_service_wrap_core.obj
 0001:00015d70       ?allocate@?$allocator@I@std@@QEAAPEAI_K@Z 0000000180016d70 f i auth_service_wrap_core.obj
 0001:00015d70       ?allocate@?$allocator@W4ZNAICompanionFeature@@@std@@QEAAPEAW4ZNAICompanionFeature@@_K@Z 0000000180016d70 f i auth_service_wrap_core.obj
 0001:00015de0       ??$_Emplace_reallocate@V?$basic_string@_WU?$char_traits@_W@std@@V?$allocator@_W@2@@std@@@?$vector@V?$basic_string@_WU?$char_traits@_W@std@@V?$allocator@_W@2@@std@@V?$allocator@V?$basic_string@_WU?$char_traits@_W@std@@V?$allocator@_W@2@@std@@@2@@std@@AEAAPEAV?$basic_string@_WU?$char_traits@_W@std@@V?$allocator@_W@2@@1@QEAV21@$$QEAV21@@Z 0000000180016de0 f i auth_service_wrap_core.obj
 0001:00016090       ??$_Emplace_reallocate@AEBUZNRawLiveStreamInfo@@@?$vector@UZNRawLiveStreamInfo@@V?$allocator@UZNRawLiveStreamInfo@@@std@@@std@@AEAAPEAUZNRawLiveStreamInfo@@QEAU2@AEBU2@@Z 0000000180017090 f i auth_service_wrap_core.obj
 0001:000163e0       ??$_Emplace_reallocate@AEBU_ZNCameraInfo@@@?$vector@U_ZNCameraInfo@@V?$allocator@U_ZNCameraInfo@@@std@@@std@@AEAAPEAU_ZNCameraInfo@@QEAU2@AEBU2@@Z 00000001800173e0 f i auth_service_wrap_core.obj
 0001:000163e0       ??$_Emplace_reallocate@AEBU_ZNMicInfo@@@?$vector@U_ZNMicInfo@@V?$allocator@U_ZNMicInfo@@@std@@@std@@AEAAPEAU_ZNMicInfo@@QEAU2@AEBU2@@Z 00000001800173e0 f i auth_service_wrap_core.obj
 0001:000163e0       ??$_Emplace_reallocate@AEBU_ZNSpeakerInfo@@@?$vector@U_ZNSpeakerInfo@@V?$allocator@U_ZNSpeakerInfo@@@std@@@std@@AEAAPEAU_ZNSpeakerInfo@@QEAU2@AEBU2@@Z 00000001800173e0 f i auth_service_wrap_core.obj
 0001:00016620       ??$_Emplace_reallocate@AEBU_ZNZoomRealNameAuthCountryInfo@@@?$vector@U_ZNZoomRealNameAuthCountryInfo@@V?$allocator@U_ZNZoomRealNameAuthCountryInfo@@@std@@@std@@AEAAPEAU_ZNZoomRealNameAuthCountryInfo@@QEAU2@AEBU2@@Z 0000000180017620 f i auth_service_wrap_core.obj
 0001:00016870       ??$_Emplace_reallocate@AEBU_ZNUserAudioStatus@@@?$vector@U_ZNUserAudioStatus@@V?$allocator@U_ZNUserAudioStatus@@@std@@@std@@AEAAPEAU_ZNUserAudioStatus@@QEAU2@AEBU2@@Z 0000000180017870 f i auth_service_wrap_core.obj
 0001:00016870       ??$_Emplace_reallocate@AEB_J@?$vector@_JV?$allocator@_J@std@@@std@@AEAAPEA_JQEA_JAEB_J@Z 0000000180017870 f i meeting_live_stream_wrap_core.obj
 0001:00016a10       ??$_Emplace_reallocate@AEBI@?$vector@IV?$allocator@I@std@@@std@@AEAAPEAIQEAIAEBI@Z 0000000180017a10 f i auth_service_wrap_core.obj
 0001:00016a10       ??$_Emplace_reallocate@I@?$vector@IV?$allocator@I@std@@@std@@AEAAPEAIQEAI$$QEAI@Z 0000000180017a10 f i meeting_live_stream_wrap_core.obj
 0001:00016bb0       ??$_Uninitialized_move@PEAU_ZNCameraInfo@@V?$allocator@U_ZNCameraInfo@@@std@@@std@@YAPEAU_ZNCameraInfo@@QEAU1@0PEAU1@AEAV?$allocator@U_ZNCameraInfo@@@0@@Z 0000000180017bb0 f i auth_service_wrap_core.obj
 0001:00016bb0       ??$_Uninitialized_move@PEAU_ZNMicInfo@@V?$allocator@U_ZNMicInfo@@@std@@@std@@YAPEAU_ZNMicInfo@@QEAU1@0PEAU1@AEAV?$allocator@U_ZNMicInfo@@@0@@Z 0000000180017bb0 f i auth_service_wrap_core.obj
 0001:00016bb0       ??$_Uninitialized_move@PEAU_ZNSpeakerInfo@@V?$allocator@U_ZNSpeakerInfo@@@std@@@std@@YAPEAU_ZNSpeakerInfo@@QEAU1@0PEAU1@AEAV?$allocator@U_ZNSpeakerInfo@@@0@@Z 0000000180017bb0 f i auth_service_wrap_core.obj
 0001:00016c60       ??$_Uninitialized_move@PEAU_ZNZoomRealNameAuthCountryInfo@@V?$allocator@U_ZNZoomRealNameAuthCountryInfo@@@std@@@std@@YAPEAU_ZNZoomRealNameAuthCountryInfo@@QEAU1@0PEAU1@AEAV?$allocator@U_ZNZoomRealNameAuthCountryInfo@@@0@@Z 0000000180017c60 f i auth_service_wrap_core.obj
 0001:00016d50       ??0?$vector@U_ZNRichTextStyleOffset@@V?$allocator@U_ZNRichTextStyleOffset@@@std@@@std@@QEAA@AEBV01@@Z 0000000180017d50 f i auth_service_wrap_core.obj
 0001:00016e30       ?allocate@?$allocator@U_ZNRichTextStyleOffset@@@std@@QEAAPEAU_ZNRichTextStyleOffset@@_K@Z 0000000180017e30 f i auth_service_wrap_core.obj
 0001:00016eb0       __local_stdio_scanf_options 0000000180017eb0 f i meeting_service_wrap_core.obj
 0001:00016ec0       swscanf_s                  0000000180017ec0 f i meeting_service_wrap_core.obj
 0001:00016f20       ??_EZCustomizedResourceWrap@@UEAAPEAXI@Z 0000000180017f20 f i * CIL library *:* CIL module *
 0001:00016f20       ??_EZMeetingInfoWrap@@UEAAPEAXI@Z 0000000180017f20 f i * CIL library *:* CIL module *
 0001:00016f20       ??_EZRequestRawLiveStreamPrivilegeHandlerWrap@@UEAAPEAXI@Z 0000000180017f20 f i * CIL library *:* CIL module *
 0001:00016f20       ??_EZSettingAccessibilityWrap@@UEAAPEAXI@Z 0000000180017f20 f i * CIL library *:* CIL module *
 0001:00016f20       ??_EZSettingGeneralWrap@@UEAAPEAXI@Z 0000000180017f20 f i * CIL library *:* CIL module *
 0001:00016f20       ??_EZSettingShareWrap@@UEAAPEAXI@Z 0000000180017f20 f i * CIL library *:* CIL module *
 0001:00016f20       ??_EZSettingStatisticWrap@@UEAAPEAXI@Z 0000000180017f20 f i * CIL library *:* CIL module *
 0001:00016f20       ??_EZSettingUIStrategyWrap@@UEAAPEAXI@Z 0000000180017f20 f i * CIL library *:* CIL module *
 0001:00016f20       ??_GZCustomizedResourceWrap@@UEAAPEAXI@Z 0000000180017f20 f i customized_resource_wrap_core.obj
 0001:00016f20       ??_GZMeetingInfoWrap@@UEAAPEAXI@Z 0000000180017f20 f i meeting_service_wrap_core.obj
 0001:00016f20       ??_GZRequestRawLiveStreamPrivilegeHandlerWrap@@UEAAPEAXI@Z 0000000180017f20 f i meeting_live_stream_wrap_core.obj
 0001:00016f20       ??_GZSettingAccessibilityWrap@@UEAAPEAXI@Z 0000000180017f20 f i setting_accessibility_wrap_core.obj
 0001:00016f20       ??_GZSettingGeneralWrap@@UEAAPEAXI@Z 0000000180017f20 f i setting_general_wrap_core.obj
 0001:00016f20       ??_GZSettingShareWrap@@UEAAPEAXI@Z 0000000180017f20 f i setting_share_wrap_core.obj
 0001:00016f20       ??_GZSettingStatisticWrap@@UEAAPEAXI@Z 0000000180017f20 f i setting_statistic_wrap_core.obj
 0001:00016f20       ??_GZSettingUIStrategyWrap@@UEAAPEAXI@Z 0000000180017f20 f i setting_ui_strategy_wrap_core.obj
 0001:00016f50       ??0ZMeetingServiceWrap@@QEAA@XZ 0000000180017f50 f   meeting_service_wrap_core.obj
 0001:000172d0       ??_EZMeetingServiceWrap@@UEAAPEAXI@Z 00000001800182d0 f i * CIL library *:* CIL module *
 0001:000172d0       ??_GZMeetingServiceWrap@@UEAAPEAXI@Z 00000001800182d0 f i meeting_service_wrap_core.obj
 0001:00017310       ??1ZMeetingServiceWrap@@UEAA@XZ 0000000180018310 f   meeting_service_wrap_core.obj
 0001:000175c0       ?Start_WithoutLogin@ZMeetingServiceWrap@@QEAA?AW4ZNSDKError@@U_ZNStartParam@@@Z 00000001800185c0 f   meeting_service_wrap_core.obj
 0001:00017830       ?Join@ZMeetingServiceWrap@@QEAA?AW4ZNSDKError@@U_ZNJoinParam@@@Z 0000000180018830 f   meeting_service_wrap_core.obj
 0001:00017a50       ??1_ZNJoinParam@@QEAA@XZ   0000000180018a50 f i meeting_service_wrap_core.obj
 0001:00017af0       ?Join_WithoutLogin@ZMeetingServiceWrap@@QEAA?AW4ZNSDKError@@U_ZNJoinParam@@@Z 0000000180018af0 f   meeting_service_wrap_core.obj
 0001:00017d20       ??_EZMeetingUICtrlWrap@@UEAAPEAXI@Z 0000000180018d20 f i * CIL library *:* CIL module *
 0001:00017d20       ??_GZMeetingUICtrlWrap@@UEAAPEAXI@Z 0000000180018d20 f i meeting_service_wrap_core.obj
 0001:00017d60       ??1ZMeetingUICtrlWrap@@UEAA@XZ 0000000180018d60 f   meeting_service_wrap_core.obj
 0001:00017f30       ?Init@ZMeetingUICtrlWrap@@QEAAXXZ 0000000180018f30 f   meeting_service_wrap_core.obj
 0001:00018110       ?ShowChatDlg@ZMeetingUICtrlWrap@@QEAA?AW4ZNSDKError@@U_ZNShowChatDlgParam@@@Z 0000000180019110 f   meeting_service_wrap_core.obj
 0001:00018320       ??_EZSettingServiceWrap@@UEAAPEAXI@Z 0000000180019320 f i * CIL library *:* CIL module *
 0001:00018320       ??_GZSettingServiceWrap@@UEAAPEAXI@Z 0000000180019320 f i setting_service_wrap_core.obj
 0001:00018360       ??1ZSettingServiceWrap@@UEAA@XZ 0000000180019360 f   setting_service_wrap_core.obj
 0001:00018470       ?Init@ZSettingServiceWrap@@QEAAXXZ 0000000180019470 f   setting_service_wrap_core.obj
 0001:00018ac0       ??_EZMeetingAnnotationWrap@@UEAAPEAXI@Z 0000000180019ac0 f i * CIL library *:* CIL module *
 0001:00018ac0       ??_GZMeetingAnnotationWrap@@UEAAPEAXI@Z 0000000180019ac0 f i meeting_annotation_wrap_core.obj
 0001:00018b00       ??1ZMeetingAnnotationWrap@@UEAA@XZ 0000000180019b00 f   meeting_annotation_wrap_core.obj
 0001:00018cd0       ?Init@ZMeetingAnnotationWrap@@QEAAXXZ 0000000180019cd0 f   meeting_annotation_wrap_core.obj
 0001:00018eb0       ?SetTool@ZMeetingAnnotationWrap@@QEAA?AW4ZNSDKError@@W4ZNSDKViewType@@W4ZNAnnotationToolType@@@Z 0000000180019eb0 f   meeting_annotation_wrap_core.obj
 0001:00019110       ?SetColor@ZMeetingAnnotationWrap@@QEAA?AW4ZNSDKError@@W4ZNSDKViewType@@V?$basic_string@_WU?$char_traits@_W@std@@V?$allocator@_W@2@@std@@@Z 000000018001a110 f   meeting_annotation_wrap_core.obj
 0001:00019330       ??_EZMeetingAudioWrap@@UEAAPEAXI@Z 000000018001a330 f i * CIL library *:* CIL module *
 0001:00019330       ??_GZMeetingAudioWrap@@UEAAPEAXI@Z 000000018001a330 f i meeting_audio_wrap_core.obj
 0001:00019370       ??1ZMeetingAudioWrap@@UEAA@XZ 000000018001a370 f   meeting_audio_wrap_core.obj
 0001:00019540       ?Init@ZMeetingAudioWrap@@QEAAXXZ 000000018001a540 f   meeting_audio_wrap_core.obj
 0001:00019720       ??_EZMeetingVideoWrap@@UEAAPEAXI@Z 000000018001a720 f i * CIL library *:* CIL module *
 0001:00019720       ??_GZMeetingVideoWrap@@UEAAPEAXI@Z 000000018001a720 f i meeting_video_wrap_core.obj
 0001:00019760       ??1ZMeetingVideoWrap@@UEAA@XZ 000000018001a760 f   meeting_video_wrap_core.obj
 0001:00019930       ?Init@ZMeetingVideoWrap@@QEAAXXZ 000000018001a930 f   meeting_video_wrap_core.obj
 0001:00019b10       ?MuteVideo@ZMeetingVideoWrap@@QEAA?AW4ZNSDKError@@I@Z 000000018001ab10 f   meeting_video_wrap_core.obj
 0001:00019dc0       ?UnMuteVideo@ZMeetingVideoWrap@@QEAA?AW4ZNSDKError@@I@Z 000000018001adc0 f   meeting_video_wrap_core.obj
 0001:0001a070       ?stoi@std@@YAHAEBV?$basic_string@_WU?$char_traits@_W@std@@V?$allocator@_W@2@@1@PEA_KH@Z 000000018001b070 f i meeting_share_wrap_core.obj
 0001:0001a0f0       ??_EZMeetingShareWrap@@UEAAPEAXI@Z 000000018001b0f0 f i * CIL library *:* CIL module *
 0001:0001a0f0       ??_GZMeetingShareWrap@@UEAAPEAXI@Z 000000018001b0f0 f i meeting_share_wrap_core.obj
 0001:0001a130       ??1ZMeetingShareWrap@@UEAA@XZ 000000018001b130 f   meeting_share_wrap_core.obj
 0001:0001a300       ?Init@ZMeetingShareWrap@@QEAAXXZ 000000018001b300 f   meeting_share_wrap_core.obj
 0001:0001a4e0       ?StartAppShare@ZMeetingShareWrap@@QEAA?AW4ZNSDKError@@V?$basic_string@_WU?$char_traits@_W@std@@V?$allocator@_W@2@@std@@@Z 000000018001b4e0 f   meeting_share_wrap_core.obj
 0001:0001a6f0       ?StartMonitorShare@ZMeetingShareWrap@@QEAA?AW4ZNSDKError@@V?$basic_string@_WU?$char_traits@_W@std@@V?$allocator@_W@2@@std@@@Z 000000018001b6f0 f   meeting_share_wrap_core.obj
 0001:0001a910       ??_EZMeetingConfigWrap@@UEAAPEAXI@Z 000000018001b910 f i * CIL library *:* CIL module *
 0001:0001a910       ??_GZMeetingConfigWrap@@UEAAPEAXI@Z 000000018001b910 f i meeting_config_wrap_core.obj
 0001:0001a950       ??1ZMeetingConfigWrap@@UEAA@XZ 000000018001b950 f   meeting_config_wrap_core.obj
 0001:0001ab30       ?Init@ZMeetingConfigWrap@@QEAAXXZ 000000018001bb30 f   meeting_config_wrap_core.obj
 0001:0001ad20       ?SetFloatVideoPos@ZMeetingConfigWrap@@QEAAXU_ZNWndPosition@@@Z 000000018001bd20 f   meeting_config_wrap_core.obj
 0001:0001aee0       ?SetSharingToolbarVisibility@ZMeetingConfigWrap@@QEAAX_N@Z 000000018001bee0 f   meeting_config_wrap_core.obj
 0001:0001afd0       ?SetMeetingUIPos@ZMeetingConfigWrap@@QEAAXU_ZNWndPosition@@@Z 000000018001bfd0 f   meeting_config_wrap_core.obj
 0001:0001b190       ??_EZMeetingParticipantsWrap@@UEAAPEAXI@Z 000000018001c190 f i * CIL library *:* CIL module *
 0001:0001b190       ??_GZMeetingParticipantsWrap@@UEAAPEAXI@Z 000000018001c190 f i meeting_participants_wrap_core.obj
 0001:0001b1d0       ??1ZMeetingParticipantsWrap@@UEAA@XZ 000000018001c1d0 f   meeting_participants_wrap_core.obj
 0001:0001b3a0       ?Init@ZMeetingParticipantsWrap@@QEAAXXZ 000000018001c3a0 f   meeting_participants_wrap_core.obj
 0001:0001b580       ?SetName@CustomizedH323Device@ZOOMSDK@@UEAAXPEB_W@Z 000000018001c580 f i meeting_h323_wrap_core.obj
 0001:0001b5b0       ?GetName@CustomizedH323Device@ZOOMSDK@@UEAAPEB_WXZ 000000018001c5b0 f i meeting_h323_wrap_core.obj
 0001:0001b5c0       ?SetIP@CustomizedH323Device@ZOOMSDK@@UEAAXPEB_W@Z 000000018001c5c0 f i meeting_h323_wrap_core.obj
 0001:0001b5f0       ?GetIP@CustomizedH323Device@ZOOMSDK@@UEAAPEB_WXZ 000000018001c5f0 f i meeting_h323_wrap_core.obj
 0001:0001b600       ?SetE164Num@CustomizedH323Device@ZOOMSDK@@UEAAXPEB_W@Z 000000018001c600 f i meeting_h323_wrap_core.obj
 0001:0001b630       ?GetE164Num@CustomizedH323Device@ZOOMSDK@@UEAAPEB_WXZ 000000018001c630 f i meeting_h323_wrap_core.obj
 0001:0001b640       ?SetDeviceType@CustomizedH323Device@ZOOMSDK@@UEAAXW4H323DeviceType@2@@Z 000000018001c640 f i meeting_h323_wrap_core.obj
 0001:0001b650       ?GetDeviceType@CustomizedH323Device@ZOOMSDK@@UEAA?AW4H323DeviceType@2@XZ 000000018001c650 f i meeting_h323_wrap_core.obj
 0001:0001b660       ?IsCustomizedH323Device@CustomizedH323Device@ZOOMSDK@@UEAA_NXZ 000000018001c660 f i meeting_h323_wrap_core.obj
 0001:0001b660       ?IsInitialized@AICompanionQueryFeedbackParams@proto@sdk@electron@com@@UEBA_NXZ 000000018001c660 f i electron_sdk.pb.obj
 0001:0001b660       ?IsInitialized@ActionConfirmEnableSmartRecordingParams@proto@sdk@electron@com@@UEBA_NXZ 000000018001c660 f i electron_sdk.pb.obj
 0001:0001b660       ?IsInitialized@AddBGImageParams@proto@sdk@electron@com@@UEBA_NXZ 000000018001c660 f i electron_sdk.pb.obj
 0001:0001b660       ?IsInitialized@AddBGVideoParams@proto@sdk@electron@com@@UEBA_NXZ 000000018001c660 f i electron_sdk.pb.obj
 0001:0001b660       ?IsInitialized@AddCustomizedPictureResourceParams@proto@sdk@electron@com@@UEBA_NXZ 000000018001c660 f i electron_sdk.pb.obj
 0001:0001b660       ?IsInitialized@AddCustomizedStringResourceParams@proto@sdk@electron@com@@UEBA_NXZ 000000018001c660 f i electron_sdk.pb.obj
 0001:0001b660       ?IsInitialized@AddCustomizedURLResourceParams@proto@sdk@electron@com@@UEBA_NXZ 000000018001c660 f i electron_sdk.pb.obj
 0001:0001b660       ?IsInitialized@AdmitToMeetingParams@proto@sdk@electron@com@@UEBA_NXZ 000000018001c660 f i electron_sdk.pb.obj
 0001:0001b660       ?IsInitialized@AgreeAICompanionFeatureSwitchParams@proto@sdk@electron@com@@UEBA_NXZ 000000018001c660 f i electron_sdk.pb.obj
 0001:0001b660       ?IsInitialized@AgreeToEnableAndStartSmartRecordingParams@proto@sdk@electron@com@@UEBA_NXZ 000000018001c660 f i electron_sdk.pb.obj
 0001:0001b660       ?IsInitialized@AllowLocalRecordingParams@proto@sdk@electron@com@@UEBA_NXZ 000000018001c660 f i electron_sdk.pb.obj
 0001:0001b660       ?IsInitialized@AllowParticipantsToRequestCloudRecordingParams@proto@sdk@electron@com@@UEBA_NXZ 000000018001c660 f i electron_sdk.pb.obj
 0001:0001b660       ?IsInitialized@AlwaysShowIconOnTaskBarParams@proto@sdk@electron@com@@UEBA_NXZ 000000018001c660 f i electron_sdk.pb.obj
 0001:0001b660       ?IsInitialized@AnswerIDParams@proto@sdk@electron@com@@UEBA_NXZ 000000018001c660 f i electron_sdk.pb.obj
 0001:0001b660       ?IsInitialized@AnswerQuestionParams@proto@sdk@electron@com@@UEBA_NXZ 000000018001c660 f i electron_sdk.pb.obj
 0001:0001b660       ?IsInitialized@AuthWithJwtTokenParams@proto@sdk@electron@com@@UEBA_NXZ 000000018001c660 f i electron_sdk.pb.obj
 0001:0001b660       ?IsInitialized@CallOutH323Params@proto@sdk@electron@com@@UEBA_NXZ 000000018001c660 f i electron_sdk.pb.obj
 0001:0001b660       ?IsInitialized@CanStartRecordingParams@proto@sdk@electron@com@@UEBA_NXZ 000000018001c660 f i electron_sdk.pb.obj
 0001:0001b660       ?IsInitialized@ChangeFloatToActiveSpkVideoSizeParams@proto@sdk@electron@com@@UEBA_NXZ 000000018001c660 f i electron_sdk.pb.obj
 0001:0001b660       ?IsInitialized@ChangeQuerySettingsParams@proto@sdk@electron@com@@UEBA_NXZ 000000018001c660 f i electron_sdk.pb.obj
 0001:0001b660       ?IsInitialized@ChatMessageIDParams@proto@sdk@electron@com@@UEBA_NXZ 000000018001c660 f i electron_sdk.pb.obj
 0001:0001b660       ?IsInitialized@ClearAnnotationParams@proto@sdk@electron@com@@UEBA_NXZ 000000018001c660 f i electron_sdk.pb.obj
 0001:0001b660       ?IsInitialized@ConfSettingDialogShownTabPageParams@proto@sdk@electron@com@@UEBA_NXZ 000000018001c660 f i electron_sdk.pb.obj
 0001:0001b660       ?IsInitialized@ConfigDSCPParams@proto@sdk@electron@com@@UEBA_NXZ 000000018001c660 f i electron_sdk.pb.obj
 0001:0001b660       ?IsInitialized@ConfigToShowUrlLinksInSettingParams@proto@sdk@electron@com@@UEBA_NXZ 000000018001c660 f i electron_sdk.pb.obj
 0001:0001b660       ?IsInitialized@CreateRendererParams@proto@sdk@electron@com@@UEBA_NXZ 000000018001c660 f i electron_sdk.pb.obj
 0001:0001b660       ?IsInitialized@DeclineEnableAndStartSmartRecordingParams@proto@sdk@electron@com@@UEBA_NXZ 000000018001c660 f i electron_sdk.pb.obj
 0001:0001b660       ?IsInitialized@DeclineEnableParams@proto@sdk@electron@com@@UEBA_NXZ 000000018001c660 f i electron_sdk.pb.obj
 0001:0001b660       ?IsInitialized@DeclineSendQueryParams@proto@sdk@electron@com@@UEBA_NXZ 000000018001c660 f i electron_sdk.pb.obj
 0001:0001b660       ?IsInitialized@DeleteMeetingParams@proto@sdk@electron@com@@UEBA_NXZ 000000018001c660 f i electron_sdk.pb.obj
 0001:0001b660       ?IsInitialized@DenyRequestStartCloudRecordingParams@proto@sdk@electron@com@@UEBA_NXZ 000000018001c660 f i electron_sdk.pb.obj
 0001:0001b660       ?IsInitialized@DestroyRendererParams@proto@sdk@electron@com@@UEBA_NXZ 000000018001c660 f i electron_sdk.pb.obj
 0001:0001b660       ?IsInitialized@DisAllowLocalRecordingParams@proto@sdk@electron@com@@UEBA_NXZ 000000018001c660 f i electron_sdk.pb.obj
 0001:0001b660       ?IsInitialized@DisableAccountSettingTabPageParams@proto@sdk@electron@com@@UEBA_NXZ 000000018001c660 f i electron_sdk.pb.obj
 0001:0001b660       ?IsInitialized@DisableAdvancedFeatures4GeneralSettingParams@proto@sdk@electron@com@@UEBA_NXZ 000000018001c660 f i electron_sdk.pb.obj
 0001:0001b660       ?IsInitialized@DisableAutoShowSelectJoinAudioDlgWhenJoinMeetingParams@proto@sdk@electron@com@@UEBA_NXZ 000000018001c660 f i electron_sdk.pb.obj
 0001:0001b660       ?IsInitialized@DisableFreeMeetingRemainTimeNotifyParams@proto@sdk@electron@com@@UEBA_NXZ 000000018001c660 f i electron_sdk.pb.obj
 0001:0001b660       ?IsInitialized@DisablePopupMeetingWrongPSWDlgParams@proto@sdk@electron@com@@UEBA_NXZ 000000018001c660 f i electron_sdk.pb.obj
 0001:0001b660       ?IsInitialized@DisableShowJoinMeetingWndParams@proto@sdk@electron@com@@UEBA_NXZ 000000018001c660 f i electron_sdk.pb.obj
 0001:0001b660       ?IsInitialized@DisableSplitScreenModeUIElementsParams@proto@sdk@electron@com@@UEBA_NXZ 000000018001c660 f i electron_sdk.pb.obj
 0001:0001b660       ?IsInitialized@DisableToolbarInviteButtonClickOriginActionParams@proto@sdk@electron@com@@UEBA_NXZ 000000018001c660 f i electron_sdk.pb.obj
 0001:0001b660       ?IsInitialized@DisableTopMostAttr4SettingDialogParams@proto@sdk@electron@com@@UEBA_NXZ 000000018001c660 f i electron_sdk.pb.obj
 0001:0001b660       ?IsInitialized@DisableWaitingForHostDialogParams@proto@sdk@electron@com@@UEBA_NXZ 000000018001c660 f i electron_sdk.pb.obj
 0001:0001b660       ?IsInitialized@EditMeetingParams@proto@sdk@electron@com@@UEBA_NXZ 000000018001c660 f i electron_sdk.pb.obj
 0001:0001b660       ?IsInitialized@EditMeetingWithWndParams@proto@sdk@electron@com@@UEBA_NXZ 000000018001c660 f i electron_sdk.pb.obj
 0001:0001b660       ?IsInitialized@Enable49VideoesInGallaryViewParams@proto@sdk@electron@com@@UEBA_NXZ 000000018001c660 f i electron_sdk.pb.obj
 0001:0001b660       ?IsInitialized@EnableAccelerateGPUWhenShareParams@proto@sdk@electron@com@@UEBA_NXZ 000000018001c660 f i electron_sdk.pb.obj
 0001:0001b660       ?IsInitialized@EnableAddTimestampWatermarkParams@proto@sdk@electron@com@@UEBA_NXZ 000000018001c660 f i electron_sdk.pb.obj
 0001:0001b660       ?IsInitialized@EnableAirplayInstructionWindowParams@proto@sdk@electron@com@@UEBA_NXZ 000000018001c660 f i electron_sdk.pb.obj
 0001:0001b660       ?IsInitialized@EnableAlwaysMuteMicWhenJoinVoipParams@proto@sdk@electron@com@@UEBA_NXZ 000000018001c660 f i electron_sdk.pb.obj
 0001:0001b660       ?IsInitialized@EnableAlwaysShowMeetingControlsParams@proto@sdk@electron@com@@UEBA_NXZ 000000018001c660 f i electron_sdk.pb.obj
 0001:0001b660       ?IsInitialized@EnableAlwaysShowNameOnVideoParams@proto@sdk@electron@com@@UEBA_NXZ 000000018001c660 f i electron_sdk.pb.obj
 0001:0001b660       ?IsInitialized@EnableApproveRemoteControlDlgParams@proto@sdk@electron@com@@UEBA_NXZ 000000018001c660 f i electron_sdk.pb.obj
 0001:0001b660       ?IsInitialized@EnableAudioButtonOnMeetingUIParams@proto@sdk@electron@com@@UEBA_NXZ 000000018001c660 f i electron_sdk.pb.obj
 0001:0001b660       ?IsInitialized@EnableAutoAdjustMicParams@proto@sdk@electron@com@@UEBA_NXZ 000000018001c660 f i electron_sdk.pb.obj
 0001:0001b660       ?IsInitialized@EnableAutoAdjustMicVolumeWhenJoinAudioParams@proto@sdk@electron@com@@UEBA_NXZ 000000018001c660 f i electron_sdk.pb.obj
 0001:0001b660       ?IsInitialized@EnableAutoAdjustSpeakerVolumeWhenJoinAudioParams@proto@sdk@electron@com@@UEBA_NXZ 000000018001c660 f i electron_sdk.pb.obj
 0001:0001b660       ?IsInitialized@EnableAutoEndOtherMeetingWhenStartMeetingParams@proto@sdk@electron@com@@UEBA_NXZ 000000018001c660 f i electron_sdk.pb.obj
 0001:0001b660       ?IsInitialized@EnableAutoFitToWindowWhenViewSharingParams@proto@sdk@electron@com@@UEBA_NXZ 000000018001c660 f i electron_sdk.pb.obj
 0001:0001b660       ?IsInitialized@EnableAutoFullScreenVideoWhenJoinMeetingParams@proto@sdk@electron@com@@UEBA_NXZ 000000018001c660 f i electron_sdk.pb.obj
 0001:0001b660       ?IsInitialized@EnableAutoFullScreenVideoWhenViewShareParams@proto@sdk@electron@com@@UEBA_NXZ 000000018001c660 f i electron_sdk.pb.obj
 0001:0001b660       ?IsInitialized@EnableAutoHideJoinAudioDialogParams@proto@sdk@electron@com@@UEBA_NXZ 000000018001c660 f i electron_sdk.pb.obj
 0001:0001b660       ?IsInitialized@EnableAutoJoinAudioParams@proto@sdk@electron@com@@UEBA_NXZ 000000018001c660 f i electron_sdk.pb.obj
 0001:0001b660       ?IsInitialized@EnableAutoTurnOffVideoWhenJoinMeetingParams@proto@sdk@electron@com@@UEBA_NXZ 000000018001c660 f i electron_sdk.pb.obj
 0001:0001b660       ?IsInitialized@EnableClaimHostFeatureParams@proto@sdk@electron@com@@UEBA_NXZ 000000018001c660 f i electron_sdk.pb.obj
 0001:0001b660       ?IsInitialized@EnableDeclineRemoteControlResponseDlgParams@proto@sdk@electron@com@@UEBA_NXZ 000000018001c660 f i electron_sdk.pb.obj
 0001:0001b660       ?IsInitialized@EnableDisplayReminderWindowWhenExitParams@proto@sdk@electron@com@@UEBA_NXZ 000000018001c660 f i electron_sdk.pb.obj
 0001:0001b660       ?IsInitialized@EnableDualScreenModeParams@proto@sdk@electron@com@@UEBA_NXZ 000000018001c660 f i electron_sdk.pb.obj
 0001:0001b660       ?IsInitialized@EnableEnterAndExitFullScreenButtonOnMeetingUIParams@proto@sdk@electron@com@@UEBA_NXZ 000000018001c660 f i electron_sdk.pb.obj
 0001:0001b660       ?IsInitialized@EnableFaceBeautyEffectParams@proto@sdk@electron@com@@UEBA_NXZ 000000018001c660 f i electron_sdk.pb.obj
 0001:0001b660       ?IsInitialized@EnableForceAutoStartMyVideoWhenJoinMeetingParams@proto@sdk@electron@com@@UEBA_NXZ 000000018001c660 f i electron_sdk.pb.obj
 0001:0001b660       ?IsInitialized@EnableForceAutoStopMyVideoWhenJoinMeetingParams@proto@sdk@electron@com@@UEBA_NXZ 000000018001c660 f i electron_sdk.pb.obj
 0001:0001b660       ?IsInitialized@EnableGrabShareWithoutReminderParams@proto@sdk@electron@com@@UEBA_NXZ 000000018001c660 f i electron_sdk.pb.obj
 0001:0001b660       ?IsInitialized@EnableHDVideoParams@proto@sdk@electron@com@@UEBA_NXZ 000000018001c660 f i electron_sdk.pb.obj
 0001:0001b660       ?IsInitialized@EnableHIdeFullPhoneNumber4PureCallinUserParams@proto@sdk@electron@com@@UEBA_NXZ 000000018001c660 f i electron_sdk.pb.obj
 0001:0001b660       ?IsInitialized@EnableHardwareEncodeParams@proto@sdk@electron@com@@UEBA_NXZ 000000018001c660 f i electron_sdk.pb.obj
 0001:0001b660       ?IsInitialized@EnableHideNoVideoUsersOnWallViewParams@proto@sdk@electron@com@@UEBA_NXZ 000000018001c660 f i electron_sdk.pb.obj
 0001:0001b660       ?IsInitialized@EnableHoldSpaceKeyToSpeakParams@proto@sdk@electron@com@@UEBA_NXZ 000000018001c660 f i electron_sdk.pb.obj
 0001:0001b660       ?IsInitialized@EnableInputMeetingPasswordDlgParams@proto@sdk@electron@com@@UEBA_NXZ 000000018001c660 f i electron_sdk.pb.obj
 0001:0001b660       ?IsInitialized@EnableInputMeetingScreenNameDlgParams@proto@sdk@electron@com@@UEBA_NXZ 000000018001c660 f i electron_sdk.pb.obj
 0001:0001b660       ?IsInitialized@EnableInviteButtonOnMeetingUIParams@proto@sdk@electron@com@@UEBA_NXZ 000000018001c660 f i electron_sdk.pb.obj
 0001:0001b660       ?IsInitialized@EnableInviteLinkOnMeetingUIParams@proto@sdk@electron@com@@UEBA_NXZ 000000018001c660 f i electron_sdk.pb.obj
 0001:0001b660       ?IsInitialized@EnableLButtonDBClick4SwitchFullScreenModeParams@proto@sdk@electron@com@@UEBA_NXZ 000000018001c660 f i electron_sdk.pb.obj
 0001:0001b660       ?IsInitialized@EnableLeaveMeetingOptionForHostParams@proto@sdk@electron@com@@UEBA_NXZ 000000018001c660 f i electron_sdk.pb.obj
 0001:0001b660       ?IsInitialized@EnableLengthLimitationOfMeetingNumberParams@proto@sdk@electron@com@@UEBA_NXZ 000000018001c660 f i electron_sdk.pb.obj
 0001:0001b660       ?IsInitialized@EnableLiveStreamReminderParams@proto@sdk@electron@com@@UEBA_NXZ 000000018001c660 f i electron_sdk.pb.obj
 0001:0001b660       ?IsInitialized@EnableLocalRecordingConverProgressBarDialogParams@proto@sdk@electron@com@@UEBA_NXZ 000000018001c660 f i electron_sdk.pb.obj
 0001:0001b660       ?IsInitialized@EnableMicOriginalInputParams@proto@sdk@electron@com@@UEBA_NXZ 000000018001c660 f i electron_sdk.pb.obj
 0001:0001b660       ?IsInitialized@EnableMultiAudioStreamRecordParams@proto@sdk@electron@com@@UEBA_NXZ 000000018001c660 f i electron_sdk.pb.obj
 0001:0001b660       ?IsInitialized@EnableMuteOnEntryParams@proto@sdk@electron@com@@UEBA_NXZ 000000018001c660 f i electron_sdk.pb.obj
 0001:0001b660       ?IsInitialized@EnableOptimizeFor3rdPartyVideoEditorParams@proto@sdk@electron@com@@UEBA_NXZ 000000018001c660 f i electron_sdk.pb.obj
 0001:0001b660       ?IsInitialized@EnableParticipantsCreateWithoutHostParams@proto@sdk@electron@com@@UEBA_NXZ 000000018001c660 f i electron_sdk.pb.obj
 0001:0001b660       ?IsInitialized@EnablePlaceVideoNextToShareInRecordParams@proto@sdk@electron@com@@UEBA_NXZ 000000018001c660 f i electron_sdk.pb.obj
 0001:0001b660       ?IsInitialized@EnablePlayChimeWhenEnterOrExitParams@proto@sdk@electron@com@@UEBA_NXZ 000000018001c660 f i electron_sdk.pb.obj
 0001:0001b660       ?IsInitialized@EnablePlayMeetingAudioParams@proto@sdk@electron@com@@UEBA_NXZ 000000018001c660 f i electron_sdk.pb.obj
 0001:0001b660       ?IsInitialized@EnableRemoteControlAllApplicationsParams@proto@sdk@electron@com@@UEBA_NXZ 000000018001c660 f i electron_sdk.pb.obj
 0001:0001b660       ?IsInitialized@EnableSelectRecordFileLocationAfterMeetingParams@proto@sdk@electron@com@@UEBA_NXZ 000000018001c660 f i electron_sdk.pb.obj
 0001:0001b660       ?IsInitialized@EnableShareIOSDeviceParams@proto@sdk@electron@com@@UEBA_NXZ 000000018001c660 f i electron_sdk.pb.obj
 0001:0001b660       ?IsInitialized@EnableShareWhiteBoardParams@proto@sdk@electron@com@@UEBA_NXZ 000000018001c660 f i electron_sdk.pb.obj
 0001:0001b660       ?IsInitialized@EnableShowMyMeetingElapseTimeParams@proto@sdk@electron@com@@UEBA_NXZ 000000018001c660 f i electron_sdk.pb.obj
 0001:0001b660       ?IsInitialized@EnableShowShareSwitchMultiToSingleConfirmDlgParams@proto@sdk@electron@com@@UEBA_NXZ 000000018001c660 f i electron_sdk.pb.obj
 0001:0001b660       ?IsInitialized@EnableShowVideoThumbnailWhenShareParams@proto@sdk@electron@com@@UEBA_NXZ 000000018001c660 f i electron_sdk.pb.obj
 0001:0001b660       ?IsInitialized@EnableSplitScreenModeParams@proto@sdk@electron@com@@UEBA_NXZ 000000018001c660 f i electron_sdk.pb.obj
 0001:0001b660       ?IsInitialized@EnableSpotlightSelfParams@proto@sdk@electron@com@@UEBA_NXZ 000000018001c660 f i electron_sdk.pb.obj
 0001:0001b660       ?IsInitialized@EnableStereoAudioParams@proto@sdk@electron@com@@UEBA_NXZ 000000018001c660 f i electron_sdk.pb.obj
 0001:0001b660       ?IsInitialized@EnableSuppressAudioNotifyParams@proto@sdk@electron@com@@UEBA_NXZ 000000018001c660 f i electron_sdk.pb.obj
 0001:0001b660       ?IsInitialized@EnableToolTipsShowParams@proto@sdk@electron@com@@UEBA_NXZ 000000018001c660 f i electron_sdk.pb.obj
 0001:0001b660       ?IsInitialized@EnableVideoButtonOnMeetingUIParams@proto@sdk@electron@com@@UEBA_NXZ 000000018001c660 f i electron_sdk.pb.obj
 0001:0001b660       ?IsInitialized@EnableVideoMirrorEffectParams@proto@sdk@electron@com@@UEBA_NXZ 000000018001c660 f i electron_sdk.pb.obj
 0001:0001b660       ?IsInitialized@EnableVideoPreviewDialogParams@proto@sdk@electron@com@@UEBA_NXZ 000000018001c660 f i electron_sdk.pb.obj
 0001:0001b660       ?IsInitialized@EnableWaitingRoomOnEntryParams@proto@sdk@electron@com@@UEBA_NXZ 000000018001c660 f i electron_sdk.pb.obj
 0001:0001b660       ?IsInitialized@EnableZoomAuthRealNameMeetingUIShownParams@proto@sdk@electron@com@@UEBA_NXZ 000000018001c660 f i electron_sdk.pb.obj
 0001:0001b660       ?IsInitialized@EnableZoomDocsParams@proto@sdk@electron@com@@UEBA_NXZ 000000018001c660 f i electron_sdk.pb.obj
 0001:0001b660       ?IsInitialized@EnterFullScreenParams@proto@sdk@electron@com@@UEBA_NXZ 000000018001c660 f i electron_sdk.pb.obj
 0001:0001b660       ?IsInitialized@ExitFullScreenParams@proto@sdk@electron@com@@UEBA_NXZ 000000018001c660 f i electron_sdk.pb.obj
 0001:0001b660       ?IsInitialized@ExpelUserParams@proto@sdk@electron@com@@UEBA_NXZ 000000018001c660 f i electron_sdk.pb.obj
 0001:0001b660       ?IsInitialized@ForceDisableMultiShareParams@proto@sdk@electron@com@@UEBA_NXZ 000000018001c660 f i electron_sdk.pb.obj
 0001:0001b660       ?IsInitialized@GenerateSSOLoginWebURLParams@proto@sdk@electron@com@@UEBA_NXZ 000000018001c660 f i electron_sdk.pb.obj
 0001:0001b660       ?IsInitialized@GetAuthorizedBotListByUserIDParams@proto@sdk@electron@com@@UEBA_NXZ 000000018001c660 f i electron_sdk.pb.obj
 0001:0001b660       ?IsInitialized@GetBotAuthorizedUserInfoByUserIDParams@proto@sdk@electron@com@@UEBA_NXZ 000000018001c660 f i electron_sdk.pb.obj
 0001:0001b660       ?IsInitialized@GetDocsSharingSourceInfoListParams@proto@sdk@electron@com@@UEBA_NXZ 000000018001c660 f i electron_sdk.pb.obj
 0001:0001b660       ?IsInitialized@GetLiveStreamItemInfoParams@proto@sdk@electron@com@@UEBA_NXZ 000000018001c660 f i electron_sdk.pb.obj
 0001:0001b660       ?IsInitialized@GetRawDataTypeParams@proto@sdk@electron@com@@UEBA_NXZ 000000018001c660 f i electron_sdk.pb.obj
 0001:0001b660       ?IsInitialized@GetResolutionParams@proto@sdk@electron@com@@UEBA_NXZ 000000018001c660 f i electron_sdk.pb.obj
 0001:0001b660       ?IsInitialized@GetSubscribeIdParams@proto@sdk@electron@com@@UEBA_NXZ 000000018001c660 f i electron_sdk.pb.obj
 0001:0001b660       ?IsInitialized@GetUserInfoByUserIDParams@proto@sdk@electron@com@@UEBA_NXZ 000000018001c660 f i electron_sdk.pb.obj
 0001:0001b660       ?IsInitialized@GetWaitingRoomUserInfoByIDParams@proto@sdk@electron@com@@UEBA_NXZ 000000018001c660 f i electron_sdk.pb.obj
 0001:0001b660       ?IsInitialized@GetWallpaperItemByIDParams@proto@sdk@electron@com@@UEBA_NXZ 000000018001c660 f i electron_sdk.pb.obj
 0001:0001b660       ?IsInitialized@HandleZoomWebUriProtocolActionParams@proto@sdk@electron@com@@UEBA_NXZ 000000018001c660 f i electron_sdk.pb.obj
 0001:0001b660       ?IsInitialized@HideAutoCopyInviteLinkCheckBoxParams@proto@sdk@electron@com@@UEBA_NXZ 000000018001c660 f i electron_sdk.pb.obj
 0001:0001b660       ?IsInitialized@HideChatItemOnMeetingUIParams@proto@sdk@electron@com@@UEBA_NXZ 000000018001c660 f i electron_sdk.pb.obj
 0001:0001b660       ?IsInitialized@HideCopyInvitationOnInviteWindowParams@proto@sdk@electron@com@@UEBA_NXZ 000000018001c660 f i electron_sdk.pb.obj
 0001:0001b660       ?IsInitialized@HideCopyUrlOnInviteWindowParams@proto@sdk@electron@com@@UEBA_NXZ 000000018001c660 f i electron_sdk.pb.obj
 0001:0001b660       ?IsInitialized@HideKeypadButtonOnMeetingWindowParams@proto@sdk@electron@com@@UEBA_NXZ 000000018001c660 f i electron_sdk.pb.obj
 0001:0001b660       ?IsInitialized@HideOrShowNoVideoUserOnVideoWallParams@proto@sdk@electron@com@@UEBA_NXZ 000000018001c660 f i electron_sdk.pb.obj
 0001:0001b660       ?IsInitialized@HidePollOnMeetingUIParams@proto@sdk@electron@com@@UEBA_NXZ 000000018001c660 f i electron_sdk.pb.obj
 0001:0001b660       ?IsInitialized@HideQAOnMeetingUIParams@proto@sdk@electron@com@@UEBA_NXZ 000000018001c660 f i electron_sdk.pb.obj
 0001:0001b660       ?IsInitialized@HideRecordItemOnMeetingUIParams@proto@sdk@electron@com@@UEBA_NXZ 000000018001c660 f i electron_sdk.pb.obj
 0001:0001b660       ?IsInitialized@HideRemoteControlOnMeetingUIParams@proto@sdk@electron@com@@UEBA_NXZ 000000018001c660 f i electron_sdk.pb.obj
 0001:0001b660       ?IsInitialized@HideSwitchCameraButtonParams@proto@sdk@electron@com@@UEBA_NXZ 000000018001c660 f i electron_sdk.pb.obj
 0001:0001b660       ?IsInitialized@HideUpgradeFreeMeetingButtonParams@proto@sdk@electron@com@@UEBA_NXZ 000000018001c660 f i electron_sdk.pb.obj
 0001:0001b660       ?IsInitialized@InitSDKParams@proto@sdk@electron@com@@UEBA_NXZ 000000018001c660 f i electron_sdk.pb.obj
 0001:0001b660       ?IsInitialized@InputMeetingIDAndScreenNameParams@proto@sdk@electron@com@@UEBA_NXZ 000000018001c660 f i electron_sdk.pb.obj
 0001:0001b660       ?IsInitialized@InputMeetingPasswordAndScreenNameParams@proto@sdk@electron@com@@UEBA_NXZ 000000018001c660 f i electron_sdk.pb.obj
 0001:0001b660       ?IsInitialized@InputMeetingScreenNameParams@proto@sdk@electron@com@@UEBA_NXZ 000000018001c660 f i electron_sdk.pb.obj
 0001:0001b660       ?IsInitialized@InputScreenNameParams@proto@sdk@electron@com@@UEBA_NXZ 000000018001c660 f i electron_sdk.pb.obj
 0001:0001b660       ?IsInitialized@InputUserInfoParams@proto@sdk@electron@com@@UEBA_NXZ 000000018001c660 f i electron_sdk.pb.obj
 0001:0001b660       ?IsInitialized@InputWebinarRegisterEmailAndScreenNameParams@proto@sdk@electron@com@@UEBA_NXZ 000000018001c660 f i electron_sdk.pb.obj
 0001:0001b660       ?IsInitialized@IsHardwareEncodeEnabledParams@proto@sdk@electron@com@@UEBA_NXZ 000000018001c660 f i electron_sdk.pb.obj
 0001:0001b660       ?IsInitialized@IsSupportLocalRecordingParams@proto@sdk@electron@com@@UEBA_NXZ 000000018001c660 f i electron_sdk.pb.obj
 0001:0001b660       ?IsInitialized@IsValidEmailParams@proto@sdk@electron@com@@UEBA_NXZ 000000018001c660 f i electron_sdk.pb.obj
 0001:0001b660       ?IsInitialized@JoinMeetingParams@proto@sdk@electron@com@@UEBA_NXZ 000000018001c660 f i electron_sdk.pb.obj
 0001:0001b660       ?IsInitialized@JoinWithArchiveParams@proto@sdk@electron@com@@UEBA_NXZ 000000018001c660 f i electron_sdk.pb.obj
 0001:0001b660       ?IsInitialized@JoinWithoutLoginParams@proto@sdk@electron@com@@UEBA_NXZ 000000018001c660 f i electron_sdk.pb.obj
 0001:0001b660       ?IsInitialized@LeaveMeetingParams@proto@sdk@electron@com@@UEBA_NXZ 000000018001c660 f i electron_sdk.pb.obj
 0001:0001b660       ?IsInitialized@LoginWithSSOTokenParams@proto@sdk@electron@com@@UEBA_NXZ 000000018001c660 f i electron_sdk.pb.obj
 0001:0001b660       ?IsInitialized@MoveFloatVideoWndParams@proto@sdk@electron@com@@UEBA_NXZ 000000018001c660 f i electron_sdk.pb.obj
 0001:0001b660       ?IsInitialized@MuteAudioParams@proto@sdk@electron@com@@UEBA_NXZ 000000018001c660 f i electron_sdk.pb.obj
 0001:0001b660       ?IsInitialized@MuteVideoParams@proto@sdk@electron@com@@UEBA_NXZ 000000018001c660 f i electron_sdk.pb.obj
 0001:0001b660       ?IsInitialized@PinVideoToFirstViewParams@proto@sdk@electron@com@@UEBA_NXZ 000000018001c660 f i electron_sdk.pb.obj
 0001:0001b660       ?IsInitialized@PollingIDParams@proto@sdk@electron@com@@UEBA_NXZ 000000018001c660 f i electron_sdk.pb.obj
 0001:0001b660       ?IsInitialized@PrePopulateWebinarRegistrationInfoParams@proto@sdk@electron@com@@UEBA_NXZ 000000018001c660 f i electron_sdk.pb.obj
 0001:0001b660       ?IsInitialized@PutInWaitingRoomParams@proto@sdk@electron@com@@UEBA_NXZ 000000018001c660 f i electron_sdk.pb.obj
 0001:0001b660       ?IsInitialized@QuestionCaseSensitiveParams@proto@sdk@electron@com@@UEBA_NXZ 000000018001c660 f i electron_sdk.pb.obj
 0001:0001b660       ?IsInitialized@QuestionIDParams@proto@sdk@electron@com@@UEBA_NXZ 000000018001c660 f i electron_sdk.pb.obj
 0001:0001b660       ?IsInitialized@QuestionImagePathParams@proto@sdk@electron@com@@UEBA_NXZ 000000018001c660 f i electron_sdk.pb.obj
 0001:0001b660       ?IsInitialized@RedirectClickAudioBTNEventParams@proto@sdk@electron@com@@UEBA_NXZ 000000018001c660 f i electron_sdk.pb.obj
 0001:0001b660       ?IsInitialized@RedirectClickAudioMenuBTNEventParams@proto@sdk@electron@com@@UEBA_NXZ 000000018001c660 f i electron_sdk.pb.obj
 0001:0001b660       ?IsInitialized@RedirectClickCCBTNEventParams@proto@sdk@electron@com@@UEBA_NXZ 000000018001c660 f i electron_sdk.pb.obj
 0001:0001b660       ?IsInitialized@RedirectClickCustomLiveStreamMenuEventParams@proto@sdk@electron@com@@UEBA_NXZ 000000018001c660 f i electron_sdk.pb.obj
 0001:0001b660       ?IsInitialized@RedirectClickEndMeetingBTNEventParams@proto@sdk@electron@com@@UEBA_NXZ 000000018001c660 f i electron_sdk.pb.obj
 0001:0001b660       ?IsInitialized@RedirectClickParticipantListBTNEventParams@proto@sdk@electron@com@@UEBA_NXZ 000000018001c660 f i electron_sdk.pb.obj
 0001:0001b660       ?IsInitialized@RedirectClickShareBTNEventParams@proto@sdk@electron@com@@UEBA_NXZ 000000018001c660 f i electron_sdk.pb.obj
 0001:0001b660       ?IsInitialized@RedirectConfirmStartArchiveDialogParams@proto@sdk@electron@com@@UEBA_NXZ 000000018001c660 f i electron_sdk.pb.obj
 0001:0001b660       ?IsInitialized@RedirectEndOtherMeetingParams@proto@sdk@electron@com@@UEBA_NXZ 000000018001c660 f i electron_sdk.pb.obj
 0001:0001b660       ?IsInitialized@RedirectFreeMeetingEndingReminderDlgParams@proto@sdk@electron@com@@UEBA_NXZ 000000018001c660 f i electron_sdk.pb.obj
 0001:0001b660       ?IsInitialized@RedirectMeetingInputUserInfoDialogParams@proto@sdk@electron@com@@UEBA_NXZ 000000018001c660 f i electron_sdk.pb.obj
 0001:0001b660       ?IsInitialized@RedirectMeetingWarningMsgParams@proto@sdk@electron@com@@UEBA_NXZ 000000018001c660 f i electron_sdk.pb.obj
 0001:0001b660       ?IsInitialized@RedirectWebinarNeedRegisterParams@proto@sdk@electron@com@@UEBA_NXZ 000000018001c660 f i electron_sdk.pb.obj
 0001:0001b660       ?IsInitialized@RedoParams@proto@sdk@electron@com@@UEBA_NXZ 000000018001c660 f i electron_sdk.pb.obj
 0001:0001b660       ?IsInitialized@RemoveBGImageParams@proto@sdk@electron@com@@UEBA_NXZ 000000018001c660 f i electron_sdk.pb.obj
 0001:0001b660       ?IsInitialized@RemoveBGVideoParams@proto@sdk@electron@com@@UEBA_NXZ 000000018001c660 f i electron_sdk.pb.obj
 0001:0001b660       ?IsInitialized@RemoveRawLiveStreamPrivilegeParams@proto@sdk@electron@com@@UEBA_NXZ 000000018001c660 f i electron_sdk.pb.obj
 0001:0001b660       ?IsInitialized@RenameUserParams@proto@sdk@electron@com@@UEBA_NXZ 000000018001c660 f i electron_sdk.pb.obj
 0001:0001b660       ?IsInitialized@RequestRawLiveStreamParams@proto@sdk@electron@com@@UEBA_NXZ 000000018001c660 f i electron_sdk.pb.obj
 0001:0001b660       ?IsInitialized@RetrieveParams@proto@sdk@electron@com@@UEBA_NXZ 000000018001c660 f i electron_sdk.pb.obj
 0001:0001b660       ?IsInitialized@SSOLoginWithWebUriProtocolParams@proto@sdk@electron@com@@UEBA_NXZ 000000018001c660 f i electron_sdk.pb.obj
 0001:0001b660       ?IsInitialized@ScheduleMeetingWithWndParams@proto@sdk@electron@com@@UEBA_NXZ 000000018001c660 f i electron_sdk.pb.obj
 0001:0001b660       ?IsInitialized@SelectMicParams@proto@sdk@electron@com@@UEBA_NXZ 000000018001c660 f i electron_sdk.pb.obj
 0001:0001b660       ?IsInitialized@SelectSpeakerParams@proto@sdk@electron@com@@UEBA_NXZ 000000018001c660 f i electron_sdk.pb.obj
 0001:0001b660       ?IsInitialized@SelectVideoCameraParams@proto@sdk@electron@com@@UEBA_NXZ 000000018001c660 f i electron_sdk.pb.obj
 0001:0001b660       ?IsInitialized@SendQueryQuestionParams@proto@sdk@electron@com@@UEBA_NXZ 000000018001c660 f i electron_sdk.pb.obj
 0001:0001b660       ?IsInitialized@SetAttendeeViewModeParams@proto@sdk@electron@com@@UEBA_NXZ 000000018001c660 f i electron_sdk.pb.obj
 0001:0001b660       ?IsInitialized@SetAudioShareModeParams@proto@sdk@electron@com@@UEBA_NXZ 000000018001c660 f i electron_sdk.pb.obj
 0001:0001b660       ?IsInitialized@SetBottomFloatToolBarWndVisibilityParams@proto@sdk@electron@com@@UEBA_NXZ 000000018001c660 f i electron_sdk.pb.obj
 0001:0001b660       ?IsInitialized@SetChatMessageBuilderParams@proto@sdk@electron@com@@UEBA_NXZ 000000018001c660 f i electron_sdk.pb.obj
 0001:0001b660       ?IsInitialized@SetColorParams@proto@sdk@electron@com@@UEBA_NXZ 000000018001c660 f i electron_sdk.pb.obj
 0001:0001b660       ?IsInitialized@SetCustomizedCloudRecordingMgrUrlParams@proto@sdk@electron@com@@UEBA_NXZ 000000018001c660 f i electron_sdk.pb.obj
 0001:0001b660       ?IsInitialized@SetCustomizedInvitationDomainParams@proto@sdk@electron@com@@UEBA_NXZ 000000018001c660 f i electron_sdk.pb.obj
 0001:0001b660       ?IsInitialized@SetCustomizedPollingUrlParams@proto@sdk@electron@com@@UEBA_NXZ 000000018001c660 f i electron_sdk.pb.obj
 0001:0001b660       ?IsInitialized@SetDashboardViewSizeParams@proto@sdk@electron@com@@UEBA_NXZ 000000018001c660 f i electron_sdk.pb.obj
 0001:0001b660       ?IsInitialized@SetDefaultCellPhoneInfoParams@proto@sdk@electron@com@@UEBA_NXZ 000000018001c660 f i electron_sdk.pb.obj
 0001:0001b660       ?IsInitialized@SetDirectShareMonitorIDParams@proto@sdk@electron@com@@UEBA_NXZ 000000018001c660 f i electron_sdk.pb.obj
 0001:0001b660       ?IsInitialized@SetDocDashboardSizeParams@proto@sdk@electron@com@@UEBA_NXZ 000000018001c660 f i electron_sdk.pb.obj
 0001:0001b660       ?IsInitialized@SetDocsCreateOptionParams@proto@sdk@electron@com@@UEBA_NXZ 000000018001c660 f i electron_sdk.pb.obj
 0001:0001b660       ?IsInitialized@SetDocsShareOptionParams@proto@sdk@electron@com@@UEBA_NXZ 000000018001c660 f i electron_sdk.pb.obj
 0001:0001b660       ?IsInitialized@SetDocsViewPosParams@proto@sdk@electron@com@@UEBA_NXZ 000000018001c660 f i electron_sdk.pb.obj
 0001:0001b660       ?IsInitialized@SetDocsViewSizeParams@proto@sdk@electron@com@@UEBA_NXZ 000000018001c660 f i electron_sdk.pb.obj
 0001:0001b660       ?IsInitialized@SetEchoCancellationLevelParams@proto@sdk@electron@com@@UEBA_NXZ 000000018001c660 f i electron_sdk.pb.obj
 0001:0001b660       ?IsInitialized@SetEnableOptionParams@proto@sdk@electron@com@@UEBA_NXZ 000000018001c660 f i electron_sdk.pb.obj
 0001:0001b660       ?IsInitialized@SetFloatVideoPosParams@proto@sdk@electron@com@@UEBA_NXZ 000000018001c660 f i electron_sdk.pb.obj
 0001:0001b660       ?IsInitialized@SetFloatVideoWndVisibilityParams@proto@sdk@electron@com@@UEBA_NXZ 000000018001c660 f i electron_sdk.pb.obj
 0001:0001b660       ?IsInitialized@SetLineWidthParams@proto@sdk@electron@com@@UEBA_NXZ 000000018001c660 f i electron_sdk.pb.obj
 0001:0001b660       ?IsInitialized@SetMaxDurationForOnlyHostInMeetingParams@proto@sdk@electron@com@@UEBA_NXZ 000000018001c660 f i electron_sdk.pb.obj
 0001:0001b660       ?IsInitialized@SetMeetingTopicParam@proto@sdk@electron@com@@UEBA_NXZ 000000018001c660 f i electron_sdk.pb.obj
 0001:0001b660       ?IsInitialized@SetMeetingTopicParams@proto@sdk@electron@com@@UEBA_NXZ 000000018001c660 f i electron_sdk.pb.obj
 0001:0001b660       ?IsInitialized@SetMeetingUIPosParams@proto@sdk@electron@com@@UEBA_NXZ 000000018001c660 f i electron_sdk.pb.obj
 0001:0001b660       ?IsInitialized@SetMicVolParams@proto@sdk@electron@com@@UEBA_NXZ 000000018001c660 f i electron_sdk.pb.obj
 0001:0001b660       ?IsInitialized@SetOwnerWindowParams@proto@sdk@electron@com@@UEBA_NXZ 000000018001c660 f i electron_sdk.pb.obj
 0001:0001b660       ?IsInitialized@SetPanelistChatPrivilegeParams@proto@sdk@electron@com@@UEBA_NXZ 000000018001c660 f i electron_sdk.pb.obj
 0001:0001b660       ?IsInitialized@SetParticipantsChatPrivilegeParams@proto@sdk@electron@com@@UEBA_NXZ 000000018001c660 f i electron_sdk.pb.obj
 0001:0001b660       ?IsInitialized@SetPipeInitParams@proto@sdk@electron@com@@UEBA_NXZ 000000018001c660 f i electron_sdk.pb.obj
 0001:0001b660       ?IsInitialized@SetRawDataResolutionParams@proto@sdk@electron@com@@UEBA_NXZ 000000018001c660 f i electron_sdk.pb.obj
 0001:0001b660       ?IsInitialized@SetRecordingPathParams@proto@sdk@electron@com@@UEBA_NXZ 000000018001c660 f i electron_sdk.pb.obj
 0001:0001b660       ?IsInitialized@SetSharingToolBarVisibilityParams@proto@sdk@electron@com@@UEBA_NXZ 000000018001c660 f i electron_sdk.pb.obj
 0001:0001b660       ?IsInitialized@SetShowAudioUseComputerSoundChkboxParams@proto@sdk@electron@com@@UEBA_NXZ 000000018001c660 f i electron_sdk.pb.obj
 0001:0001b660       ?IsInitialized@SetShowCallInTabParams@proto@sdk@electron@com@@UEBA_NXZ 000000018001c660 f i electron_sdk.pb.obj
 0001:0001b660       ?IsInitialized@SetShowCallMeTabParams@proto@sdk@electron@com@@UEBA_NXZ 000000018001c660 f i electron_sdk.pb.obj
 0001:0001b660       ?IsInitialized@SetShowH323SubTabPageParams@proto@sdk@electron@com@@UEBA_NXZ 000000018001c660 f i electron_sdk.pb.obj
 0001:0001b660       ?IsInitialized@SetShowInviteDlgTabPageParams@proto@sdk@electron@com@@UEBA_NXZ 000000018001c660 f i electron_sdk.pb.obj
 0001:0001b660       ?IsInitialized@SetShowVideoOptimizeChkboxParams@proto@sdk@electron@com@@UEBA_NXZ 000000018001c660 f i electron_sdk.pb.obj
 0001:0001b660       ?IsInitialized@SetSpeakerVolParams@proto@sdk@electron@com@@UEBA_NXZ 000000018001c660 f i electron_sdk.pb.obj
 0001:0001b660       ?IsInitialized@SetToolParams@proto@sdk@electron@com@@UEBA_NXZ 000000018001c660 f i electron_sdk.pb.obj
 0001:0001b660       ?IsInitialized@SetUsingGreenScreenParams@proto@sdk@electron@com@@UEBA_NXZ 000000018001c660 f i electron_sdk.pb.obj
 0001:0001b660       ?IsInitialized@SetVideoQualityPreferenceParams@proto@sdk@electron@com@@UEBA_NXZ 000000018001c660 f i electron_sdk.pb.obj
 0001:0001b660       ?IsInitialized@SetWallpaperParams@proto@sdk@electron@com@@UEBA_NXZ 000000018001c660 f i electron_sdk.pb.obj
 0001:0001b660       ?IsInitialized@SetWhiteboardCreateOptionParams@proto@sdk@electron@com@@UEBA_NXZ 000000018001c660 f i electron_sdk.pb.obj
 0001:0001b660       ?IsInitialized@SetWhiteboardShareOptionParams@proto@sdk@electron@com@@UEBA_NXZ 000000018001c660 f i electron_sdk.pb.obj
 0001:0001b660       ?IsInitialized@SetWhiteboardViewPosParams@proto@sdk@electron@com@@UEBA_NXZ 000000018001c660 f i electron_sdk.pb.obj
 0001:0001b660       ?IsInitialized@SetWhiteboardViewSizeParams@proto@sdk@electron@com@@UEBA_NXZ 000000018001c660 f i electron_sdk.pb.obj
 0001:0001b660       ?IsInitialized@ShowAANPanelParams@proto@sdk@electron@com@@UEBA_NXZ 000000018001c660 f i electron_sdk.pb.obj
 0001:0001b660       ?IsInitialized@ShowBottomFloatToolbarWndParams@proto@sdk@electron@com@@UEBA_NXZ 000000018001c660 f i electron_sdk.pb.obj
 0001:0001b660       ?IsInitialized@ShowChatDlgParams@proto@sdk@electron@com@@UEBA_NXZ 000000018001c660 f i electron_sdk.pb.obj
 0001:0001b660       ?IsInitialized@ShowDashboardViewParams@proto@sdk@electron@com@@UEBA_NXZ 000000018001c660 f i electron_sdk.pb.obj
 0001:0001b660       ?IsInitialized@ShowDocsDashboardParams@proto@sdk@electron@com@@UEBA_NXZ 000000018001c660 f i electron_sdk.pb.obj
 0001:0001b660       ?IsInitialized@ShowDocsViewWindowParams@proto@sdk@electron@com@@UEBA_NXZ 000000018001c660 f i electron_sdk.pb.obj
 0001:0001b660       ?IsInitialized@ShowIndicatorPanelParams@proto@sdk@electron@com@@UEBA_NXZ 000000018001c660 f i electron_sdk.pb.obj
 0001:0001b660       ?IsInitialized@ShowPanelParams@proto@sdk@electron@com@@UEBA_NXZ 000000018001c660 f i electron_sdk.pb.obj
 0001:0001b660       ?IsInitialized@ShowParticipantsListWndParams@proto@sdk@electron@com@@UEBA_NXZ 000000018001c660 f i electron_sdk.pb.obj
 0001:0001b660       ?IsInitialized@ShowPreOrNextPageVideoParams@proto@sdk@electron@com@@UEBA_NXZ 000000018001c660 f i electron_sdk.pb.obj
 0001:0001b660       ?IsInitialized@ShowSettingDlgParams@proto@sdk@electron@com@@UEBA_NXZ 000000018001c660 f i electron_sdk.pb.obj
 0001:0001b660       ?IsInitialized@ShowSharingFrameWindowsParams@proto@sdk@electron@com@@UEBA_NXZ 000000018001c660 f i electron_sdk.pb.obj
 0001:0001b660       ?IsInitialized@ShowSharingToolbarParams@proto@sdk@electron@com@@UEBA_NXZ 000000018001c660 f i electron_sdk.pb.obj
 0001:0001b660       ?IsInitialized@SpotlightVideoParams@proto@sdk@electron@com@@UEBA_NXZ 000000018001c660 f i electron_sdk.pb.obj
 0001:0001b660       ?IsInitialized@StartAnnotationParams@proto@sdk@electron@com@@UEBA_NXZ 000000018001c660 f i electron_sdk.pb.obj
 0001:0001b660       ?IsInitialized@StartAppShareParams@proto@sdk@electron@com@@UEBA_NXZ 000000018001c660 f i electron_sdk.pb.obj
 0001:0001b660       ?IsInitialized@StartLiveStreamParams@proto@sdk@electron@com@@UEBA_NXZ 000000018001c660 f i electron_sdk.pb.obj
 0001:0001b660       ?IsInitialized@StartLiveStreamWithSteamingURLParams@proto@sdk@electron@com@@UEBA_NXZ 000000018001c660 f i electron_sdk.pb.obj
 0001:0001b660       ?IsInitialized@StartMeetingParams@proto@sdk@electron@com@@UEBA_NXZ 000000018001c660 f i electron_sdk.pb.obj
 0001:0001b660       ?IsInitialized@StartMonitorShareParams@proto@sdk@electron@com@@UEBA_NXZ 000000018001c660 f i electron_sdk.pb.obj
 0001:0001b660       ?IsInitialized@StartRawLiveStreamParams@proto@sdk@electron@com@@UEBA_NXZ 000000018001c660 f i electron_sdk.pb.obj
 0001:0001b660       ?IsInitialized@StartReceiveParams@proto@sdk@electron@com@@UEBA_NXZ 000000018001c660 f i electron_sdk.pb.obj
 0001:0001b660       ?IsInitialized@StartWithoutLoginParams@proto@sdk@electron@com@@UEBA_NXZ 000000018001c660 f i electron_sdk.pb.obj
 0001:0001b660       ?IsInitialized@StopAnnotationParams@proto@sdk@electron@com@@UEBA_NXZ 000000018001c660 f i electron_sdk.pb.obj
 0001:0001b660       ?IsInitialized@SubscribeParams@proto@sdk@electron@com@@UEBA_NXZ 000000018001c660 f i electron_sdk.pb.obj
 0001:0001b660       ?IsInitialized@SwapToShowShareViewOrVideoParams@proto@sdk@electron@com@@UEBA_NXZ 000000018001c660 f i electron_sdk.pb.obj
 0001:0001b660       ?IsInitialized@SwitchMinimizeUIMode4FirstScreenMeetingUIWndParams@proto@sdk@electron@com@@UEBA_NXZ 000000018001c660 f i electron_sdk.pb.obj
 0001:0001b660       ?IsInitialized@SwitchSplitScreenModeParams@proto@sdk@electron@com@@UEBA_NXZ 000000018001c660 f i electron_sdk.pb.obj
 0001:0001b660       ?IsInitialized@TransferFileParams@proto@sdk@electron@com@@UEBA_NXZ 000000018001c660 f i electron_sdk.pb.obj
 0001:0001b660       ?IsInitialized@TryWithMeetingNumberParams@proto@sdk@electron@com@@UEBA_NXZ 000000018001c660 f i electron_sdk.pb.obj
 0001:0001b660       ?IsInitialized@TryWithPairingCodeParams@proto@sdk@electron@com@@UEBA_NXZ 000000018001c660 f i electron_sdk.pb.obj
 0001:0001b660       ?IsInitialized@TurnOffAeroModeInSharingParams@proto@sdk@electron@com@@UEBA_NXZ 000000018001c660 f i electron_sdk.pb.obj
 0001:0001b660       ?IsInitialized@TurnOffAllAICompanionsParams@proto@sdk@electron@com@@UEBA_NXZ 000000018001c660 f i electron_sdk.pb.obj
 0001:0001b660       ?IsInitialized@UnMuteVideoParams@proto@sdk@electron@com@@UEBA_NXZ 000000018001c660 f i electron_sdk.pb.obj
 0001:0001b660       ?IsInitialized@UnSubscribeParams@proto@sdk@electron@com@@UEBA_NXZ 000000018001c660 f i electron_sdk.pb.obj
 0001:0001b660       ?IsInitialized@UndoParams@proto@sdk@electron@com@@UEBA_NXZ 000000018001c660 f i electron_sdk.pb.obj
 0001:0001b660       ?IsInitialized@UnmuteAudioParams@proto@sdk@electron@com@@UEBA_NXZ 000000018001c660 f i electron_sdk.pb.obj
 0001:0001b660       ?IsInitialized@UseBGImageParams@proto@sdk@electron@com@@UEBA_NXZ 000000018001c660 f i electron_sdk.pb.obj
 0001:0001b660       ?IsInitialized@UseBGVideoParams@proto@sdk@electron@com@@UEBA_NXZ 000000018001c660 f i electron_sdk.pb.obj
 0001:0001b660       ?IsInitialized@VerifyParams@proto@sdk@electron@com@@UEBA_NXZ 000000018001c660 f i electron_sdk.pb.obj
 0001:0001b660       ?IsInitialized@VoteQuestionParams@proto@sdk@electron@com@@UEBA_NXZ 000000018001c660 f i electron_sdk.pb.obj
 0001:0001b660       ?IsInitialized@WebinarAttendeeParams@proto@sdk@electron@com@@UEBA_NXZ 000000018001c660 f i electron_sdk.pb.obj
 0001:0001b660       __acrt_initialize          000000018001c660 f i MSVCRT:ucrt_stubs.obj
 0001:0001b660       __acrt_thread_attach       000000018001c660 f i MSVCRT:ucrt_stubs.obj
 0001:0001b660       __acrt_thread_detach       000000018001c660 f i MSVCRT:ucrt_stubs.obj
 0001:0001b660       __acrt_uninitialize        000000018001c660 f i MSVCRT:ucrt_stubs.obj
 0001:0001b660       __acrt_uninitialize_critical 000000018001c660 f i MSVCRT:ucrt_stubs.obj
 0001:0001b660       __scrt_stub_for_acrt_initialize 000000018001c660 f i MSVCRT:ucrt_stubs.obj
 0001:0001b660       __scrt_stub_for_acrt_thread_attach 000000018001c660 f i MSVCRT:ucrt_stubs.obj
 0001:0001b660       __scrt_stub_for_acrt_thread_detach 000000018001c660 f i MSVCRT:ucrt_stubs.obj
 0001:0001b660       __scrt_stub_for_acrt_uninitialize 000000018001c660 f i MSVCRT:ucrt_stubs.obj
 0001:0001b660       __scrt_stub_for_acrt_uninitialize_critical 000000018001c660 f i MSVCRT:ucrt_stubs.obj
 0001:0001b660       __vcrt_initialize          000000018001c660 f i MSVCRT:ucrt_stubs.obj
 0001:0001b660       __vcrt_thread_attach       000000018001c660 f i MSVCRT:ucrt_stubs.obj
 0001:0001b660       __vcrt_thread_detach       000000018001c660 f i MSVCRT:ucrt_stubs.obj
 0001:0001b660       __vcrt_uninitialize        000000018001c660 f i MSVCRT:ucrt_stubs.obj
 0001:0001b660       __vcrt_uninitialize_critical 000000018001c660 f i MSVCRT:ucrt_stubs.obj
 0001:0001b670       ??_ECustomizedH323Device@ZOOMSDK@@UEAAPEAXI@Z 000000018001c670 f i * CIL library *:* CIL module *
 0001:0001b670       ??_GCustomizedH323Device@ZOOMSDK@@UEAAPEAXI@Z 000000018001c670 f i meeting_h323_wrap_core.obj
 0001:0001b6d0       ??_EZMeetingH323Wrap@@UEAAPEAXI@Z 000000018001c6d0 f i * CIL library *:* CIL module *
 0001:0001b6d0       ??_GZMeetingH323Wrap@@UEAAPEAXI@Z 000000018001c6d0 f i meeting_h323_wrap_core.obj
 0001:0001b710       ??1ZMeetingH323Wrap@@UEAA@XZ 000000018001c710 f   meeting_h323_wrap_core.obj
 0001:0001b8e0       ?Init@ZMeetingH323Wrap@@QEAAXXZ 000000018001c8e0 f   meeting_h323_wrap_core.obj
 0001:0001bac0       ?CallOutH323@ZMeetingH323Wrap@@QEAA?AW4ZNSDKError@@V?$basic_string@_WU?$char_traits@_W@std@@V?$allocator@_W@2@@std@@00W4ZNH323DeviceType@@@Z 000000018001cac0 f   meeting_h323_wrap_core.obj
 0001:0001bd70       ?GetCalloutH323DeviceList@ZMeetingH323Wrap@@QEAA?AV?$vector@U_ZNH323DeviecInfo@@V?$allocator@U_ZNH323DeviecInfo@@@std@@@std@@XZ 000000018001cd70 f   meeting_h323_wrap_core.obj
 0001:0001c0b0       ??1?$vector@U_ZNH323DeviecInfo@@V?$allocator@U_ZNH323DeviecInfo@@@std@@@std@@QEAA@XZ 000000018001d0b0 f i meeting_h323_wrap_core.obj
 0001:0001c170       ??$_Emplace_reallocate@AEBU_ZNH323DeviecInfo@@@?$vector@U_ZNH323DeviecInfo@@V?$allocator@U_ZNH323DeviecInfo@@@std@@@std@@AEAAPEAU_ZNH323DeviecInfo@@QEAU2@AEBU2@@Z 000000018001d170 f i meeting_h323_wrap_core.obj
 0001:0001c3c0       ??$_Emplace_reallocate@AEBV?$basic_string@_WU?$char_traits@_W@std@@V?$allocator@_W@2@@std@@@?$vector@V?$basic_string@_WU?$char_traits@_W@std@@V?$allocator@_W@2@@std@@V?$allocator@V?$basic_string@_WU?$char_traits@_W@std@@V?$allocator@_W@2@@std@@@2@@std@@AEAAPEAV?$basic_string@_WU?$char_traits@_W@std@@V?$allocator@_W@2@@1@QEAV21@AEBV21@@Z 000000018001d3c0 f i meeting_h323_wrap_core.obj
 0001:0001c650       ??$_Uninitialized_move@PEAU_ZNH323DeviecInfo@@V?$allocator@U_ZNH323DeviecInfo@@@std@@@std@@YAPEAU_ZNH323DeviecInfo@@QEAU1@0PEAU1@AEAV?$allocator@U_ZNH323DeviecInfo@@@0@@Z 000000018001d650 f i meeting_h323_wrap_core.obj
 0001:0001c750       ??_EZSettingVideoWrap@@UEAAPEAXI@Z 000000018001d750 f i * CIL library *:* CIL module *
 0001:0001c750       ??_GZSettingVideoWrap@@UEAAPEAXI@Z 000000018001d750 f i setting_video_wrap_core.obj
 0001:0001c790       ??1ZSettingVideoWrap@@UEAA@XZ 000000018001d790 f   setting_video_wrap_core.obj
 0001:0001c8f0       ?GetCameraList@ZSettingVideoWrap@@QEAA?AV?$vector@U_ZNCameraInfo@@V?$allocator@U_ZNCameraInfo@@@std@@@std@@XZ 000000018001d8f0 f   setting_video_wrap_core.obj
 0001:0001cb80       ??_EZSettingAudioWrap@@UEAAPEAXI@Z 000000018001db80 f i * CIL library *:* CIL module *
 0001:0001cb80       ??_GZSettingAudioWrap@@UEAAPEAXI@Z 000000018001db80 f i setting_audio_wrap_core.obj
 0001:0001cbc0       ??1ZSettingAudioWrap@@UEAA@XZ 000000018001dbc0 f   setting_audio_wrap_core.obj
 0001:0001cd20       ?GetMicList@ZSettingAudioWrap@@QEAA?AV?$vector@U_ZNMicInfo@@V?$allocator@U_ZNMicInfo@@@std@@@std@@XZ 000000018001dd20 f   setting_audio_wrap_core.obj
 0001:0001cfb0       ?GetSpeakerList@ZSettingAudioWrap@@QEAA?AV?$vector@U_ZNSpeakerInfo@@V?$allocator@U_ZNSpeakerInfo@@@std@@@std@@XZ 000000018001dfb0 f   setting_audio_wrap_core.obj
 0001:0001d240       ??_EZMeetingRecordingWrap@@UEAAPEAXI@Z 000000018001e240 f i * CIL library *:* CIL module *
 0001:0001d240       ??_GZMeetingRecordingWrap@@UEAAPEAXI@Z 000000018001e240 f i meeting_recording_wrap_core.obj
 0001:0001d280       ??1ZMeetingRecordingWrap@@UEAA@XZ 000000018001e280 f   meeting_recording_wrap_core.obj
 0001:0001d450       ?Init@ZMeetingRecordingWrap@@QEAAXXZ 000000018001e450 f   meeting_recording_wrap_core.obj
 0001:0001d630       ??_EZMeetingAANWrap@@UEAAPEAXI@Z 000000018001e630 f i * CIL library *:* CIL module *
 0001:0001d630       ??_GZMeetingAANWrap@@UEAAPEAXI@Z 000000018001e630 f i meeting_AAN_wrap_core.obj
 0001:0001d670       ??1ZMeetingAANWrap@@UEAA@XZ 000000018001e670 f   meeting_AAN_wrap_core.obj
 0001:0001d730       ??_EZMeetingRawArchivingWrap@@UEAAPEAXI@Z 000000018001e730 f i * CIL library *:* CIL module *
 0001:0001d730       ??_GZMeetingRawArchivingWrap@@UEAAPEAXI@Z 000000018001e730 f i meeting_raw_archiving_wrap_core.obj
 0001:0001d770       ??1ZMeetingRawArchivingWrap@@UEAA@XZ 000000018001e770 f   meeting_raw_archiving_wrap_core.obj
 0001:0001d830       ?GetZNAnswerItemFromIAnswerItem@@YA?AU_ZNAnswerItem@@PEAVIAnswerItem@ZOOMSDK@@@Z 000000018001e830 f   meeting_qa_wrap_core.obj
 0001:0001de90       ??0_ZNAnswerItem@@QEAA@$$QEAU0@@Z 000000018001ee90 f i meeting_qa_wrap_core.obj
 0001:0001df90       ?GetZNQAItemInfoFromIQAItemInfo@@YA?AU_ZNQAItemInfo@@PEAVIQAItemInfo@ZOOMSDK@@@Z 000000018001ef90 f   meeting_qa_wrap_core.obj
 0001:0001e590       ??0_ZNQAItemInfo@@QEAA@$$QEAU0@@Z 000000018001f590 f i meeting_qa_wrap_core.obj
 0001:0001e700       ??_EZMeetingQAWrap@@UEAAPEAXI@Z 000000018001f700 f i * CIL library *:* CIL module *
 0001:0001e700       ??_GZMeetingQAWrap@@UEAAPEAXI@Z 000000018001f700 f i meeting_qa_wrap_core.obj
 0001:0001e740       ??1ZMeetingQAWrap@@UEAA@XZ 000000018001f740 f   meeting_qa_wrap_core.obj
 0001:0001e910       ?Init@ZMeetingQAWrap@@QEAAXXZ 000000018001f910 f   meeting_qa_wrap_core.obj
 0001:0001eaf0       ?getAllQuestionList@ZMeetingQAWrap@@QEAA?AV?$vector@U_ZNQAItemInfo@@V?$allocator@U_ZNQAItemInfo@@@std@@@std@@XZ 000000018001faf0 f   meeting_qa_wrap_core.obj
 0001:0001ece0       ??4?$basic_string@_WU?$char_traits@_W@std@@V?$allocator@_W@2@@std@@QEAAAEAV01@$$QEAV01@@Z 000000018001fce0 f i meeting_qa_wrap_core.obj
 0001:0001ed80       ?_Tidy@?$vector@U_ZNQAItemInfo@@V?$allocator@U_ZNQAItemInfo@@@std@@@std@@AEAAXXZ 000000018001fd80 f i meeting_qa_wrap_core.obj
 0001:0001ee70       ??1?$vector@UtagWallpaperItem@@V?$allocator@UtagWallpaperItem@@@std@@@std@@QEAA@XZ 000000018001fe70 f i setting_wallpaper_wrap_core.obj
 0001:0001ee70       ?_Tidy@?$vector@U_ZNAnswerItem@@V?$allocator@U_ZNAnswerItem@@@std@@@std@@AEAAXXZ 000000018001fe70 f i meeting_qa_wrap_core.obj
 0001:0001ef50       ??$_Emplace_reallocate@U_ZNQAItemInfo@@@?$vector@U_ZNQAItemInfo@@V?$allocator@U_ZNQAItemInfo@@@std@@@std@@AEAAPEAU_ZNQAItemInfo@@QEAU2@$$QEAU2@@Z 000000018001ff50 f i meeting_qa_wrap_core.obj
 0001:0001f220       ??$_Emplace_reallocate@U_ZNAnswerItem@@@?$vector@U_ZNAnswerItem@@V?$allocator@U_ZNAnswerItem@@@std@@@std@@AEAAPEAU_ZNAnswerItem@@QEAU2@$$QEAU2@@Z 0000000180020220 f i meeting_qa_wrap_core.obj
 0001:0001f4b0       ??_EZMeetingReactionWrap@@UEAAPEAXI@Z 00000001800204b0 f i * CIL library *:* CIL module *
 0001:0001f4b0       ??_GZMeetingReactionWrap@@UEAAPEAXI@Z 00000001800204b0 f i meeting_reaction_wrap_core.obj
 0001:0001f4f0       ??1ZMeetingReactionWrap@@UEAA@XZ 00000001800204f0 f   meeting_reaction_wrap_core.obj
 0001:0001f6c0       ?Init@ZMeetingReactionWrap@@QEAAXXZ 00000001800206c0 f   meeting_reaction_wrap_core.obj
 0001:0001f8a0       ??_EZMeetingPollingWrap@@UEAAPEAXI@Z 00000001800208a0 f i * CIL library *:* CIL module *
 0001:0001f8a0       ??_GZMeetingPollingWrap@@UEAAPEAXI@Z 00000001800208a0 f i meeting_polling_wrap_core.obj
 0001:0001f8e0       ??1ZMeetingPollingWrap@@UEAA@XZ 00000001800208e0 f   meeting_polling_wrap_core.obj
 0001:0001fab0       ?Init@ZMeetingPollingWrap@@QEAAXXZ 0000000180020ab0 f   meeting_polling_wrap_core.obj
 0001:0001fc90       ?GetPollingQuestionItemList@ZMeetingPollingWrap@@QEAA?AV?$vector@U_ZNSDKPollingQuestionItem@@V?$allocator@U_ZNSDKPollingQuestionItem@@@std@@@std@@V?$basic_string@_WU?$char_traits@_W@std@@V?$allocator@_W@2@@3@@Z 0000000180020c90 f   meeting_polling_wrap_core.obj
 0001:00020d30       ?GetPollingRightAnswerItemList@ZMeetingPollingWrap@@QEAA?AV?$vector@U_ZNSDKPollingAnswerItem@@V?$allocator@U_ZNSDKPollingAnswerItem@@@std@@@std@@V?$basic_string@_WU?$char_traits@_W@std@@V?$allocator@_W@2@@3@@Z 0000000180021d30 f   meeting_polling_wrap_core.obj
 0001:00021120       ?GetPollingAnswerResultItemList@ZMeetingPollingWrap@@QEAA?AV?$vector@U_ZNSDKPollingAnswerResultItem@@V?$allocator@U_ZNSDKPollingAnswerResultItem@@@std@@@std@@V?$basic_string@_WU?$char_traits@_W@std@@V?$allocator@_W@2@@3@@Z 0000000180022120 f   meeting_polling_wrap_core.obj
 0001:000214c0       ?GetPollingItemByID@ZMeetingPollingWrap@@QEAA?AU_ZNSDKPollingItem@@V?$basic_string@_WU?$char_traits@_W@std@@V?$allocator@_W@2@@std@@@Z 00000001800224c0 f   meeting_polling_wrap_core.obj
 0001:00021690       ?GetPollingItemList@ZMeetingPollingWrap@@QEAA?AV?$vector@U_ZNSDKPollingItem@@V?$allocator@U_ZNSDKPollingItem@@@std@@@std@@XZ 0000000180022690 f   meeting_polling_wrap_core.obj
 0001:00021970       ??4?$vector@U_ZNSDKPollingQuestionItem@@V?$allocator@U_ZNSDKPollingQuestionItem@@@std@@@std@@QEAAAEAV01@AEBV01@@Z 0000000180022970 f i meeting_polling_wrap_core.obj
 0001:000219c0       ??1?$vector@U_ZNSDKPollingQuestionItem@@V?$allocator@U_ZNSDKPollingQuestionItem@@@std@@@std@@QEAA@XZ 00000001800229c0 f i meeting_polling_wrap_core.obj
 0001:000219d0       ?_Tidy@?$vector@U_ZNSDKPollingItem@@V?$allocator@U_ZNSDKPollingItem@@@std@@@std@@AEAAXXZ 00000001800229d0 f i meeting_polling_wrap_core.obj
 0001:00021a90       ?_Tidy@?$vector@U_ZNSDKPollingAnswerResultItem@@V?$allocator@U_ZNSDKPollingAnswerResultItem@@@std@@@std@@AEAAXXZ 0000000180022a90 f i meeting_polling_wrap_core.obj
 0001:00021b80       ?_Tidy@?$vector@U_ZNSDKPollingAnswerItem@@V?$allocator@U_ZNSDKPollingAnswerItem@@@std@@@std@@AEAAXXZ 0000000180022b80 f i meeting_polling_wrap_core.obj
 0001:00021c10       ?_Tidy@?$vector@U_ZNSDKPollingQuestionItem@@V?$allocator@U_ZNSDKPollingQuestionItem@@@std@@@std@@AEAAXXZ 0000000180022c10 f i meeting_polling_wrap_core.obj
 0001:00021d00       ??$_Assign_counted_range@PEAU_ZNSDKPollingAnswerItem@@@?$vector@U_ZNSDKPollingAnswerItem@@V?$allocator@U_ZNSDKPollingAnswerItem@@@std@@@std@@AEAAXPEAU_ZNSDKPollingAnswerItem@@_K@Z 0000000180022d00 f i meeting_polling_wrap_core.obj
 0001:00021f20       ??$_Assign_counted_range@PEAU_ZNSDKPollingQuestionItem@@@?$vector@U_ZNSDKPollingQuestionItem@@V?$allocator@U_ZNSDKPollingQuestionItem@@@std@@@std@@AEAAXPEAU_ZNSDKPollingQuestionItem@@_K@Z 0000000180022f20 f i meeting_polling_wrap_core.obj
 0001:000221d0       ??$_Destroy_range@V?$allocator@U_ZNSDKPollingAnswerItem@@@std@@@std@@YAXPEAU_ZNSDKPollingAnswerItem@@QEAU1@AEAV?$allocator@U_ZNSDKPollingAnswerItem@@@0@@Z 00000001800231d0 f i meeting_polling_wrap_core.obj
 0001:00022240       ??4_ZNSDKPollingAnswerItem@@QEAAAEAU0@AEBU0@@Z 0000000180023240 f i meeting_polling_wrap_core.obj
 0001:00022330       ??4_ZNSDKPollingQuestionItem@@QEAAAEAU0@AEBU0@@Z 0000000180023330 f i meeting_polling_wrap_core.obj
 0001:00022410       ?_Buy_raw@?$vector@U_ZNSDKPollingAnswerItem@@V?$allocator@U_ZNSDKPollingAnswerItem@@@std@@@std@@AEAAX_K@Z 0000000180023410 f i meeting_polling_wrap_core.obj
 0001:000224a0       ?_Buy_raw@?$vector@U_ZNSDKPollingQuestionItem@@V?$allocator@U_ZNSDKPollingQuestionItem@@@std@@@std@@AEAAX_K@Z 00000001800234a0 f i meeting_polling_wrap_core.obj
 0001:00022530       ?allocate@?$allocator@U_ZNSDKPollingAnswerItem@@@std@@QEAAPEAU_ZNSDKPollingAnswerItem@@_K@Z 0000000180023530 f i meeting_polling_wrap_core.obj
 0001:000225a0       ??$_Emplace_reallocate@AEBU_ZNSDKPollingItem@@@?$vector@U_ZNSDKPollingItem@@V?$allocator@U_ZNSDKPollingItem@@@std@@@std@@AEAAPEAU_ZNSDKPollingItem@@QEAU2@AEBU2@@Z 00000001800235a0 f i meeting_polling_wrap_core.obj
 0001:000227e0       ??$_Emplace_reallocate@AEBU_ZNSDKPollingAnswerResultItem@@@?$vector@U_ZNSDKPollingAnswerResultItem@@V?$allocator@U_ZNSDKPollingAnswerResultItem@@@std@@@std@@AEAAPEAU_ZNSDKPollingAnswerResultItem@@QEAU2@AEBU2@@Z 00000001800237e0 f i meeting_polling_wrap_core.obj
 0001:00022a90       ??$_Emplace_reallocate@AEBU_ZNSDKPollingAnswerItem@@@?$vector@U_ZNSDKPollingAnswerItem@@V?$allocator@U_ZNSDKPollingAnswerItem@@@std@@@std@@AEAAPEAU_ZNSDKPollingAnswerItem@@QEAU2@AEBU2@@Z 0000000180023a90 f i meeting_polling_wrap_core.obj
 0001:00022d00       ??$_Emplace_reallocate@AEBU_ZNSDKPollingQuestionItem@@@?$vector@U_ZNSDKPollingQuestionItem@@V?$allocator@U_ZNSDKPollingQuestionItem@@@std@@@std@@AEAAPEAU_ZNSDKPollingQuestionItem@@QEAU2@AEBU2@@Z 0000000180023d00 f i meeting_polling_wrap_core.obj
 0001:00022fd0       ??$_Uninitialized_move@PEAU_ZNSDKPollingItem@@V?$allocator@U_ZNSDKPollingItem@@@std@@@std@@YAPEAU_ZNSDKPollingItem@@QEAU1@0PEAU1@AEAV?$allocator@U_ZNSDKPollingItem@@@0@@Z 0000000180023fd0 f i meeting_polling_wrap_core.obj
 0001:000230b0       ??0_ZNSDKPollingAnswerResultItem@@QEAA@AEBU0@@Z 00000001800240b0 f i meeting_polling_wrap_core.obj
 0001:00023120       ??0_ZNSDKPollingAnswerItem@@QEAA@AEBU0@@Z 0000000180024120 f i meeting_polling_wrap_core.obj
 0001:000231a0       ??0_ZNSDKPollingQuestionItem@@QEAA@AEBU0@@Z 00000001800241a0 f i meeting_polling_wrap_core.obj
 0001:00023380       ??0_ZNSDKPollingAnswerResultItem@@QEAA@$$QEAU0@@Z 0000000180024380 f i meeting_polling_wrap_core.obj
 0001:000234a0       ??0_ZNSDKPollingAnswerItem@@QEAA@$$QEAU0@@Z 00000001800244a0 f i meeting_polling_wrap_core.obj
 0001:00023610       ??0_ZNSDKPollingQuestionItem@@QEAA@$$QEAU0@@Z 0000000180024610 f i meeting_polling_wrap_core.obj
 0001:00023730       ??_EZMeetingCloseCaptionWrap@@UEAAPEAXI@Z 0000000180024730 f i * CIL library *:* CIL module *
 0001:00023730       ??_GZMeetingCloseCaptionWrap@@UEAAPEAXI@Z 0000000180024730 f i meeting_close_caption_wrap_core.obj
 0001:00023770       ??1ZMeetingCloseCaptionWrap@@UEAA@XZ 0000000180024770 f   meeting_close_caption_wrap_core.obj
 0001:00023940       ?Init@ZMeetingCloseCaptionWrap@@QEAAXXZ 0000000180024940 f   meeting_close_caption_wrap_core.obj
 0001:00023b20       ??_EZMeetingLiveStreamWrap@@UEAAPEAXI@Z 0000000180024b20 f i * CIL library *:* CIL module *
 0001:00023b20       ??_GZMeetingLiveStreamWrap@@UEAAPEAXI@Z 0000000180024b20 f i meeting_live_stream_wrap_core.obj
 0001:00023b60       ??1ZMeetingLiveStreamWrap@@UEAA@XZ 0000000180024b60 f   meeting_live_stream_wrap_core.obj
 0001:00023d90       ?Init@ZMeetingLiveStreamWrap@@QEAAXXZ 0000000180024d90 f   meeting_live_stream_wrap_core.obj
 0001:00023f70       ?GetSupportLiveStreamItems@ZMeetingLiveStreamWrap@@QEAA?AV?$vector@_JV?$allocator@_J@std@@@std@@XZ 0000000180024f70 f   meeting_live_stream_wrap_core.obj
 0001:000241c0       ?GetCurrentLiveStreamItem@ZMeetingLiveStreamWrap@@QEAA?AU_ZNLiveStreamItemInfo@@XZ 00000001800251c0 f   meeting_live_stream_wrap_core.obj
 0001:000243c0       ?GetRawLiveStreamingInfoList@ZMeetingLiveStreamWrap@@QEAA?AV?$vector@UZNRawLiveStreamInfo@@V?$allocator@UZNRawLiveStreamInfo@@@std@@@std@@XZ 00000001800253c0 f   meeting_live_stream_wrap_core.obj
 0001:000245f0       ?GetRawLiveStreamPrivilegeUserList@ZMeetingLiveStreamWrap@@QEAA?AV?$vector@IV?$allocator@I@std@@@std@@XZ 00000001800255f0 f   meeting_live_stream_wrap_core.obj
 0001:00024790       ??_EZMeetingReminderWrap@@UEAAPEAXI@Z 0000000180025790 f i * CIL library *:* CIL module *
 0001:00024790       ??_GZMeetingReminderWrap@@UEAAPEAXI@Z 0000000180025790 f i meeting_reminder_wrap_core.obj
 0001:000247d0       ??1ZMeetingReminderWrap@@UEAA@XZ 00000001800257d0 f   meeting_reminder_wrap_core.obj
 0001:000249a0       ?Init@ZMeetingReminderWrap@@QEAAXXZ 00000001800259a0 f   meeting_reminder_wrap_core.obj
 0001:00024b80       ??_EZMeetingChatWrap@@UEAAPEAXI@Z 0000000180025b80 f i * CIL library *:* CIL module *
 0001:00024b80       ??_GZMeetingChatWrap@@UEAAPEAXI@Z 0000000180025b80 f i meeting_chat_wrap_core.obj
 0001:00024bc0       ??1ZMeetingChatWrap@@UEAA@XZ 0000000180025bc0 f   meeting_chat_wrap_core.obj
 0001:00024d90       ?Init@ZMeetingChatWrap@@QEAAXXZ 0000000180025d90 f   meeting_chat_wrap_core.obj
 0001:00024f70       ?GetAllChatMessageID@ZMeetingChatWrap@@QEAA?AV?$vector@V?$basic_string@_WU?$char_traits@_W@std@@V?$allocator@_W@2@@std@@V?$allocator@V?$basic_string@_WU?$char_traits@_W@std@@V?$allocator@_W@2@@std@@@2@@std@@XZ 0000000180025f70 f   meeting_chat_wrap_core.obj
 0001:00025190       ?GetChatMessageById@ZMeetingChatWrap@@QEAA?AU_ZNChatMsgInfo@@V?$basic_string@_WU?$char_traits@_W@std@@V?$allocator@_W@2@@std@@@Z 0000000180026190 f   meeting_chat_wrap_core.obj
 0001:00025520       ?SetChatMessageBuilder@ZMeetingChatWrap@@QEAA?AW4ZNSDKError@@V?$basic_string@_WU?$char_traits@_W@std@@V?$allocator@_W@2@@std@@I0W4ZNSDKChatMessageType@@II_N2@Z 0000000180026520 f   meeting_chat_wrap_core.obj
 0001:00025760       ??_EZMeetingWaitingRoomWrap@@UEAAPEAXI@Z 0000000180026760 f i * CIL library *:* CIL module *
 0001:00025760       ??_GZMeetingWaitingRoomWrap@@UEAAPEAXI@Z 0000000180026760 f i meeting_waiting_room_wrap_core.obj
 0001:000257a0       ??1ZMeetingWaitingRoomWrap@@UEAA@XZ 00000001800267a0 f   meeting_waiting_room_wrap_core.obj
 0001:00025970       ?Init@ZMeetingWaitingRoomWrap@@QEAAXXZ 0000000180026970 f   meeting_waiting_room_wrap_core.obj
 0001:00025b50       ??_EZMeetingAICompanionWrap@@UEAAPEAXI@Z 0000000180026b50 f i * CIL library *:* CIL module *
 0001:00025b50       ??_GZMeetingAICompanionWrap@@UEAAPEAXI@Z 0000000180026b50 f i meeting_ai_companion_wrap_core.obj
 0001:00025bc0       ?Init@ZMeetingAICompanionWrap@@QEAAXXZ 0000000180026bc0 f   meeting_ai_companion_wrap_core.obj
 0001:00025f80       ?Uninit@ZMeetingAICompanionWrap@@QEAAXXZ 0000000180026f80 f   meeting_ai_companion_wrap_core.obj
 0001:000262f0       ??_EZMeetingIndicatorWrap@@UEAAPEAXI@Z 00000001800272f0 f i * CIL library *:* CIL module *
 0001:000262f0       ??_GZMeetingIndicatorWrap@@UEAAPEAXI@Z 00000001800272f0 f i meeting_indicator_wrap_core.obj
 0001:00026330       ??1ZMeetingIndicatorWrap@@UEAA@XZ 0000000180027330 f   meeting_indicator_wrap_core.obj
 0001:00026500       ?Init@ZMeetingIndicatorWrap@@QEAAXXZ 0000000180027500 f   meeting_indicator_wrap_core.obj
 0001:000266e0       ??_EZMeetingWebinarWrap@@UEAAPEAXI@Z 00000001800276e0 f i * CIL library *:* CIL module *
 0001:000266e0       ??_GZMeetingWebinarWrap@@UEAAPEAXI@Z 00000001800276e0 f i meeting_webinar_wrap_core.obj
 0001:00026720       ??1ZMeetingWebinarWrap@@UEAA@XZ 0000000180027720 f   meeting_webinar_wrap_core.obj
 0001:000268f0       ?Init@ZMeetingWebinarWrap@@QEAAXXZ 00000001800278f0 f   meeting_webinar_wrap_core.obj
 0001:00026ad0       ??_EZMeetingWhiteboardWrap@@UEAAPEAXI@Z 0000000180027ad0 f i * CIL library *:* CIL module *
 0001:00026ad0       ??_GZMeetingWhiteboardWrap@@UEAAPEAXI@Z 0000000180027ad0 f i meeting_whiteboard_wrap_core.obj
 0001:00026b10       ??1ZMeetingWhiteboardWrap@@UEAA@XZ 0000000180027b10 f   meeting_whiteboard_wrap_core.obj
 0001:00026ce0       ?Init@ZMeetingWhiteboardWrap@@QEAAXXZ 0000000180027ce0 f   meeting_whiteboard_wrap_core.obj
 0001:00026ec0       ?SetOwnerWindow@ZMeetingWhiteboardWrap@@QEAA?AW4ZNSDKError@@V?$basic_string@_WU?$char_traits@_W@std@@V?$allocator@_W@2@@std@@@Z 0000000180027ec0 f   meeting_whiteboard_wrap_core.obj
 0001:000270d0       ??_EZMeetingDocsWrap@@UEAAPEAXI@Z 00000001800280d0 f i * CIL library *:* CIL module *
 0001:000270d0       ??_GZMeetingDocsWrap@@UEAAPEAXI@Z 00000001800280d0 f i meeting_docs_wrap_core.obj
 0001:00027110       ??1ZMeetingDocsWrap@@UEAA@XZ 0000000180028110 f   meeting_docs_wrap_core.obj
 0001:000272e0       ?Init@ZMeetingDocsWrap@@QEAAXXZ 00000001800282e0 f   meeting_docs_wrap_core.obj
 0001:000274c0       ?SetOwnerWindow@ZMeetingDocsWrap@@QEAA?AW4ZNSDKError@@V?$basic_string@_WU?$char_traits@_W@std@@V?$allocator@_W@2@@std@@@Z 00000001800284c0 f   meeting_docs_wrap_core.obj
 0001:000276b0       ?GetDocsSharingSourceInfoList@ZMeetingDocsWrap@@QEAA?AV?$vector@U_ZNZoomSDKDocSharingSourceInfo@@V?$allocator@U_ZNZoomSDKDocSharingSourceInfo@@@std@@@std@@I@Z 00000001800286b0 f   meeting_docs_wrap_core.obj
 0001:00027940       ?_Tidy@?$vector@U_ZNZoomSDKDocSharingSourceInfo@@V?$allocator@U_ZNZoomSDKDocSharingSourceInfo@@@std@@@std@@AEAAXXZ 0000000180028940 f i meeting_docs_wrap_core.obj
 0001:00027a00       ??$_Emplace_reallocate@U_ZNZoomSDKDocSharingSourceInfo@@@?$vector@U_ZNZoomSDKDocSharingSourceInfo@@V?$allocator@U_ZNZoomSDKDocSharingSourceInfo@@@std@@@std@@AEAAPEAU_ZNZoomSDKDocSharingSourceInfo@@QEAU2@$$QEAU2@@Z 0000000180028a00 f i meeting_docs_wrap_core.obj
 0001:00027d90       ?GetInst@ZoomNodeSinkHelper@@SAAEAV1@XZ 0000000180028d90 f i setting_recording_wrap_core.obj
 0001:00027e10       ??0ZoomNodeSinkHelper@@AEAA@XZ 0000000180028e10 f i setting_recording_wrap_core.obj
 0001:000280f0       ??_EZSettingRecordingWrap@@UEAAPEAXI@Z 00000001800290f0 f i * CIL library *:* CIL module *
 0001:000280f0       ??_GZSettingRecordingWrap@@UEAAPEAXI@Z 00000001800290f0 f i setting_recording_wrap_core.obj
 0001:00028130       ??1ZSettingRecordingWrap@@UEAA@XZ 0000000180029130 f   setting_recording_wrap_core.obj
 0001:00028290       ??$swap@PEA_K$0A@@std@@YAXAEAPEA_K0@Z 0000000180029290 f i setting_recording_wrap_core.obj
 0001:000282a0       ?onMeetingWallpaperImageDownloadStatus@ZNativeSDKWallpaperSettingContextWrapSink@@QEAAXW4ZNZoomSDKWallpaperSettingStatus@@V?$basic_string@_WU?$char_traits@_W@std@@V?$allocator@_W@2@@std@@@Z 00000001800292a0 f i setting_wallpaper_wrap_core.obj
 0001:00028500       ?onPersonalWallpaperImageDownloadStatus@ZNativeSDKWallpaperSettingContextWrapSink@@QEAAXW4ZNZoomSDKWallpaperSettingStatus@@V?$basic_string@_WU?$char_traits@_W@std@@V?$allocator@_W@2@@std@@@Z 0000000180029500 f i setting_wallpaper_wrap_core.obj
 0001:00028760       ??_EZSettingWallpaperWrap@@UEAAPEAXI@Z 0000000180029760 f i * CIL library *:* CIL module *
 0001:00028760       ??_GZSettingWallpaperWrap@@UEAAPEAXI@Z 0000000180029760 f i setting_wallpaper_wrap_core.obj
 0001:000287a0       ??1ZSettingWallpaperWrap@@UEAA@XZ 00000001800297a0 f   setting_wallpaper_wrap_core.obj
 0001:00028900       ?GetMeetingWallpaperList@ZSettingWallpaperWrap@@QEAA?AV?$vector@UtagWallpaperItem@@V?$allocator@UtagWallpaperItem@@@std@@@std@@XZ 0000000180029900 f   setting_wallpaper_wrap_core.obj
 0001:00028b00       ?SetMeetingWallpaper@ZSettingWallpaperWrap@@QEAA?AW4ZNSDKError@@V?$basic_string@_WU?$char_traits@_W@std@@V?$allocator@_W@2@@std@@HW4ZNZoomSDKWallpaperLayoutMode@@@Z 0000000180029b00 f   setting_wallpaper_wrap_core.obj
 0001:00028cc0       ?GetPersonalWallpaperList@ZSettingWallpaperWrap@@QEAA?AV?$vector@UtagWallpaperItem@@V?$allocator@UtagWallpaperItem@@@std@@@std@@XZ 0000000180029cc0 f   setting_wallpaper_wrap_core.obj
 0001:00028ec0       ?SetPersonalWallpaper@ZSettingWallpaperWrap@@QEAA?AW4ZNSDKError@@V?$basic_string@_WU?$char_traits@_W@std@@V?$allocator@_W@2@@std@@HW4ZNZoomSDKWallpaperLayoutMode@@@Z 0000000180029ec0 f   setting_wallpaper_wrap_core.obj
 0001:00029080       ??$_Emplace_reallocate@AEBUtagWallpaperItem@@@?$vector@UtagWallpaperItem@@V?$allocator@UtagWallpaperItem@@@std@@@std@@AEAAPEAUtagWallpaperItem@@QEAU2@AEBU2@@Z 000000018002a080 f i setting_wallpaper_wrap_core.obj
 0001:00029350       ??0tagWallpaperItem@@QEAA@$$QEAU0@@Z 000000018002a350 f i setting_wallpaper_wrap_core.obj
 0001:00029430       ??_EZSettingVirtualBGWrap@@UEAAPEAXI@Z 000000018002a430 f i * CIL library *:* CIL module *
 0001:00029430       ??_GZSettingVirtualBGWrap@@UEAAPEAXI@Z 000000018002a430 f i setting_virtual_bg_wrap_core.obj
 0001:00029470       ??1ZSettingVirtualBGWrap@@UEAA@XZ 000000018002a470 f   setting_virtual_bg_wrap_core.obj
 0001:00029650       ?GetBGImageList@ZSettingVirtualBGWrap@@QEAA?AV?$vector@UtagVirtualBGImageInfo@@V?$allocator@UtagVirtualBGImageInfo@@@std@@@std@@XZ 000000018002a650 f   setting_virtual_bg_wrap_core.obj
 0001:00029830       ?GetBGVideoList@ZSettingVirtualBGWrap@@QEAA?AV?$vector@UtagVirtualBGImageInfo@@V?$allocator@UtagVirtualBGImageInfo@@@std@@@std@@XZ 000000018002a830 f   setting_virtual_bg_wrap_core.obj
 0001:00029a20       ??0?$vector@UtagVirtualBGImageInfo@@V?$allocator@UtagVirtualBGImageInfo@@@std@@@std@@QEAA@AEBV01@@Z 000000018002aa20 f i setting_virtual_bg_wrap_core.obj
 0001:00029b60       ?_Tidy@?$vector@UtagVirtualBGImageInfo@@V?$allocator@UtagVirtualBGImageInfo@@@std@@@std@@AEAAXXZ 000000018002ab60 f i setting_virtual_bg_wrap_core.obj
 0001:00029c20       ??$_Emplace_reallocate@AEBUtagVirtualBGImageInfo@@@?$vector@UtagVirtualBGImageInfo@@V?$allocator@UtagVirtualBGImageInfo@@@std@@@std@@AEAAPEAUtagVirtualBGImageInfo@@QEAU2@AEBU2@@Z 000000018002ac20 f i setting_virtual_bg_wrap_core.obj
 0001:00029e70       ??$_Uninitialized_move@PEAUtagVirtualBGImageInfo@@V?$allocator@UtagVirtualBGImageInfo@@@std@@@std@@YAPEAUtagVirtualBGImageInfo@@QEAU1@0PEAU1@AEAV?$allocator@UtagVirtualBGImageInfo@@@0@@Z 000000018002ae70 f i setting_virtual_bg_wrap_core.obj
 0001:00029f40       ??_EZDirectShareHelperWrap@@UEAAPEAXI@Z 000000018002af40 f i * CIL library *:* CIL module *
 0001:00029f40       ??_GZDirectShareHelperWrap@@UEAAPEAXI@Z 000000018002af40 f i directshare_helper_wrap_core.obj
 0001:00029f80       ??1ZDirectShareHelperWrap@@UEAA@XZ 000000018002af80 f   directshare_helper_wrap_core.obj
 0001:0002a0d0       ??_EZSDKSMSHelperWrap@@UEAAPEAXI@Z 000000018002b0d0 f i * CIL library *:* CIL module *
 0001:0002a0d0       ??_GZSDKSMSHelperWrap@@UEAAPEAXI@Z 000000018002b0d0 f i zoom_sdk_sms_helper_wrap_core.obj
 0001:0002a110       ??1ZSDKSMSHelperWrap@@UEAA@XZ 000000018002b110 f   zoom_sdk_sms_helper_wrap_core.obj
 0001:0002a2d0       ?Init@ZSDKSMSHelperWrap@@QEAAXXZ 000000018002b2d0 f   zoom_sdk_sms_helper_wrap_core.obj
 0001:0002a4a0       ?GetSupportPhoneNumberCountryList@ZSDKSMSHelperWrap@@QEAA?AV?$vector@U_ZNZoomRealNameAuthCountryInfo@@V?$allocator@U_ZNZoomRealNameAuthCountryInfo@@@std@@@std@@XZ 000000018002b4a0 f   zoom_sdk_sms_helper_wrap_core.obj
 0001:0002a780       ?NODE_SET_PROTOTYPE_METHOD@node@@YAXV?$Local@VFunctionTemplate@v8@@@v8@@PEBDP6AXAEBV?$FunctionCallbackInfo@VValue@v8@@@3@@Z@Z 000000018002b780 f i zoom_node_addon.obj
 0001:0002a8f0       ?Wrap@ObjectWrap@node@@IEAAXV?$Local@VObject@v8@@@v8@@@Z 000000018002b8f0 f i zoom_node_addon.obj
 0001:0002a9c0       ?Ref@ObjectWrap@node@@MEAAXXZ 000000018002b9c0 f i zoom_node_addon.obj
 0001:0002aa00       ?Unref@ObjectWrap@node@@MEAAXXZ 000000018002ba00 f i zoom_node_addon.obj
 0001:0002aaa0       ?WeakCallback@ObjectWrap@node@@CAXAEBV?$WeakCallbackInfo@VObjectWrap@node@@@v8@@@Z 000000018002baa0 f i zoom_node_addon.obj
 0001:0002ab00       ??_EObjectWrap@node@@UEAAPEAXI@Z 000000018002bb00 f i * CIL library *:* CIL module *
 0001:0002ab00       ??_EZoomNodeCustomizedResourceWrap@@EEAAPEAXI@Z 000000018002bb00 f i * CIL library *:* CIL module *
 0001:0002ab00       ??_EZoomNodeMeetingAANCtrlWrap@@EEAAPEAXI@Z 000000018002bb00 f i * CIL library *:* CIL module *
 0001:0002ab00       ??_EZoomNodeMeetingAnnotationWrap@@EEAAPEAXI@Z 000000018002bb00 f i * CIL library *:* CIL module *
 0001:0002ab00       ??_EZoomNodeMeetingInfoWrap@@EEAAPEAXI@Z 000000018002bb00 f i * CIL library *:* CIL module *
 0001:0002ab00       ??_EZoomNodeMeetingParticipantsCtrlWrap@@EEAAPEAXI@Z 000000018002bb00 f i * CIL library *:* CIL module *
 0001:0002ab00       ??_EZoomNodeMeetingRawArchivingCtrlWrap@@EEAAPEAXI@Z 000000018002bb00 f i * CIL library *:* CIL module *
 0001:0002ab00       ??_EZoomNodeRawApiCtrlWrap@@EEAAPEAXI@Z 000000018002bb00 f i * CIL library *:* CIL module *
 0001:0002ab00       ??_EZoomNodeRequestRawLiveStreamPrivilegeHandlerWrap@@EEAAPEAXI@Z 000000018002bb00 f i * CIL library *:* CIL module *
 0001:0002ab00       ??_EZoomNodeSettingAccessibilityCtrlWrap@@EEAAPEAXI@Z 000000018002bb00 f i * CIL library *:* CIL module *
 0001:0002ab00       ??_EZoomNodeSettingGeneralCtrlWrap@@EEAAPEAXI@Z 000000018002bb00 f i * CIL library *:* CIL module *
 0001:0002ab00       ??_EZoomNodeSettingShareCtrlWrap@@EEAAPEAXI@Z 000000018002bb00 f i * CIL library *:* CIL module *
 0001:0002ab00       ??_EZoomNodeSettingStatisticCtrlWrap@@EEAAPEAXI@Z 000000018002bb00 f i * CIL library *:* CIL module *
 0001:0002ab00       ??_EZoomNodeSettingUIStrategyCtrlWrap@@EEAAPEAXI@Z 000000018002bb00 f i * CIL library *:* CIL module *
 0001:0002ab00       ??_EZoomNodeSettingWrap@@EEAAPEAXI@Z 000000018002bb00 f i * CIL library *:* CIL module *
 0001:0002ab00       ??_EZoomNodeWrap@@EEAAPEAXI@Z 000000018002bb00 f i * CIL library *:* CIL module *
 0001:0002ab00       ??_GObjectWrap@node@@UEAAPEAXI@Z 000000018002bb00 f i zoom_node_addon.obj
 0001:0002ab00       ??_GZoomNodeCustomizedResourceWrap@@EEAAPEAXI@Z 000000018002bb00 f i zoom_node_customized_resource.obj
 0001:0002ab00       ??_GZoomNodeMeetingAANCtrlWrap@@EEAAPEAXI@Z 000000018002bb00 f i zoom_node_meeting_AAN_ctrl.obj
 0001:0002ab00       ??_GZoomNodeMeetingAnnotationWrap@@EEAAPEAXI@Z 000000018002bb00 f i zoom_node_addon.obj
 0001:0002ab00       ??_GZoomNodeMeetingInfoWrap@@EEAAPEAXI@Z 000000018002bb00 f i zoom_node_addon.obj
 0001:0002ab00       ??_GZoomNodeMeetingParticipantsCtrlWrap@@EEAAPEAXI@Z 000000018002bb00 f i zoom_node_meeting_participants_ctrl.obj
 0001:0002ab00       ??_GZoomNodeMeetingRawArchivingCtrlWrap@@EEAAPEAXI@Z 000000018002bb00 f i zoom_node_meeting_raw_archiving_ctrl.obj
 0001:0002ab00       ??_GZoomNodeRawApiCtrlWrap@@EEAAPEAXI@Z 000000018002bb00 f i zoom_node_rawdata_api_ctrl.obj
 0001:0002ab00       ??_GZoomNodeRequestRawLiveStreamPrivilegeHandlerWrap@@EEAAPEAXI@Z 000000018002bb00 f i zoom_node_meeting_live_stream_ctrl.obj
 0001:0002ab00       ??_GZoomNodeSettingAccessibilityCtrlWrap@@EEAAPEAXI@Z 000000018002bb00 f i zoom_node_setting_accessibility_ctrl.obj
 0001:0002ab00       ??_GZoomNodeSettingGeneralCtrlWrap@@EEAAPEAXI@Z 000000018002bb00 f i zoom_node_setting_general_ctrl.obj
 0001:0002ab00       ??_GZoomNodeSettingShareCtrlWrap@@EEAAPEAXI@Z 000000018002bb00 f i zoom_node_setting_share_ctrl.obj
 0001:0002ab00       ??_GZoomNodeSettingStatisticCtrlWrap@@EEAAPEAXI@Z 000000018002bb00 f i zoom_node_setting_statistic_ctrl.obj
 0001:0002ab00       ??_GZoomNodeSettingUIStrategyCtrlWrap@@EEAAPEAXI@Z 000000018002bb00 f i zoom_node_setting_ui_strategy_ctrl.obj
 0001:0002ab00       ??_GZoomNodeSettingWrap@@EEAAPEAXI@Z 000000018002bb00 f i zoom_node_addon.obj
 0001:0002ab00       ??_GZoomNodeWrap@@EEAAPEAXI@Z 000000018002bb00 f i zoom_node_addon.obj
 0001:0002ab60       ??0_ZNJoinParam@@QEAA@XZ   000000018002bb60 f i zoom_node_addon.obj
 0001:0002acd0       ?GetInst@ZoomNodeAPIUtilHelper@@SAAEAV1@XZ 000000018002bcd0 f i zoom_node_addon.obj
 0001:0002ad60       ?Reset@ZoomNodeSinkHelper@@QEAAXXZ 000000018002bd60 f i zoom_node_addon.obj
 0001:0002be30       ?onAuthenticationReturn@ZNativeSDKAuthWrapSink@@UEAAXW4ZNAuthResult@@@Z 000000018002ce30 f i zoom_node_addon.obj
 0001:0002bf80       ?onLogout@ZNativeSDKAuthWrapSink@@UEAAXXZ 000000018002cf80 f i zoom_node_addon.obj
 0001:0002c0b0       ?onZoomIdentityExpired@ZNativeSDKAuthWrapSink@@UEAAXXZ 000000018002d0b0 f i zoom_node_addon.obj
 0001:0002c1e0       ?onZoomAuthIdentityExpired@ZNativeSDKAuthWrapSink@@UEAAXXZ 000000018002d1e0 f i zoom_node_addon.obj
 0001:0002c310       ?onLoginReturnWithReason@ZNativeSDKAuthWrapSink@@UEAAXW4ZNLOGINSTATUS@@W4ZNLoginFailReason@@@Z 000000018002d310 f i zoom_node_addon.obj
 0001:0002c490       ?onMeetingStatusChanged@ZNativeSDKMeetingWrapSink@@UEAAXW4ZNMeetingStatus@@H@Z 000000018002d490 f i zoom_node_addon.obj
 0001:0002c610       ?onMeetingStatisticsWarningNotification@ZNativeSDKMeetingWrapSink@@UEAAXW4ZNStatisticsWarningType@@@Z 000000018002d610 f i zoom_node_addon.obj
 0001:0002c760       ?onMeetingParameterNotification@ZNativeSDKMeetingWrapSink@@UEAAXUtagZNMeetingParameter@@@Z 000000018002d760 f i zoom_node_addon.obj
 0001:0002cd30       ?onMeetingTopicChanged@ZNativeSDKMeetingWrapSink@@UEAAXV?$basic_string@_WU?$char_traits@_W@std@@V?$allocator@_W@2@@std@@@Z 000000018002dd30 f i zoom_node_addon.obj
 0001:0002cf80       ?onMeetingFullToWatchLiveStream@ZNativeSDKMeetingWrapSink@@UEAAXV?$basic_string@_WU?$char_traits@_W@std@@V?$allocator@_W@2@@std@@@Z 000000018002df80 f i zoom_node_addon.obj
 0001:0002d1d0       ?onUserNetworkStatusChanged@ZNativeSDKMeetingWrapSink@@UEAAXW4ZNMeetingComponentType@@W4ZNConnectionQuality@@I_N@Z 000000018002e1d0 f i zoom_node_addon.obj
 0001:0002d380       ?onAppSignalPanelUpdated@ZNativeSDKMeetingWrapSink@@UEAAXXZ 000000018002e380 f i zoom_node_addon.obj
 0001:0002d4b0       ?onInviteBtnClicked@ZNativeSDKMeetingUICtrlWrapSink@@UEAAXAEA_N@Z 000000018002e4b0 f i zoom_node_addon.obj
 0001:0002d630       ?onStartShareBtnClicked@ZNativeSDKMeetingUICtrlWrapSink@@UEAAXXZ 000000018002e630 f i zoom_node_addon.obj
 0001:0002d760       ?onEndMeetingBtnClicked@ZNativeSDKMeetingUICtrlWrapSink@@UEAAXXZ 000000018002e760 f i zoom_node_addon.obj
 0001:0002d890       ?onParticipantListBtnClicked@ZNativeSDKMeetingUICtrlWrapSink@@UEAAXXZ 000000018002e890 f i zoom_node_addon.obj
 0001:0002d9c0       ?onCustomLiveStreamMenuClicked@ZNativeSDKMeetingUICtrlWrapSink@@UEAAXXZ 000000018002e9c0 f i zoom_node_addon.obj
 0001:0002daf0       ?onZoomInviteDialogFailed@ZNativeSDKMeetingUICtrlWrapSink@@UEAAXXZ 000000018002eaf0 f i zoom_node_addon.obj
 0001:0002dc20       ?onCCBTNClicked@ZNativeSDKMeetingUICtrlWrapSink@@UEAAXXZ 000000018002ec20 f i zoom_node_addon.obj
 0001:0002dd50       ?onAudioBtnClicked@ZNativeSDKMeetingUICtrlWrapSink@@UEAAXUtagZNAudioBtnClickedCallbackInfo@@@Z 000000018002ed50 f i zoom_node_addon.obj
 0001:0002ded0       ?onAudioMenuBtnClicked@ZNativeSDKMeetingUICtrlWrapSink@@UEAAXXZ 000000018002eed0 f i zoom_node_addon.obj
 0001:0002e000       ?onUserAudioStatusChange@ZNativeSDKMeetingAudioWrapSink@@UEAAXV?$vector@U_ZNUserAudioStatus@@V?$allocator@U_ZNUserAudioStatus@@@std@@@std@@V?$basic_string@_WU?$char_traits@_W@std@@V?$allocator@_W@2@@3@@Z 000000018002f000 f i zoom_node_addon.obj
 0001:0002e3e0       ?onUserActiveAudioChange@ZNativeSDKMeetingAudioWrapSink@@UEAAXV?$vector@IV?$allocator@I@std@@@std@@@Z 000000018002f3e0 f i zoom_node_addon.obj
 0001:0002e730       ?onMuteOnEntryStatusChange@ZNativeSDKMeetingAudioWrapSink@@UEAAX_N@Z 000000018002f730 f i zoom_node_addon.obj
 0001:0002e880       ?onUserVideoStatusChange@ZNativeSDKMeetingVideoWrapSink@@UEAAXIW4ZNVideoStatus@@@Z 000000018002f880 f i zoom_node_addon.obj
 0001:0002eab0       ?onActiveSpeakerVideoUserChanged@ZNativeSDKMeetingVideoWrapSink@@UEAAXI@Z 000000018002fab0 f i zoom_node_addon.obj
 0001:0002ec10       ?onActiveVideoUserChanged@ZNativeSDKMeetingVideoWrapSink@@UEAAXI@Z 000000018002fc10 f i zoom_node_addon.obj
 0001:0002ed70       ?onSharingStatus@ZNativeSDKMeetingShareWrapSink@@UEAAXUtagZoomSDKSharingSourceInfo@@@Z 000000018002fd70 f i zoom_node_addon.obj
 0001:0002eee0       ?onFailedToStartShare@ZNativeSDKMeetingShareWrapSink@@UEAAXXZ 000000018002fee0 f i zoom_node_addon.obj
 0001:0002f010       ?onOptimizingShareForVideoClipStatusChanged@ZNativeSDKMeetingShareWrapSink@@UEAAXUtagZoomSDKSharingSourceInfo@@@Z 0000000180030010 f i zoom_node_addon.obj
 0001:0002f180       ?onSupportAnnotationStatus@ZNativeSDKMeetingAnnotationWrapSink@@UEAAXI_N@Z 0000000180030180 f i zoom_node_addon.obj
 0001:0002f300       ?onUserJoin@ZNativeSDKMeetingParticipantsWrapSink@@UEAAXV?$vector@IV?$allocator@I@std@@@std@@V?$basic_string@_WU?$char_traits@_W@std@@V?$allocator@_W@2@@3@@Z 0000000180030300 f i zoom_node_addon.obj
 0001:0002f670       ?onUserLeft@ZNativeSDKMeetingParticipantsWrapSink@@UEAAXV?$vector@IV?$allocator@I@std@@@std@@V?$basic_string@_WU?$char_traits@_W@std@@V?$allocator@_W@2@@3@@Z 0000000180030670 f i zoom_node_addon.obj
 0001:0002f9e0       ?onHostChangeNotification@ZNativeSDKMeetingParticipantsWrapSink@@UEAAXI@Z 00000001800309e0 f i zoom_node_addon.obj
 0001:0002fb40       ?onAllowParticipantsRequestCloudRecording@ZNativeSDKMeetingParticipantsWrapSink@@UEAAX_N@Z 0000000180030b40 f i zoom_node_addon.obj
 0001:0002fc90       ?onBotAuthorizerRelationChanged@ZNativeSDKMeetingParticipantsWrapSink@@UEAAXI@Z 0000000180030c90 f i zoom_node_addon.obj
 0001:0002fdf0       ?onH323CalloutStatusNotify@ZNativeSDKMeetingH323WrapSink@@UEAAXW4ZNH323CalloutStatus@@@Z 0000000180030df0 f i zoom_node_addon.obj
 0001:0002ff50       ?onFreeMeetingNeedToUpgrade@ZNativeSDKMeetingConfigWrapFreemeetingSink@@UEAAXW4ZNFreeMeetingNeedUpgradeType@@V?$basic_string@_WU?$char_traits@_W@std@@V?$allocator@_W@2@@std@@@Z 0000000180030f50 f i zoom_node_addon.obj
 0001:00030280       ?onFreeMeetingUpgradeToGiftFreeTrialStart@ZNativeSDKMeetingConfigWrapFreemeetingSink@@UEAAXXZ 0000000180031280 f i zoom_node_addon.obj
 0001:000303b0       ?onFreeMeetingUpgradeToGiftFreeTrialStop@ZNativeSDKMeetingConfigWrapFreemeetingSink@@UEAAXXZ 00000001800313b0 f i zoom_node_addon.obj
 0001:000304e0       ?onFreeMeetingUpgradeToProMeeting@ZNativeSDKMeetingConfigWrapFreemeetingSink@@UEAAXXZ 00000001800314e0 f i zoom_node_addon.obj
 0001:00030610       ?onInputMeetingPasswordAndScreenNameNotification@ZNativeSDKMeetingConfigWrapFreemeetingSink@@UEAAXXZ 0000000180031610 f i zoom_node_addon.obj
 0001:00030740       ?onAirPlayInstructionWndNotification@ZNativeSDKMeetingConfigWrapFreemeetingSink@@UEAAX_NV?$basic_string@_WU?$char_traits@_W@std@@V?$allocator@_W@2@@std@@@Z 0000000180031740 f i zoom_node_addon.obj
 0001:000309b0       ?onWebinarNeedRegisterNotification@ZNativeSDKMeetingConfigWrapFreemeetingSink@@UEAAXXZ 00000001800319b0 f i zoom_node_addon.obj
 0001:00030ae0       ?onEndOtherMeetingToJoinMeetingNotification@ZNativeSDKMeetingConfigWrapFreemeetingSink@@UEAAXXZ 0000000180031ae0 f i zoom_node_addon.obj
 0001:00030c10       ?onFreeMeetingRemainTime@ZNativeSDKMeetingConfigWrapFreemeetingSink@@UEAAXI@Z 0000000180031c10 f i zoom_node_addon.obj
 0001:00030d70       ?onFreeMeetingRemainTimeStopCountDown@ZNativeSDKMeetingConfigWrapFreemeetingSink@@UEAAXXZ 0000000180031d70 f i zoom_node_addon.obj
 0001:00030ea0       ?onWebinarNeedInputScreenName@ZNativeSDKMeetingConfigWrapFreemeetingSink@@UEAAXXZ 0000000180031ea0 f i zoom_node_addon.obj
 0001:00030fd0       ?onJoinMeetingNeedUserInfo@ZNativeSDKMeetingConfigWrapFreemeetingSink@@UEAAXXZ 0000000180031fd0 f i zoom_node_addon.obj
 0001:00031100       ?onUserConfirmToStartArchive@ZNativeSDKMeetingConfigWrapFreemeetingSink@@UEAAXXZ 0000000180032100 f i zoom_node_addon.obj
 0001:00031230       ?OnDirectShareStatusUpdate@ZNativeSDKDirectShareHelperWrapSink@@UEAAXW4ZNDirectShareStatus@@@Z 0000000180032230 f i zoom_node_addon.obj
 0001:000313f0       ?onNeedRealNameAuthMeetingNotification@ZNativeSDKSMSHelperWrapSink@@UEAAXV?$vector@U_ZNZoomRealNameAuthCountryInfo@@V?$allocator@U_ZNZoomRealNameAuthCountryInfo@@@std@@@std@@V?$basic_string@_WU?$char_traits@_W@std@@V?$allocator@_W@2@@3@@Z 00000001800323f0 f i zoom_node_addon.obj
 0001:00031b10       ?onRetrieveSMSVerificationCodeResultNotification@ZNativeSDKSMSHelperWrapSink@@UEAAXW4ZNSMSVerificationCodeErr@@@Z 0000000180032b10 f i zoom_node_addon.obj
 0001:00031c70       ?onVerifySMSVerificationCodeResultNotification@ZNativeSDKSMSHelperWrapSink@@UEAAXW4ZNSMSVerificationCodeErr@@@Z 0000000180032c70 f i zoom_node_addon.obj
 0001:00031dd0       ?onComputerMicDeviceChanged@ZNativeSDKAudioSettingContextWrapSink@@UEAAXV?$vector@U_ZNMicInfo@@V?$allocator@U_ZNMicInfo@@@std@@@std@@@Z 0000000180032dd0 f i zoom_node_addon.obj
 0001:00032360       ?onComputerSpeakerDeviceChanged@ZNativeSDKAudioSettingContextWrapSink@@UEAAXV?$vector@U_ZNSpeakerInfo@@V?$allocator@U_ZNSpeakerInfo@@@std@@@std@@@Z 0000000180033360 f i zoom_node_addon.obj
 0001:000328f0       ?onDefaultMicDeviceChanged@ZNativeSDKAudioSettingContextWrapSink@@UEAAXV?$basic_string@_WU?$char_traits@_W@std@@V?$allocator@_W@2@@std@@0@Z 00000001800338f0 f i zoom_node_addon.obj
 0001:00032c30       ?onDefaultSpeakerDeviceChanged@ZNativeSDKAudioSettingContextWrapSink@@UEAAXV?$basic_string@_WU?$char_traits@_W@std@@V?$allocator@_W@2@@std@@0@Z 0000000180033c30 f i zoom_node_addon.obj
 0001:00032f70       ?onComputerCamDeviceChanged@ZNativeSDKVideoSettingContextWrapSink@@UEAAXV?$vector@U_ZNCameraInfo@@V?$allocator@U_ZNCameraInfo@@@std@@@std@@@Z 0000000180033f70 f i zoom_node_addon.obj
 0001:00033500       ?onDefaultCamDeviceChanged@ZNativeSDKVideoSettingContextWrapSink@@UEAAXV?$basic_string@_WU?$char_traits@_W@std@@V?$allocator@_W@2@@std@@0@Z 0000000180034500 f i zoom_node_addon.obj
 0001:00033840       ?onMeetingWallpaperChanged@ZNativeSDKWallpaperSettingContextWrapSink@@UEAAXUtagWallpaperItem@@@Z 0000000180034840 f i zoom_node_addon.obj
 0001:000339c0       ?onPersonalWallpaperChanged@ZNativeSDKWallpaperSettingContextWrapSink@@UEAAXUtagWallpaperItem@@@Z 00000001800349c0 f i zoom_node_addon.obj
 0001:00033b40       ?onVBImageDidDownloaded@ZNativeSDKVirtualBGSettingContextWrapSink@@UEAAXXZ 0000000180034b40 f i zoom_node_addon.obj
 0001:00033c70       ?onGreenVBDidUpdateWithReplaceColor@ZNativeSDKVirtualBGSettingContextWrapSink@@UEAAXUZNZoomSDKColor@@@Z 0000000180034c70 f i zoom_node_addon.obj
 0001:00033f00       ?onSelectedVBImageChanged@ZNativeSDKVirtualBGSettingContextWrapSink@@UEAAXXZ 0000000180034f00 f i zoom_node_addon.obj
 0001:00034030       ?onVBVideoUploadedResult@ZNativeSDKVirtualBGSettingContextWrapSink@@UEAAX_NW4ZNVBVideoError@@@Z 0000000180035030 f i zoom_node_addon.obj
 0001:000341b0       ?onRecording2MP4Done@ZNativeSDKMeetingRecordingWrapSink@@UEAAX_NHV?$basic_string@_WU?$char_traits@_W@std@@V?$allocator@_W@2@@std@@@Z 00000001800351b0 f i zoom_node_addon.obj
 0001:00034430       ?onRecording2MP4Processing@ZNativeSDKMeetingRecordingWrapSink@@UEAAXH@Z 0000000180035430 f i zoom_node_addon.obj
 0001:00034590       ?onRecordingStatus@ZNativeSDKMeetingRecordingWrapSink@@UEAAXW4ZNRecordingStatus@@@Z 0000000180035590 f i zoom_node_addon.obj
 0001:000346f0       ?onCloudRecordingStatus@ZNativeSDKMeetingRecordingWrapSink@@UEAAXW4ZNRecordingStatus@@@Z 00000001800356f0 f i zoom_node_addon.obj
 0001:00034850       ?onRecordPrivilegeChanged@ZNativeSDKMeetingRecordingWrapSink@@UEAAX_N@Z 0000000180035850 f i zoom_node_addon.obj
 0001:000349a0       ?onCloudRecordingStorageFull@ZNativeSDKMeetingRecordingWrapSink@@UEAAX_J@Z 00000001800359a0 f i zoom_node_addon.obj
 0001:00034b00       ?onRequestCloudRecordingResponse@ZNativeSDKMeetingRecordingWrapSink@@UEAAXW4ZNRequestStartCloudRecordingStatus@@@Z 0000000180035b00 f i zoom_node_addon.obj
 0001:00034c60       ?onStartCloudRecordingRequested@ZNativeSDKMeetingRecordingWrapSink@@UEAAXXZ 0000000180035c60 f i zoom_node_addon.obj
 0001:00034d90       ?onEnableAndStartSmartRecordingRequested@ZNativeSDKMeetingRecordingWrapSink@@UEAAXXZ 0000000180035d90 f i zoom_node_addon.obj
 0001:00034ec0       ?onSmartRecordingEnableActionCallback@ZNativeSDKMeetingRecordingWrapSink@@UEAAXXZ 0000000180035ec0 f i zoom_node_addon.obj
 0001:00034ff0       ?onLiveStreamStatusChange@ZNativeSDKMeetingLiveStreamWrapSink@@UEAAXW4ZNLiveStreamStatus@@@Z 0000000180035ff0 f i zoom_node_addon.obj
 0001:00035150       ?onRawLiveStreamPrivilegeChanged@ZNativeSDKMeetingLiveStreamWrapSink@@UEAAX_N@Z 0000000180036150 f i zoom_node_addon.obj
 0001:000352a0       ?onUserRawLiveStreamPrivilegeChanged@ZNativeSDKMeetingLiveStreamWrapSink@@UEAAXI_N@Z 00000001800362a0 f i zoom_node_addon.obj
 0001:00035440       ?onRawLiveStreamPrivilegeRequested@ZNativeSDKMeetingLiveStreamWrapSink@@UEAAXXZ 0000000180036440 f i zoom_node_addon.obj
 0001:00035570       ?onUserRawLiveStreamingStatusChanged@ZNativeSDKMeetingLiveStreamWrapSink@@UEAAXV?$vector@UZNRawLiveStreamInfo@@V?$allocator@UZNRawLiveStreamInfo@@@std@@@std@@@Z 0000000180036570 f i zoom_node_addon.obj
 0001:000359e0       ?onRawLiveStreamPrivilegeRequestTimeout@ZNativeSDKMeetingLiveStreamWrapSink@@UEAAXXZ 00000001800369e0 f i zoom_node_addon.obj
 0001:00035b10       ?onLiveStreamReminderStatusChanged@ZNativeSDKMeetingLiveStreamWrapSink@@UEAAX_N@Z 0000000180036b10 f i zoom_node_addon.obj
 0001:00035c60       ?onLiveStreamReminderStatusChangeFailed@ZNativeSDKMeetingLiveStreamWrapSink@@UEAAXXZ 0000000180036c60 f i zoom_node_addon.obj
 0001:00035d90       ?onUserThresholdReachedForLiveStream@ZNativeSDKMeetingLiveStreamWrapSink@@UEAAXH@Z 0000000180036d90 f i zoom_node_addon.obj
 0001:00035ef0       ?onReminderNotify@ZNativeSDKMeetingReminderWrapSink@@UEAAXU_ZNMeetingReminderContent@@@Z 0000000180036ef0 f i zoom_node_addon.obj
 0001:000363b0       ?onEnableReminderNotify@ZNativeSDKMeetingReminderWrapSink@@UEAAXU_ZNMeetingReminderContent@@@Z 00000001800373b0 f i zoom_node_addon.obj
 0001:00036870       ?onChatMsgNotification@ZNativeSDKMeetingChatWrapSink@@UEAAXU_ZNChatMsgInfo@@V?$basic_string@_WU?$char_traits@_W@std@@V?$allocator@_W@2@@std@@@Z 0000000180037870 f i zoom_node_addon.obj
 0001:00036b20       ?onChatStatusChangedNotification@ZNativeSDKMeetingChatWrapSink@@UEAAXU_ZNChatStatus@@@Z 0000000180037b20 f i zoom_node_addon.obj
 0001:000370c0       ?onChatMsgDeleteNotification@ZNativeSDKMeetingChatWrapSink@@UEAAXV?$basic_string@_WU?$char_traits@_W@std@@V?$allocator@_W@2@@std@@W4ZNSDKChatMessageDeleteType@@@Z 00000001800380c0 f i zoom_node_addon.obj
 0001:00037330       ?onChatMessageEditNotification@ZNativeSDKMeetingChatWrapSink@@UEAAXU_ZNChatMsgInfo@@@Z 0000000180038330 f i zoom_node_addon.obj
 0001:000374d0       ?onShareMeetingChatStatusChanged@ZNativeSDKMeetingChatWrapSink@@UEAAX_N@Z 00000001800384d0 f i zoom_node_addon.obj
 0001:00037620       ?onFileSendStart@ZNativeSDKMeetingChatWrapSink@@UEAAXUtagSDKFileTransferInfo@@@Z 0000000180038620 f i zoom_node_addon.obj
 0001:00037cc0       ?onFileReceived@ZNativeSDKMeetingChatWrapSink@@UEAAXUtagSDKFileTransferInfo@@@Z 0000000180038cc0 f i zoom_node_addon.obj
 0001:00038360       ?onFileTransferProgress@ZNativeSDKMeetingChatWrapSink@@UEAAXUtagSDKFileTransferInfo@@@Z 0000000180039360 f i zoom_node_addon.obj
 0001:00038a00       ?onWaitingRoomUserJoin@ZNativeSDKMeetingWaitingRoomWrapSink@@UEAAXI@Z 0000000180039a00 f i zoom_node_addon.obj
 0001:00038b60       ?onWaitingRoomUserLeft@ZNativeSDKMeetingWaitingRoomWrapSink@@UEAAXI@Z 0000000180039b60 f i zoom_node_addon.obj
 0001:00038cc0       ?onWaitingRoomPresetAudioStatusChanged@ZNativeSDKMeetingWaitingRoomWrapSink@@UEAAX_N@Z 0000000180039cc0 f i zoom_node_addon.obj
 0001:00038e10       ?onWaitingRoomPresetVideoStatusChanged@ZNativeSDKMeetingWaitingRoomWrapSink@@UEAAX_N@Z 0000000180039e10 f i zoom_node_addon.obj
 0001:00038f60       ?onCustomWaitingRoomDataUpdated@ZNativeSDKMeetingWaitingRoomWrapSink@@UEAAXUCustomWaitingRoomData_s@@@Z 0000000180039f60 f i zoom_node_addon.obj
 0001:0003a270       ?onWaitingRoomUserNameChanged@ZNativeSDKMeetingWaitingRoomWrapSink@@UEAAXIV?$basic_string@_WU?$char_traits@_W@std@@V?$allocator@_W@2@@std@@@Z 000000018003b270 f i zoom_node_addon.obj
 0001:0003a4d0       ?onWaitingRoomEntranceEnabled@ZNativeSDKMeetingWaitingRoomWrapSink@@UEAAX_N@Z 000000018003b4d0 f i zoom_node_addon.obj
 0001:0003a620       ?onAICompanionFeatureTurnOffByParticipant@ZNativeSDKMeetingAICompanionWrapSink@@UEAAXXZ 000000018003b620 f i zoom_node_addon.obj
 0001:0003a750       ?onAICompanionFeatureSwitchRequested@ZNativeSDKMeetingAICompanionWrapSink@@UEAAXXZ 000000018003b750 f i zoom_node_addon.obj
 0001:0003a880       ?onAICompanionFeatureSwitchRequestResponse@ZNativeSDKMeetingAICompanionWrapSink@@UEAAX_N00@Z 000000018003b880 f i zoom_node_addon.obj
 0001:0003aa30       ?onAICompanionFeatureCanNotBeTurnedOff@ZNativeSDKMeetingAICompanionWrapSink@@UEAAXV?$vector@W4ZNAICompanionFeature@@V?$allocator@W4ZNAICompanionFeature@@@std@@@std@@@Z 000000018003ba30 f i zoom_node_addon.obj
 0001:0003acc0       ?onHostUnsupportedStopNotesRequest@ZNativeSDKMeetingAICompanionWrapSink@@UEAAXXZ 000000018003bcc0 f i zoom_node_addon.obj
 0001:0003adf0       ?onSmartSummaryStateNotSupported@ZNativeSDKMeetingAICompanionWrapSink@@UEAAXXZ 000000018003bdf0 f i zoom_node_addon.obj
 0001:0003af20       ?onSmartSummaryStateSupportedButDisabled@ZNativeSDKMeetingAICompanionWrapSink@@UEAAXXZ 000000018003bf20 f i zoom_node_addon.obj
 0001:0003b050       ?onSmartSummaryStateEnabledButNotStarted@ZNativeSDKMeetingAICompanionWrapSink@@UEAAXXZ 000000018003c050 f i zoom_node_addon.obj
 0001:0003b180       ?onSmartSummaryStateStarted@ZNativeSDKMeetingAICompanionWrapSink@@UEAAXXZ 000000018003c180 f i zoom_node_addon.obj
 0001:0003b2b0       ?onFailedToStartSmartSummary@ZNativeSDKMeetingAICompanionWrapSink@@UEAAX_N@Z 000000018003c2b0 f i zoom_node_addon.obj
 0001:0003b400       ?onSmartSummaryEnableRequestReceived@ZNativeSDKMeetingAICompanionWrapSink@@UEAAXXZ 000000018003c400 f i zoom_node_addon.obj
 0001:0003b530       ?onSmartSummaryStartRequestReceived@ZNativeSDKMeetingAICompanionWrapSink@@UEAAXXZ 000000018003c530 f i zoom_node_addon.obj
 0001:0003b660       ?onSmartSummaryEnableActionCallback@ZNativeSDKMeetingAICompanionWrapSink@@UEAAXXZ 000000018003c660 f i zoom_node_addon.obj
 0001:0003b790       ?onQueryStateNotSupported@ZNativeSDKMeetingAICompanionWrapSink@@UEAAXXZ 000000018003c790 f i zoom_node_addon.obj
 0001:0003b8c0       ?onQueryStateSupportedButDisabled@ZNativeSDKMeetingAICompanionWrapSink@@UEAAXXZ 000000018003c8c0 f i zoom_node_addon.obj
 0001:0003b9f0       ?onQueryStateEnabledButNotStarted@ZNativeSDKMeetingAICompanionWrapSink@@UEAAXXZ 000000018003c9f0 f i zoom_node_addon.obj
 0001:0003bb20       ?onQueryStateStarted@ZNativeSDKMeetingAICompanionWrapSink@@UEAAXXZ 000000018003cb20 f i zoom_node_addon.obj
 0001:0003bc50       ?onQuerySettingChanged@ZNativeSDKMeetingAICompanionWrapSink@@UEAAXW4ZNMeetingAICompanionQuerySettingOptions@@@Z 000000018003cc50 f i zoom_node_addon.obj
 0001:0003bdb0       ?onFailedToStartQuery@ZNativeSDKMeetingAICompanionWrapSink@@UEAAX_N@Z 000000018003cdb0 f i zoom_node_addon.obj
 0001:0003bf00       ?onReceiveRequestToEnableQuery@ZNativeSDKMeetingAICompanionWrapSink@@UEAAXXZ 000000018003cf00 f i zoom_node_addon.obj
 0001:0003c030       ?onReceiveRequestToStartQuery@ZNativeSDKMeetingAICompanionWrapSink@@UEAAXXZ 000000018003d030 f i zoom_node_addon.obj
 0001:0003c160       ?onReceiveQueryAnswer@ZNativeSDKMeetingAICompanionWrapSink@@UEAAXU_ZNMeetingAICompanionQueryItem@@@Z 000000018003d160 f i zoom_node_addon.obj
 0001:0003c870       ?onQueryEnableActionCallback@ZNativeSDKMeetingAICompanionWrapSink@@UEAAXXZ 000000018003d870 f i zoom_node_addon.obj
 0001:0003c9a0       ?onSendQueryPrivilegeChanged@ZNativeSDKMeetingAICompanionWrapSink@@UEAAX_N@Z 000000018003d9a0 f i zoom_node_addon.obj
 0001:0003caf0       ?onFailedToRequestSendQuery@ZNativeSDKMeetingAICompanionWrapSink@@UEAAX_N@Z 000000018003daf0 f i zoom_node_addon.obj
 0001:0003cc40       ?onReceiveRequestToSendQuery@ZNativeSDKMeetingAICompanionWrapSink@@UEAAXXZ 000000018003dc40 f i zoom_node_addon.obj
 0001:0003cd70       ?onIndicatorItemReceived@ZNativeSDKMeetingIndicatorWrapSink@@UEAAXXZ 000000018003dd70 f i zoom_node_addon.obj
 0001:0003cea0       ?onIndicatorItemRemoved@ZNativeSDKMeetingIndicatorWrapSink@@UEAAXXZ 000000018003dea0 f i zoom_node_addon.obj
 0001:0003cfd0       ?onPromptAttendee2PanelistResult@ZNativeSDKMeetingWebinarWrapSink@@UEAAXH@Z 000000018003dfd0 f i zoom_node_addon.obj
 0001:0003d130       ?onDepromptPanelist2AttendeeResult@ZNativeSDKMeetingWebinarWrapSink@@UEAAXH@Z 000000018003e130 f i zoom_node_addon.obj
 0001:0003d290       ?onAllowPanelistStartVideoNotification@ZNativeSDKMeetingWebinarWrapSink@@UEAAXXZ 000000018003e290 f i zoom_node_addon.obj
 0001:0003d3c0       ?onDisallowPanelistStartVideoNotification@ZNativeSDKMeetingWebinarWrapSink@@UEAAXXZ 000000018003e3c0 f i zoom_node_addon.obj
 0001:0003d4f0       ?onSelfAllowTalkNotification@ZNativeSDKMeetingWebinarWrapSink@@UEAAXXZ 000000018003e4f0 f i zoom_node_addon.obj
 0001:0003d620       ?onSelfDisallowTalkNotification@ZNativeSDKMeetingWebinarWrapSink@@UEAAXXZ 000000018003e620 f i zoom_node_addon.obj
 0001:0003d750       ?onAllowAttendeeChatNotification@ZNativeSDKMeetingWebinarWrapSink@@UEAAXXZ 000000018003e750 f i zoom_node_addon.obj
 0001:0003d880       ?onDisallowAttendeeChatNotification@ZNativeSDKMeetingWebinarWrapSink@@UEAAXXZ 000000018003e880 f i zoom_node_addon.obj
 0001:0003d9b0       ?onAllowWebinarReactionStatusChanged@ZNativeSDKMeetingWebinarWrapSink@@UEAAX_N@Z 000000018003e9b0 f i zoom_node_addon.obj
 0001:0003db00       ?onAllowAttendeeRaiseHandStatusChanged@ZNativeSDKMeetingWebinarWrapSink@@UEAAX_N@Z 000000018003eb00 f i zoom_node_addon.obj
 0001:0003dc50       ?onAllowAttendeeViewTheParticipantCountStatusChanged@ZNativeSDKMeetingWebinarWrapSink@@UEAAX_N@Z 000000018003ec50 f i zoom_node_addon.obj
 0001:0003dda0       ?onAttendeeAudioStatusNotification@ZNativeSDKMeetingWebinarWrapSink@@UEAAXI_N0@Z 000000018003eda0 f i zoom_node_addon.obj
 0001:0003df60       ?onAttendeePromoteConfirmResult@ZNativeSDKMeetingWebinarWrapSink@@UEAAX_NI@Z 000000018003ef60 f i zoom_node_addon.obj
 0001:0003e0e0       ?onAddQuestion@ZNativeSDKMeetingQAWrapSink@@UEAAXV?$basic_string@_WU?$char_traits@_W@std@@V?$allocator@_W@2@@std@@_N@Z 000000018003f0e0 f i zoom_node_addon.obj
 0001:0003e350       ?onReceiveQuestion@ZNativeSDKMeetingQAWrapSink@@UEAAXV?$basic_string@_WU?$char_traits@_W@std@@V?$allocator@_W@2@@std@@@Z 000000018003f350 f i zoom_node_addon.obj
 0001:0003e5a0       ?onDeleteQuestions@ZNativeSDKMeetingQAWrapSink@@UEAAXV?$vector@V?$basic_string@_WU?$char_traits@_W@std@@V?$allocator@_W@2@@std@@V?$allocator@V?$basic_string@_WU?$char_traits@_W@std@@V?$allocator@_W@2@@std@@@2@@std@@@Z 000000018003f5a0 f i zoom_node_addon.obj
 0001:0003e950       ?onQuestionMarkedAsDismissed@ZNativeSDKMeetingQAWrapSink@@UEAAXV?$basic_string@_WU?$char_traits@_W@std@@V?$allocator@_W@2@@std@@@Z 000000018003f950 f i zoom_node_addon.obj
 0001:0003eba0       ?onReopenQuestion@ZNativeSDKMeetingQAWrapSink@@UEAAXV?$basic_string@_WU?$char_traits@_W@std@@V?$allocator@_W@2@@std@@@Z 000000018003fba0 f i zoom_node_addon.obj
 0001:0003edf0       ?onUserLivingReply@ZNativeSDKMeetingQAWrapSink@@UEAAXV?$basic_string@_WU?$char_traits@_W@std@@V?$allocator@_W@2@@std@@@Z 000000018003fdf0 f i zoom_node_addon.obj
 0001:0003f040       ?onUserEndLiving@ZNativeSDKMeetingQAWrapSink@@UEAAXV?$basic_string@_WU?$char_traits@_W@std@@V?$allocator@_W@2@@std@@@Z 0000000180040040 f i zoom_node_addon.obj
 0001:0003f290       ?onAddAnswer@ZNativeSDKMeetingQAWrapSink@@UEAAXV?$basic_string@_WU?$char_traits@_W@std@@V?$allocator@_W@2@@std@@_N@Z 0000000180040290 f i zoom_node_addon.obj
 0001:0003f500       ?onReceiveAnswer@ZNativeSDKMeetingQAWrapSink@@UEAAXV?$basic_string@_WU?$char_traits@_W@std@@V?$allocator@_W@2@@std@@@Z 0000000180040500 f i zoom_node_addon.obj
 0001:0003f750       ?onDeleteAnswers@ZNativeSDKMeetingQAWrapSink@@UEAAXV?$vector@V?$basic_string@_WU?$char_traits@_W@std@@V?$allocator@_W@2@@std@@V?$allocator@V?$basic_string@_WU?$char_traits@_W@std@@V?$allocator@_W@2@@std@@@2@@std@@@Z 0000000180040750 f i zoom_node_addon.obj
 0001:0003fb00       ?onVoteupQuestion@ZNativeSDKMeetingQAWrapSink@@UEAAXV?$basic_string@_WU?$char_traits@_W@std@@V?$allocator@_W@2@@std@@_N@Z 0000000180040b00 f i zoom_node_addon.obj
 0001:0003fd70       ?onRevokeVoteupQuestion@ZNativeSDKMeetingQAWrapSink@@UEAAXV?$basic_string@_WU?$char_traits@_W@std@@V?$allocator@_W@2@@std@@_N@Z 0000000180040d70 f i zoom_node_addon.obj
 0001:0003ffe0       ?onEmojiReactionReceived@ZNativeSDKMeetingReactionWrapSink@@UEAAXIW4ZNSDKEmojiReactionType@@W4ZNSDKEmojiReactionSkinTone@@@Z 0000000180040fe0 f i zoom_node_addon.obj
 0001:00040180       ?onEmojiReactionReceivedInWebinar@ZNativeSDKMeetingReactionWrapSink@@UEAAXW4ZNSDKEmojiReactionType@@@Z 0000000180041180 f i zoom_node_addon.obj
 0001:000402e0       ?onLiveTranscriptionMsgInfoReceived@ZNativeSDKCloseCaptionWrapSink@@UEAAXU_ZNLiveTranscriptionMessageInfo@@@Z 00000001800412e0 f i zoom_node_addon.obj
 0001:00040920       ?onOriginalLanguageMsgReceived@ZNativeSDKCloseCaptionWrapSink@@UEAAXU_ZNLiveTranscriptionMessageInfo@@@Z 0000000180041920 f i zoom_node_addon.obj
 0001:00040f60       ?onPollingStatusChanged@ZNativeSDKPollingWrapSink@@UEAAXV?$basic_string@_WU?$char_traits@_W@std@@V?$allocator@_W@2@@std@@W4ZNSDKPollingStatus@@@Z 0000000180041f60 f i zoom_node_addon.obj
 0001:000411d0       ?onPollingResultUpdated@ZNativeSDKPollingWrapSink@@UEAAXV?$basic_string@_WU?$char_traits@_W@std@@V?$allocator@_W@2@@std@@@Z 00000001800421d0 f i zoom_node_addon.obj
 0001:00041420       ?onPollingListUpdated@ZNativeSDKPollingWrapSink@@UEAAXXZ 0000000180042420 f i zoom_node_addon.obj
 0001:00041550       ?onPollingActionResult@ZNativeSDKPollingWrapSink@@UEAAXW4ZNSDKPollingActionType@@V?$basic_string@_WU?$char_traits@_W@std@@V?$allocator@_W@2@@std@@_N1@Z 0000000180042550 f i zoom_node_addon.obj
 0001:000418b0       ?onWhiteboardStatusChanged@ZNativeSDKMeetingWhiteboardWrapSink@@UEAAXW4ZNSDKWhiteboardStatus@@@Z 00000001800428b0 f i zoom_node_addon.obj
 0001:00041a10       ?onWhiteboardSettingsChanged@ZNativeSDKMeetingWhiteboardWrapSink@@UEAAXW4ZNSDKWhiteboardShareOption@@W4ZNSDKWhiteboardCreateOption@@_N@Z 0000000180042a10 f i zoom_node_addon.obj
 0001:00041bc0       ?onDocsSharingSourceInfoChanged@ZNativeSDKMeetingDocsWrapSink@@UEAAXU_ZNZoomSDKDocSharingSourceInfo@@@Z 0000000180042bc0 f i zoom_node_addon.obj
 0001:00041d30       ?onDocsPermissionChanged@ZNativeSDKMeetingDocsWrapSink@@UEAAXW4ZNSDKDocsCreateOption@@W4ZNSDKDocsShareOption@@@Z 0000000180042d30 f i zoom_node_addon.obj
 0001:00041ec0       ?GetInst@ZoomNodeSinkWrapMgr@@SAAEAV1@XZ 0000000180042ec0 f i zoom_node_addon.obj
 0001:000420d0       ?DeleteInstance@AddonData@@SAXPEAX@Z 00000001800430d0 f i zoom_node_addon.obj
 0001:00045940       node_register_module_v140  0000000180046940 f   zoom_node_addon.obj
 0001:00047800       ?InitSDK@ZoomNodeWrap@@SAXAEBV?$FunctionCallbackInfo@VValue@v8@@@v8@@@Z 0000000180048800 f   zoom_node_addon.obj
 0001:00048240       ?CleanUPSDK@ZoomNodeWrap@@SAXAEBV?$FunctionCallbackInfo@VValue@v8@@@v8@@@Z 0000000180049240 f   zoom_node_addon.obj
 0001:00048300       ?GetZoomSDKVersion@ZoomNodeWrap@@SAXAEBV?$FunctionCallbackInfo@VValue@v8@@@v8@@@Z 0000000180049300 f   zoom_node_addon.obj
 0001:00048530       ?GetAuthObj@ZoomNodeWrap@@SAXAEBV?$FunctionCallbackInfo@VValue@v8@@@v8@@@Z 0000000180049530 f   zoom_node_addon.obj
 0001:00048630       ?GetMeetingObj@ZoomNodeWrap@@SAXAEBV?$FunctionCallbackInfo@VValue@v8@@@v8@@@Z 0000000180049630 f   zoom_node_addon.obj
 0001:00048730       ?GetSetObj@ZoomNodeWrap@@SAXAEBV?$FunctionCallbackInfo@VValue@v8@@@v8@@@Z 0000000180049730 f   zoom_node_addon.obj
 0001:00048830       ?GetCustomizedResourceObj@ZoomNodeWrap@@SAXAEBV?$FunctionCallbackInfo@VValue@v8@@@v8@@@Z 0000000180049830 f   zoom_node_addon.obj
 0001:00048930       ?GetSDKSMSHelperObj@ZoomNodeWrap@@SAXAEBV?$FunctionCallbackInfo@VValue@v8@@@v8@@@Z 0000000180049930 f   zoom_node_addon.obj
 0001:00048a30       ?GetRawdataAPIWrap@ZoomNodeWrap@@SAXAEBV?$FunctionCallbackInfo@VValue@v8@@@v8@@@Z 0000000180049a30 f   zoom_node_addon.obj
 0001:00048b30       ??_EZoomNodeAuthWrap@@EEAAPEAXI@Z 0000000180049b30 f i * CIL library *:* CIL module *
 0001:00048b30       ??_GZoomNodeAuthWrap@@EEAAPEAXI@Z 0000000180049b30 f i zoom_node_addon.obj
 0001:00048ba0       ?AuthWithJwtToken@ZoomNodeAuthWrap@@SAXAEBV?$FunctionCallbackInfo@VValue@v8@@@v8@@@Z 0000000180049ba0 f   zoom_node_addon.obj
 0001:00048ff0       ?GenerateSSOLoginWebURL@ZoomNodeAuthWrap@@SAXAEBV?$FunctionCallbackInfo@VValue@v8@@@v8@@@Z 0000000180049ff0 f   zoom_node_addon.obj
 0001:00049540       ?SSOLoginWithWebUriProtocol@ZoomNodeAuthWrap@@SAXAEBV?$FunctionCallbackInfo@VValue@v8@@@v8@@@Z 000000018004a540 f   zoom_node_addon.obj
 0001:00049930       ?Logout@ZoomNodeAuthWrap@@SAXAEBV?$FunctionCallbackInfo@VValue@v8@@@v8@@@Z 000000018004a930 f   zoom_node_addon.obj
 0001:00049a00       ?GetAuthResult@ZoomNodeAuthWrap@@SAXAEBV?$FunctionCallbackInfo@VValue@v8@@@v8@@@Z 000000018004aa00 f   zoom_node_addon.obj
 0001:00049ad0       ?GetLoginStatus@ZoomNodeAuthWrap@@SAXAEBV?$FunctionCallbackInfo@VValue@v8@@@v8@@@Z 000000018004aad0 f   zoom_node_addon.obj
 0001:00049bc0       ?SetLogoutCB@ZoomNodeAuthWrap@@SAXAEBV?$FunctionCallbackInfo@VValue@v8@@@v8@@@Z 000000018004abc0 f   zoom_node_addon.obj
 0001:00049d50       ?SetOnAuthReturnCB@ZoomNodeAuthWrap@@SAXAEBV?$FunctionCallbackInfo@VValue@v8@@@v8@@@Z 000000018004ad50 f   zoom_node_addon.obj
 0001:00049ee0       ?SetOnZoomIdentityExpiredCB@ZoomNodeAuthWrap@@SAXAEBV?$FunctionCallbackInfo@VValue@v8@@@v8@@@Z 000000018004aee0 f   zoom_node_addon.obj
 0001:0004a070       ?SetOnZoomAuthIdentityExpiredCB@ZoomNodeAuthWrap@@SAXAEBV?$FunctionCallbackInfo@VValue@v8@@@v8@@@Z 000000018004b070 f   zoom_node_addon.obj
 0001:0004a200       ?SetLoginReturnWithReasonCB@ZoomNodeAuthWrap@@SAXAEBV?$FunctionCallbackInfo@VValue@v8@@@v8@@@Z 000000018004b200 f   zoom_node_addon.obj
 0001:0004a390       ?GetDirectShareHelperObj@ZoomNodeAuthWrap@@SAXAEBV?$FunctionCallbackInfo@VValue@v8@@@v8@@@Z 000000018004b390 f   zoom_node_addon.obj
 0001:0004a490       ??_EZoomNodeMeetingWrap@@EEAAPEAXI@Z 000000018004b490 f i * CIL library *:* CIL module *
 0001:0004a490       ??_GZoomNodeMeetingWrap@@EEAAPEAXI@Z 000000018004b490 f i zoom_node_addon.obj
 0001:0004a500       ?Start@ZoomNodeMeetingWrap@@SAXAEBV?$FunctionCallbackInfo@VValue@v8@@@v8@@@Z 000000018004b500 f   zoom_node_addon.obj
 0001:0004aca0       ?Start_WithoutLogin@ZoomNodeMeetingWrap@@SAXAEBV?$FunctionCallbackInfo@VValue@v8@@@v8@@@Z 000000018004bca0 f   zoom_node_addon.obj
 0001:0004b360       ?Join@ZoomNodeMeetingWrap@@SAXAEBV?$FunctionCallbackInfo@VValue@v8@@@v8@@@Z 000000018004c360 f   zoom_node_addon.obj
 0001:0004bb30       ??0_ZNJoinParam@@QEAA@AEBU0@@Z 000000018004cb30 f i zoom_node_addon.obj
 0001:0004bc50       ?Join_WithoutLogin@ZoomNodeMeetingWrap@@SAXAEBV?$FunctionCallbackInfo@VValue@v8@@@v8@@@Z 000000018004cc50 f   zoom_node_addon.obj
 0001:0004c570       ?Leave@ZoomNodeMeetingWrap@@SAXAEBV?$FunctionCallbackInfo@VValue@v8@@@v8@@@Z 000000018004d570 f   zoom_node_addon.obj
 0001:0004c950       ?Lock@ZoomNodeMeetingWrap@@SAXAEBV?$FunctionCallbackInfo@VValue@v8@@@v8@@@Z 000000018004d950 f   zoom_node_addon.obj
 0001:0004ca50       ?Unlock@ZoomNodeMeetingWrap@@SAXAEBV?$FunctionCallbackInfo@VValue@v8@@@v8@@@Z 000000018004da50 f   zoom_node_addon.obj
 0001:0004cb50       ?HandleZoomWebUriProtocolAction@ZoomNodeMeetingWrap@@SAXAEBV?$FunctionCallbackInfo@VValue@v8@@@v8@@@Z 000000018004db50 f   zoom_node_addon.obj
 0001:0004d100       ?CanSetMeetingTopic@ZoomNodeMeetingWrap@@SAXAEBV?$FunctionCallbackInfo@VValue@v8@@@v8@@@Z 000000018004e100 f   zoom_node_addon.obj
 0001:0004d200       ?SetMeetingTopic@ZoomNodeMeetingWrap@@SAXAEBV?$FunctionCallbackInfo@VValue@v8@@@v8@@@Z 000000018004e200 f   zoom_node_addon.obj
 0001:0004d730       ?SetMeetingStatusCB@ZoomNodeMeetingWrap@@SAXAEBV?$FunctionCallbackInfo@VValue@v8@@@v8@@@Z 000000018004e730 f   zoom_node_addon.obj
 0001:0004d8c0       ?SetMeetingStatisticsWarningNotificationCB@ZoomNodeMeetingWrap@@SAXAEBV?$FunctionCallbackInfo@VValue@v8@@@v8@@@Z 000000018004e8c0 f   zoom_node_addon.obj
 0001:0004da50       ?SetMeetingParameterNotificationCB@ZoomNodeMeetingWrap@@SAXAEBV?$FunctionCallbackInfo@VValue@v8@@@v8@@@Z 000000018004ea50 f   zoom_node_addon.obj
 0001:0004dbe0       ?SetOnMeetingTopicChangedCB@ZoomNodeMeetingWrap@@SAXAEBV?$FunctionCallbackInfo@VValue@v8@@@v8@@@Z 000000018004ebe0 f   zoom_node_addon.obj
 0001:0004dd70       ?SetOnMeetingFullToWatchLiveStreamCB@ZoomNodeMeetingWrap@@SAXAEBV?$FunctionCallbackInfo@VValue@v8@@@v8@@@Z 000000018004ed70 f   zoom_node_addon.obj
 0001:0004df00       ?SetOnUserNetworkStatusChangedCB@ZoomNodeMeetingWrap@@SAXAEBV?$FunctionCallbackInfo@VValue@v8@@@v8@@@Z 000000018004ef00 f   zoom_node_addon.obj
 0001:0004e090       ?SetOnAppSignalPanelUpdatedCB@ZoomNodeMeetingWrap@@SAXAEBV?$FunctionCallbackInfo@VValue@v8@@@v8@@@Z 000000018004f090 f   zoom_node_addon.obj
 0001:0004e220       ?CanShowPanel@ZoomNodeMeetingWrap@@SAXAEBV?$FunctionCallbackInfo@VValue@v8@@@v8@@@Z 000000018004f220 f   zoom_node_addon.obj
 0001:0004e290       ?ShowPanel@ZoomNodeMeetingWrap@@SAXAEBV?$FunctionCallbackInfo@VValue@v8@@@v8@@@Z 000000018004f290 f   zoom_node_addon.obj
 0001:0004e600       ?HidePanel@ZoomNodeMeetingWrap@@SAXAEBV?$FunctionCallbackInfo@VValue@v8@@@v8@@@Z 000000018004f600 f   zoom_node_addon.obj
 0001:0004e690       ?GetMeetingInfo@ZoomNodeMeetingWrap@@SAXAEBV?$FunctionCallbackInfo@VValue@v8@@@v8@@@Z 000000018004f690 f   zoom_node_addon.obj
 0001:0004e790       ?GetMeetingUICtrl@ZoomNodeMeetingWrap@@SAXAEBV?$FunctionCallbackInfo@VValue@v8@@@v8@@@Z 000000018004f790 f   zoom_node_addon.obj
 0001:0004e890       ?GetMeetingAnnotation@ZoomNodeMeetingWrap@@SAXAEBV?$FunctionCallbackInfo@VValue@v8@@@v8@@@Z 000000018004f890 f   zoom_node_addon.obj
 0001:0004e990       ?GetMeetingAAN@ZoomNodeMeetingWrap@@SAXAEBV?$FunctionCallbackInfo@VValue@v8@@@v8@@@Z 000000018004f990 f   zoom_node_addon.obj
 0001:0004ea90       ?GetMeetingRawArchivingCtrl@ZoomNodeMeetingWrap@@SAXAEBV?$FunctionCallbackInfo@VValue@v8@@@v8@@@Z 000000018004fa90 f   zoom_node_addon.obj
 0001:0004eb90       ?GetMeetingLiveStreamCtrl@ZoomNodeMeetingWrap@@SAXAEBV?$FunctionCallbackInfo@VValue@v8@@@v8@@@Z 000000018004fb90 f   zoom_node_addon.obj
 0001:0004ec90       ?GetRequestRawLiveStreamPrivilegeHandler@ZoomNodeMeetingWrap@@SAXAEBV?$FunctionCallbackInfo@VValue@v8@@@v8@@@Z 000000018004fc90 f   zoom_node_addon.obj
 0001:0004ed90       ?GetMeetingAudioCtrl@ZoomNodeMeetingWrap@@SAXAEBV?$FunctionCallbackInfo@VValue@v8@@@v8@@@Z 000000018004fd90 f   zoom_node_addon.obj
 0001:0004ee90       ?GetMeetingVideoCtrl@ZoomNodeMeetingWrap@@SAXAEBV?$FunctionCallbackInfo@VValue@v8@@@v8@@@Z 000000018004fe90 f   zoom_node_addon.obj
 0001:0004ef90       ?GetMeetingRecordingCtrl@ZoomNodeMeetingWrap@@SAXAEBV?$FunctionCallbackInfo@VValue@v8@@@v8@@@Z 000000018004ff90 f   zoom_node_addon.obj
 0001:0004f090       ?GetMeetingParticipantsCtrl@ZoomNodeMeetingWrap@@SAXAEBV?$FunctionCallbackInfo@VValue@v8@@@v8@@@Z 0000000180050090 f   zoom_node_addon.obj
 0001:0004f190       ?GetMeetingShareCtrl@ZoomNodeMeetingWrap@@SAXAEBV?$FunctionCallbackInfo@VValue@v8@@@v8@@@Z 0000000180050190 f   zoom_node_addon.obj
 0001:0004f290       ?GetMeetingH323Ctrl@ZoomNodeMeetingWrap@@SAXAEBV?$FunctionCallbackInfo@VValue@v8@@@v8@@@Z 0000000180050290 f   zoom_node_addon.obj
 0001:0004f390       ?GetMeetingConfigCtrl@ZoomNodeMeetingWrap@@SAXAEBV?$FunctionCallbackInfo@VValue@v8@@@v8@@@Z 0000000180050390 f   zoom_node_addon.obj
 0001:0004f490       ?GetMeetingReminderCtrl@ZoomNodeMeetingWrap@@SAXAEBV?$FunctionCallbackInfo@VValue@v8@@@v8@@@Z 0000000180050490 f   zoom_node_addon.obj
 0001:0004f590       ?GetMeetingChatCtrl@ZoomNodeMeetingWrap@@SAXAEBV?$FunctionCallbackInfo@VValue@v8@@@v8@@@Z 0000000180050590 f   zoom_node_addon.obj
 0001:0004f690       ?GetMeetingWaitingRoomCtrl@ZoomNodeMeetingWrap@@SAXAEBV?$FunctionCallbackInfo@VValue@v8@@@v8@@@Z 0000000180050690 f   zoom_node_addon.obj
 0001:0004f790       ?GetMeetingAICompanionCtrl@ZoomNodeMeetingWrap@@SAXAEBV?$FunctionCallbackInfo@VValue@v8@@@v8@@@Z 0000000180050790 f   zoom_node_addon.obj
 0001:0004f890       ?GetMeetingIndicatorCtrl@ZoomNodeMeetingWrap@@SAXAEBV?$FunctionCallbackInfo@VValue@v8@@@v8@@@Z 0000000180050890 f   zoom_node_addon.obj
 0001:0004f990       ?GetMeetingWebinarCtrl@ZoomNodeMeetingWrap@@SAXAEBV?$FunctionCallbackInfo@VValue@v8@@@v8@@@Z 0000000180050990 f   zoom_node_addon.obj
 0001:0004fa90       ?GetMeetingQACtrl@ZoomNodeMeetingWrap@@SAXAEBV?$FunctionCallbackInfo@VValue@v8@@@v8@@@Z 0000000180050a90 f   zoom_node_addon.obj
 0001:0004fb90       ?GetMeetingReactionCtrl@ZoomNodeMeetingWrap@@SAXAEBV?$FunctionCallbackInfo@VValue@v8@@@v8@@@Z 0000000180050b90 f   zoom_node_addon.obj
 0001:0004fc90       ?GetMeetingCloseCaptionCtrl@ZoomNodeMeetingWrap@@SAXAEBV?$FunctionCallbackInfo@VValue@v8@@@v8@@@Z 0000000180050c90 f   zoom_node_addon.obj
 0001:0004fd90       ?GetMeetingPollingCtrl@ZoomNodeMeetingWrap@@SAXAEBV?$FunctionCallbackInfo@VValue@v8@@@v8@@@Z 0000000180050d90 f   zoom_node_addon.obj
 0001:0004fe90       ?GetMeetingWhiteboardCtrl@ZoomNodeMeetingWrap@@SAXAEBV?$FunctionCallbackInfo@VValue@v8@@@v8@@@Z 0000000180050e90 f   zoom_node_addon.obj
 0001:0004ff90       ?GetMeetingDocsCtrl@ZoomNodeMeetingWrap@@SAXAEBV?$FunctionCallbackInfo@VValue@v8@@@v8@@@Z 0000000180050f90 f   zoom_node_addon.obj
 0001:00050090       ?GetSharingConnQuality@ZoomNodeMeetingWrap@@SAXAEBV?$FunctionCallbackInfo@VValue@v8@@@v8@@@Z 0000000180051090 f   zoom_node_addon.obj
 0001:00050190       ?GetVideoConnQuality@ZoomNodeMeetingWrap@@SAXAEBV?$FunctionCallbackInfo@VValue@v8@@@v8@@@Z 0000000180051190 f   zoom_node_addon.obj
 0001:00050290       ?GetAudioConnQuality@ZoomNodeMeetingWrap@@SAXAEBV?$FunctionCallbackInfo@VValue@v8@@@v8@@@Z 0000000180051290 f   zoom_node_addon.obj
 0001:00050390       ?GetMeetingAudioStatisticInfo@ZoomNodeMeetingWrap@@SAXAEBV?$FunctionCallbackInfo@VValue@v8@@@v8@@@Z 0000000180051390 f   zoom_node_addon.obj
 0001:00050520       ?GetMeetingVideoStatisticInfo@ZoomNodeMeetingWrap@@SAXAEBV?$FunctionCallbackInfo@VValue@v8@@@v8@@@Z 0000000180051520 f   zoom_node_addon.obj
 0001:000506c0       ?GetMeetingShareStatisticInfo@ZoomNodeMeetingWrap@@SAXAEBV?$FunctionCallbackInfo@VValue@v8@@@v8@@@Z 00000001800516c0 f   zoom_node_addon.obj
 0001:00050860       ?GetMeetingTopic@ZoomNodeMeetingInfoWrap@@SAXAEBV?$FunctionCallbackInfo@VValue@v8@@@v8@@@Z 0000000180051860 f   zoom_node_addon.obj
 0001:00050ae0       ?GetMeetingType@ZoomNodeMeetingInfoWrap@@SAXAEBV?$FunctionCallbackInfo@VValue@v8@@@v8@@@Z 0000000180051ae0 f   zoom_node_addon.obj
 0001:00050c20       ?GetMeetingNumber@ZoomNodeMeetingInfoWrap@@SAXAEBV?$FunctionCallbackInfo@VValue@v8@@@v8@@@Z 0000000180051c20 f   zoom_node_addon.obj
 0001:00050d50       ?GetMeetingID@ZoomNodeMeetingInfoWrap@@SAXAEBV?$FunctionCallbackInfo@VValue@v8@@@v8@@@Z 0000000180051d50 f   zoom_node_addon.obj
 0001:00050fd0       ?GetInviteEmailTemplate@ZoomNodeMeetingInfoWrap@@SAXAEBV?$FunctionCallbackInfo@VValue@v8@@@v8@@@Z 0000000180051fd0 f   zoom_node_addon.obj
 0001:00051250       ?GetInviteEmailTitle@ZoomNodeMeetingInfoWrap@@SAXAEBV?$FunctionCallbackInfo@VValue@v8@@@v8@@@Z 0000000180052250 f   zoom_node_addon.obj
 0001:000514d0       ?GetJoinMeetingUrl@ZoomNodeMeetingInfoWrap@@SAXAEBV?$FunctionCallbackInfo@VValue@v8@@@v8@@@Z 00000001800524d0 f   zoom_node_addon.obj
 0001:00051750       ?GetMeetingHostTag@ZoomNodeMeetingInfoWrap@@SAXAEBV?$FunctionCallbackInfo@VValue@v8@@@v8@@@Z 0000000180052750 f   zoom_node_addon.obj
 0001:000519d0       ??_EZoomNodeMeetingUICtrlWrap@@EEAAPEAXI@Z 00000001800529d0 f i * CIL library *:* CIL module *
 0001:000519d0       ??_GZoomNodeMeetingUICtrlWrap@@EEAAPEAXI@Z 00000001800529d0 f i zoom_node_addon.obj
 0001:00051a40       ?ShowChatDlg@ZoomNodeMeetingUICtrlWrap@@SAXAEBV?$FunctionCallbackInfo@VValue@v8@@@v8@@@Z 0000000180052a40 f   zoom_node_addon.obj
 0001:000520e0       ?HideChatDlg@ZoomNodeMeetingUICtrlWrap@@SAXAEBV?$FunctionCallbackInfo@VValue@v8@@@v8@@@Z 00000001800530e0 f   zoom_node_addon.obj
 0001:00052220       ?EnterFullScreen@ZoomNodeMeetingUICtrlWrap@@SAXAEBV?$FunctionCallbackInfo@VValue@v8@@@v8@@@Z 0000000180053220 f   zoom_node_addon.obj
 0001:00052660       ?ExitFullScreen@ZoomNodeMeetingUICtrlWrap@@SAXAEBV?$FunctionCallbackInfo@VValue@v8@@@v8@@@Z 0000000180053660 f   zoom_node_addon.obj
 0001:00052aa0       ?SwitchToVideoWall@ZoomNodeMeetingUICtrlWrap@@SAXAEBV?$FunctionCallbackInfo@VValue@v8@@@v8@@@Z 0000000180053aa0 f   zoom_node_addon.obj
 0001:00052be0       ?SwitchToActiveSpeaker@ZoomNodeMeetingUICtrlWrap@@SAXAEBV?$FunctionCallbackInfo@VValue@v8@@@v8@@@Z 0000000180053be0 f   zoom_node_addon.obj
 0001:00052d20       ?MoveFloatVideoWnd@ZoomNodeMeetingUICtrlWrap@@SAXAEBV?$FunctionCallbackInfo@VValue@v8@@@v8@@@Z 0000000180053d20 f   zoom_node_addon.obj
 0001:00053450       ?ShowSharingToolbar@ZoomNodeMeetingUICtrlWrap@@SAXAEBV?$FunctionCallbackInfo@VValue@v8@@@v8@@@Z 0000000180054450 f   zoom_node_addon.obj
 0001:00053850       ?SwitchFloatVideoToActiveSpkMod@ZoomNodeMeetingUICtrlWrap@@SAXAEBV?$FunctionCallbackInfo@VValue@v8@@@v8@@@Z 0000000180054850 f   zoom_node_addon.obj
 0001:00053990       ?ChangeFloatToActiveSpkVideoSize@ZoomNodeMeetingUICtrlWrap@@SAXAEBV?$FunctionCallbackInfo@VValue@v8@@@v8@@@Z 0000000180054990 f   zoom_node_addon.obj
 0001:00053e00       ?SwitchFloatVideoToGalleryMod@ZoomNodeMeetingUICtrlWrap@@SAXAEBV?$FunctionCallbackInfo@VValue@v8@@@v8@@@Z 0000000180054e00 f   zoom_node_addon.obj
 0001:00053f40       ?ShowParticipantsListWnd@ZoomNodeMeetingUICtrlWrap@@SAXAEBV?$FunctionCallbackInfo@VValue@v8@@@v8@@@Z 0000000180054f40 f   zoom_node_addon.obj
 0001:00054350       ?ShowBottomFloatToolbarWnd@ZoomNodeMeetingUICtrlWrap@@SAXAEBV?$FunctionCallbackInfo@VValue@v8@@@v8@@@Z 0000000180055350 f   zoom_node_addon.obj
 0001:00054750       ?ShowJoinAudioDlg@ZoomNodeMeetingUICtrlWrap@@SAXAEBV?$FunctionCallbackInfo@VValue@v8@@@v8@@@Z 0000000180055750 f   zoom_node_addon.obj
 0001:00054890       ?HideJoinAudioDlg@ZoomNodeMeetingUICtrlWrap@@SAXAEBV?$FunctionCallbackInfo@VValue@v8@@@v8@@@Z 0000000180055890 f   zoom_node_addon.obj
 0001:000549d0       ?GetWallViewPageInfo@ZoomNodeMeetingUICtrlWrap@@SAXAEBV?$FunctionCallbackInfo@VValue@v8@@@v8@@@Z 00000001800559d0 f   zoom_node_addon.obj
 0001:00054f30       ?ShowPreOrNextPageVideo@ZoomNodeMeetingUICtrlWrap@@SAXAEBV?$FunctionCallbackInfo@VValue@v8@@@v8@@@Z 0000000180055f30 f   zoom_node_addon.obj
 0001:00055340       ?ShowSharingFrameWindows@ZoomNodeMeetingUICtrlWrap@@SAXAEBV?$FunctionCallbackInfo@VValue@v8@@@v8@@@Z 0000000180056340 f   zoom_node_addon.obj
 0001:00055750       ?GetCurrentSplitScreenModeInfo@ZoomNodeMeetingUICtrlWrap@@SAXAEBV?$FunctionCallbackInfo@VValue@v8@@@v8@@@Z 0000000180056750 f   zoom_node_addon.obj
 0001:00055a30       ?SwitchSplitScreenMode@ZoomNodeMeetingUICtrlWrap@@SAXAEBV?$FunctionCallbackInfo@VValue@v8@@@v8@@@Z 0000000180056a30 f   zoom_node_addon.obj
 0001:00055e30       ?BackToMeeting@ZoomNodeMeetingUICtrlWrap@@SAXAEBV?$FunctionCallbackInfo@VValue@v8@@@v8@@@Z 0000000180056e30 f   zoom_node_addon.obj
 0001:00055f70       ?GetMeetingUIWnd@ZoomNodeMeetingUICtrlWrap@@SAXAEBV?$FunctionCallbackInfo@VValue@v8@@@v8@@@Z 0000000180056f70 f   zoom_node_addon.obj
 0001:00056550       ?SwitchMinimizeUIMode4FirstScreenMeetingUIWnd@ZoomNodeMeetingUICtrlWrap@@SAXAEBV?$FunctionCallbackInfo@VValue@v8@@@v8@@@Z 0000000180057550 f   zoom_node_addon.obj
 0001:00056980       ?IsMinimizeModeOfFirstScreenMeetingUIWnd@ZoomNodeMeetingUICtrlWrap@@SAXAEBV?$FunctionCallbackInfo@VValue@v8@@@v8@@@Z 0000000180057980 f   zoom_node_addon.obj
 0001:00056c10       ?SwapToShowShareViewOrVideo@ZoomNodeMeetingUICtrlWrap@@SAXAEBV?$FunctionCallbackInfo@VValue@v8@@@v8@@@Z 0000000180057c10 f   zoom_node_addon.obj
 0001:00057020       ?IsDisplayingShareViewOrVideo@ZoomNodeMeetingUICtrlWrap@@SAXAEBV?$FunctionCallbackInfo@VValue@v8@@@v8@@@Z 0000000180058020 f   zoom_node_addon.obj
 0001:00057290       ?CanSwapToShowShareViewOrVideo@ZoomNodeMeetingUICtrlWrap@@SAXAEBV?$FunctionCallbackInfo@VValue@v8@@@v8@@@Z 0000000180058290 f   zoom_node_addon.obj
 0001:00057500       ?SetMeetingTopic@ZoomNodeMeetingUICtrlWrap@@SAXAEBV?$FunctionCallbackInfo@VValue@v8@@@v8@@@Z 0000000180058500 f   zoom_node_addon.obj
 0001:00057a70       ?SetCustomizedCloudRecordingMgrUrl@ZoomNodeMeetingUICtrlWrap@@SAXAEBV?$FunctionCallbackInfo@VValue@v8@@@v8@@@Z 0000000180058a70 f   zoom_node_addon.obj
 0001:00057fe0       ?SetCustomizedInvitationDomain@ZoomNodeMeetingUICtrlWrap@@SAXAEBV?$FunctionCallbackInfo@VValue@v8@@@v8@@@Z 0000000180058fe0 f   zoom_node_addon.obj
 0001:00058550       ?SetCustomizedPollingUrl@ZoomNodeMeetingUICtrlWrap@@SAXAEBV?$FunctionCallbackInfo@VValue@v8@@@v8@@@Z 0000000180059550 f   zoom_node_addon.obj
 0001:00058ae0       ?SetInviteButtonClickedCB@ZoomNodeMeetingUICtrlWrap@@SAXAEBV?$FunctionCallbackInfo@VValue@v8@@@v8@@@Z 0000000180059ae0 f   zoom_node_addon.obj
 0001:00058c70       ?SetonStartShareBtnClickedCB@ZoomNodeMeetingUICtrlWrap@@SAXAEBV?$FunctionCallbackInfo@VValue@v8@@@v8@@@Z 0000000180059c70 f   zoom_node_addon.obj
 0001:00058e00       ?SetonEndMeetingBtnClickedCB@ZoomNodeMeetingUICtrlWrap@@SAXAEBV?$FunctionCallbackInfo@VValue@v8@@@v8@@@Z 0000000180059e00 f   zoom_node_addon.obj
 0001:00058f90       ?SetonParticipantListBtnClickedCB@ZoomNodeMeetingUICtrlWrap@@SAXAEBV?$FunctionCallbackInfo@VValue@v8@@@v8@@@Z 0000000180059f90 f   zoom_node_addon.obj
 0001:00059120       ?SetonCustomLiveStreamMenuClickedCB@ZoomNodeMeetingUICtrlWrap@@SAXAEBV?$FunctionCallbackInfo@VValue@v8@@@v8@@@Z 000000018005a120 f   zoom_node_addon.obj
 0001:000592b0       ?SetonZoomInviteDialogFailedCB@ZoomNodeMeetingUICtrlWrap@@SAXAEBV?$FunctionCallbackInfo@VValue@v8@@@v8@@@Z 000000018005a2b0 f   zoom_node_addon.obj
 0001:00059440       ?SetonCCBTNClickedCB@ZoomNodeMeetingUICtrlWrap@@SAXAEBV?$FunctionCallbackInfo@VValue@v8@@@v8@@@Z 000000018005a440 f   zoom_node_addon.obj
 0001:000595d0       ?SetonAudioBTNClickedCB@ZoomNodeMeetingUICtrlWrap@@SAXAEBV?$FunctionCallbackInfo@VValue@v8@@@v8@@@Z 000000018005a5d0 f   zoom_node_addon.obj
 0001:00059760       ?SetonAudioMenuBTNClickedCB@ZoomNodeMeetingUICtrlWrap@@SAXAEBV?$FunctionCallbackInfo@VValue@v8@@@v8@@@Z 000000018005a760 f   zoom_node_addon.obj
 0001:000598f0       ?GetSettingVideoCtrl@ZoomNodeSettingWrap@@SAXAEBV?$FunctionCallbackInfo@VValue@v8@@@v8@@@Z 000000018005a8f0 f   zoom_node_addon.obj
 0001:000599f0       ?GetSettingAudioCtrl@ZoomNodeSettingWrap@@SAXAEBV?$FunctionCallbackInfo@VValue@v8@@@v8@@@Z 000000018005a9f0 f   zoom_node_addon.obj
 0001:00059af0       ?GetSettingGeneralCtrl@ZoomNodeSettingWrap@@SAXAEBV?$FunctionCallbackInfo@VValue@v8@@@v8@@@Z 000000018005aaf0 f   zoom_node_addon.obj
 0001:00059bf0       ?GetSettingRecordingCtrl@ZoomNodeSettingWrap@@SAXAEBV?$FunctionCallbackInfo@VValue@v8@@@v8@@@Z 000000018005abf0 f   zoom_node_addon.obj
 0001:00059cf0       ?GetSettingWallpaperCtrl@ZoomNodeSettingWrap@@SAXAEBV?$FunctionCallbackInfo@VValue@v8@@@v8@@@Z 000000018005acf0 f   zoom_node_addon.obj
 0001:00059df0       ?GetSettingVirtualBGCtrl@ZoomNodeSettingWrap@@SAXAEBV?$FunctionCallbackInfo@VValue@v8@@@v8@@@Z 000000018005adf0 f   zoom_node_addon.obj
 0001:00059ef0       ?GetSettingUIStrategyCtrl@ZoomNodeSettingWrap@@SAXAEBV?$FunctionCallbackInfo@VValue@v8@@@v8@@@Z 000000018005aef0 f   zoom_node_addon.obj
 0001:00059ff0       ?GetSettingStatisticCtrl@ZoomNodeSettingWrap@@SAXAEBV?$FunctionCallbackInfo@VValue@v8@@@v8@@@Z 000000018005aff0 f   zoom_node_addon.obj
 0001:0005a0f0       ?GetSettingAccessibilityCtrl@ZoomNodeSettingWrap@@SAXAEBV?$FunctionCallbackInfo@VValue@v8@@@v8@@@Z 000000018005b0f0 f   zoom_node_addon.obj
 0001:0005a1f0       ?GetSettingShareCtrl@ZoomNodeSettingWrap@@SAXAEBV?$FunctionCallbackInfo@VValue@v8@@@v8@@@Z 000000018005b1f0 f   zoom_node_addon.obj
 0001:0005a2f0       ?ShowSettingDlg@ZoomNodeSettingWrap@@SAXAEBV?$FunctionCallbackInfo@VValue@v8@@@v8@@@Z 000000018005b2f0 f   zoom_node_addon.obj
 0001:0005a920       ?HideSettingDlg@ZoomNodeSettingWrap@@SAXAEBV?$FunctionCallbackInfo@VValue@v8@@@v8@@@Z 000000018005b920 f   zoom_node_addon.obj
 0001:0005a9f0       ?Init@?$ZoomWrapObject@VZoomNodeMeetingWhiteboardCtrlWrap@@@@SAXPEAVIsolate@v8@@@Z 000000018005b9f0 f i zoom_node_addon.obj
 0001:0005ac90       ?Init@?$ZoomWrapObject@VZoomNodePollingCtrlWrap@@@@SAXPEAVIsolate@v8@@@Z 000000018005bc90 f i zoom_node_addon.obj
 0001:0005af20       ?Init@?$ZoomWrapObject@VZoomNodeMeetingReminderCtrlWrap@@@@SAXPEAVIsolate@v8@@@Z 000000018005bf20 f i zoom_node_addon.obj
 0001:0005b150       ?Init@?$ZoomWrapObject@VZoomNodeRawApiCtrlWrap@@@@SAXPEAVIsolate@v8@@@Z 000000018005c150 f i zoom_node_addon.obj
 0001:0005b3f0       ?Init@?$ZoomWrapObject@VZoomNodeSDKSMSHelperWrap@@@@SAXPEAVIsolate@v8@@@Z 000000018005c3f0 f i zoom_node_addon.obj
 0001:0005b670       ?Init@?$ZoomWrapObject@VZoomNodeSettingWallpaperCtrlWrap@@@@SAXPEAVIsolate@v8@@@Z 000000018005c670 f i zoom_node_addon.obj
 0001:0005b8e0       ?Init@?$ZoomWrapObject@VZoomNodeSettingRecordingCtrlWrap@@@@SAXPEAVIsolate@v8@@@Z 000000018005c8e0 f i zoom_node_addon.obj
 0001:0005bbb0       ?Init@?$ZoomWrapObject@VZoomNodeSettingGeneralCtrlWrap@@@@SAXPEAVIsolate@v8@@@Z 000000018005cbb0 f i zoom_node_addon.obj
 0001:0005be30       ?Init@?$ZoomWrapObject@VZoomNodeMeetingShareCtrlWrap@@@@SAXPEAVIsolate@v8@@@Z 000000018005ce30 f i zoom_node_addon.obj
 0001:0005c090       ?Init@?$ZoomWrapObject@VZoomNodeMeetingParticipantsCtrlWrap@@@@SAXPEAVIsolate@v8@@@Z 000000018005d090 f i zoom_node_addon.obj
 0001:0005c310       ?Init@?$ZoomWrapObject@VZoomNodeMeetingVideoCtrlWrap@@@@SAXPEAVIsolate@v8@@@Z 000000018005d310 f i zoom_node_addon.obj
 0001:0005c540       ?Init@?$ZoomWrapObject@VZoomNodeMeetingAudioCtrlWrap@@@@SAXPEAVIsolate@v8@@@Z 000000018005d540 f i zoom_node_addon.obj
 0001:0005c7e0       ?Init@?$ZoomWrapObject@VZoomNodeMeetingAnnotationWrap@@@@SAXPEAVIsolate@v8@@@Z 000000018005d7e0 f i zoom_node_addon.obj
 0001:0005ca80       ?Init@?$ZoomWrapObject@VZoomNodeSettingWrap@@@@SAXPEAVIsolate@v8@@@Z 000000018005da80 f i zoom_node_addon.obj
 0001:0005cd00       ?Init@?$ZoomWrapObject@VZoomNodeWrap@@@@SAXPEAVIsolate@v8@@@Z 000000018005dd00 f i zoom_node_addon.obj
 0001:0005cf30       ?Init@?$ZoomWrapObject@VZoomNodeAuthWrap@@@@SAXPEAVIsolate@v8@@@Z 000000018005df30 f i zoom_node_addon.obj
 0001:0005d1b0       ?New@?$ZoomWrapObject@VZoomNodeMeetingDocsCtrlWrap@@@@SAXAEBV?$FunctionCallbackInfo@VValue@v8@@@v8@@@Z 000000018005e1b0 f i zoom_node_addon.obj
 0001:0005d350       ?New@?$ZoomWrapObject@VZoomNodeMeetingWhiteboardCtrlWrap@@@@SAXAEBV?$FunctionCallbackInfo@VValue@v8@@@v8@@@Z 000000018005e350 f i zoom_node_addon.obj
 0001:0005d4f0       ?New@?$ZoomWrapObject@VZoomNodePollingCtrlWrap@@@@SAXAEBV?$FunctionCallbackInfo@VValue@v8@@@v8@@@Z 000000018005e4f0 f i zoom_node_addon.obj
 0001:0005d690       ?New@?$ZoomWrapObject@VZoomNodeCloseCaptionCtrlWrap@@@@SAXAEBV?$FunctionCallbackInfo@VValue@v8@@@v8@@@Z 000000018005e690 f i zoom_node_addon.obj
 0001:0005d830       ?New@?$ZoomWrapObject@VZoomNodeMeetingReactionCtrlWrap@@@@SAXAEBV?$FunctionCallbackInfo@VValue@v8@@@v8@@@Z 000000018005e830 f i zoom_node_addon.obj
 0001:0005d9d0       ?New@?$ZoomWrapObject@VZoomNodeMeetingQACtrlWrap@@@@SAXAEBV?$FunctionCallbackInfo@VValue@v8@@@v8@@@Z 000000018005e9d0 f i zoom_node_addon.obj
 0001:0005db70       ?New@?$ZoomWrapObject@VZoomNodeMeetingWebinarCtrlWrap@@@@SAXAEBV?$FunctionCallbackInfo@VValue@v8@@@v8@@@Z 000000018005eb70 f i zoom_node_addon.obj
 0001:0005dd10       ?New@?$ZoomWrapObject@VZoomNodeMeetingIndicatorCtrlWrap@@@@SAXAEBV?$FunctionCallbackInfo@VValue@v8@@@v8@@@Z 000000018005ed10 f i zoom_node_addon.obj
 0001:0005deb0       ?New@?$ZoomWrapObject@VZoomNodeMeetingAICompanionCtrlWrap@@@@SAXAEBV?$FunctionCallbackInfo@VValue@v8@@@v8@@@Z 000000018005eeb0 f i zoom_node_addon.obj
 0001:0005e050       ?New@?$ZoomWrapObject@VZoomNodeMeetingWaitingRoomCtrlWrap@@@@SAXAEBV?$FunctionCallbackInfo@VValue@v8@@@v8@@@Z 000000018005f050 f i zoom_node_addon.obj
 0001:0005e1f0       ?New@?$ZoomWrapObject@VZoomNodeMeetingChatCtrlWrap@@@@SAXAEBV?$FunctionCallbackInfo@VValue@v8@@@v8@@@Z 000000018005f1f0 f i zoom_node_addon.obj
 0001:0005e390       ?New@?$ZoomWrapObject@VZoomNodeMeetingReminderCtrlWrap@@@@SAXAEBV?$FunctionCallbackInfo@VValue@v8@@@v8@@@Z 000000018005f390 f i zoom_node_addon.obj
 0001:0005e530       ?New@?$ZoomWrapObject@VZoomNodeRequestRawLiveStreamPrivilegeHandlerWrap@@@@SAXAEBV?$FunctionCallbackInfo@VValue@v8@@@v8@@@Z 000000018005f530 f i zoom_node_addon.obj
 0001:0005e6c0       ?New@?$ZoomWrapObject@VZoomNodeMeetingLiveStreamCtrlWrap@@@@SAXAEBV?$FunctionCallbackInfo@VValue@v8@@@v8@@@Z 000000018005f6c0 f i zoom_node_addon.obj
 0001:0005e860       ?New@?$ZoomWrapObject@VZoomNodeMeetingRawArchivingCtrlWrap@@@@SAXAEBV?$FunctionCallbackInfo@VValue@v8@@@v8@@@Z 000000018005f860 f i zoom_node_addon.obj
 0001:0005e9f0       ?New@?$ZoomWrapObject@VZoomNodeMeetingAANCtrlWrap@@@@SAXAEBV?$FunctionCallbackInfo@VValue@v8@@@v8@@@Z 000000018005f9f0 f i zoom_node_addon.obj
 0001:0005eb80       ?New@?$ZoomWrapObject@VZoomNodeRawApiCtrlWrap@@@@SAXAEBV?$FunctionCallbackInfo@VValue@v8@@@v8@@@Z 000000018005fb80 f i zoom_node_addon.obj
 0001:0005ed10       ?New@?$ZoomWrapObject@VZoomNodeSettingShareCtrlWrap@@@@SAXAEBV?$FunctionCallbackInfo@VValue@v8@@@v8@@@Z 000000018005fd10 f i zoom_node_addon.obj
 0001:0005eea0       ?New@?$ZoomWrapObject@VZoomNodeSettingAccessibilityCtrlWrap@@@@SAXAEBV?$FunctionCallbackInfo@VValue@v8@@@v8@@@Z 000000018005fea0 f i zoom_node_addon.obj
 0001:0005f030       ?New@?$ZoomWrapObject@VZoomNodeSettingStatisticCtrlWrap@@@@SAXAEBV?$FunctionCallbackInfo@VValue@v8@@@v8@@@Z 0000000180060030 f i zoom_node_addon.obj
 0001:0005f1c0       ?New@?$ZoomWrapObject@VZoomNodeSDKSMSHelperWrap@@@@SAXAEBV?$FunctionCallbackInfo@VValue@v8@@@v8@@@Z 00000001800601c0 f i zoom_node_addon.obj
 0001:0005f360       ?New@?$ZoomWrapObject@VZoomNodeDirectShareHelperWrap@@@@SAXAEBV?$FunctionCallbackInfo@VValue@v8@@@v8@@@Z 0000000180060360 f i zoom_node_addon.obj
 0001:0005f500       ?New@?$ZoomWrapObject@VZoomNodeCustomizedResourceWrap@@@@SAXAEBV?$FunctionCallbackInfo@VValue@v8@@@v8@@@Z 0000000180060500 f i zoom_node_addon.obj
 0001:0005f690       ?New@?$ZoomWrapObject@VZoomNodeSettingVirtualBGCtrlWrap@@@@SAXAEBV?$FunctionCallbackInfo@VValue@v8@@@v8@@@Z 0000000180060690 f i zoom_node_addon.obj
 0001:0005f830       ?New@?$ZoomWrapObject@VZoomNodeSettingWallpaperCtrlWrap@@@@SAXAEBV?$FunctionCallbackInfo@VValue@v8@@@v8@@@Z 0000000180060830 f i zoom_node_addon.obj
 0001:0005f9d0       ?New@?$ZoomWrapObject@VZoomNodeSettingRecordingCtrlWrap@@@@SAXAEBV?$FunctionCallbackInfo@VValue@v8@@@v8@@@Z 00000001800609d0 f i zoom_node_addon.obj
 0001:0005fb70       ?New@?$ZoomWrapObject@VZoomNodeSettingUIStrategyCtrlWrap@@@@SAXAEBV?$FunctionCallbackInfo@VValue@v8@@@v8@@@Z 0000000180060b70 f i zoom_node_addon.obj
 0001:0005fd00       ?New@?$ZoomWrapObject@VZoomNodeSettingGeneralCtrlWrap@@@@SAXAEBV?$FunctionCallbackInfo@VValue@v8@@@v8@@@Z 0000000180060d00 f i zoom_node_addon.obj
 0001:0005fe90       ?New@?$ZoomWrapObject@VZoomNodeSettingAudioCtrlWrap@@@@SAXAEBV?$FunctionCallbackInfo@VValue@v8@@@v8@@@Z 0000000180060e90 f i zoom_node_addon.obj
 0001:00060030       ?New@?$ZoomWrapObject@VZoomNodeSettingVideoCtrlWrap@@@@SAXAEBV?$FunctionCallbackInfo@VValue@v8@@@v8@@@Z 0000000180061030 f i zoom_node_addon.obj
 0001:000601d0       ?New@?$ZoomWrapObject@VZoomNodeMeetingConfigCtrlWrap@@@@SAXAEBV?$FunctionCallbackInfo@VValue@v8@@@v8@@@Z 00000001800611d0 f i zoom_node_addon.obj
 0001:00060370       ?New@?$ZoomWrapObject@VZoomNodeMeetingH323CtrlWrap@@@@SAXAEBV?$FunctionCallbackInfo@VValue@v8@@@v8@@@Z 0000000180061370 f i zoom_node_addon.obj
 0001:00060510       ?New@?$ZoomWrapObject@VZoomNodeMeetingShareCtrlWrap@@@@SAXAEBV?$FunctionCallbackInfo@VValue@v8@@@v8@@@Z 0000000180061510 f i zoom_node_addon.obj
 0001:000606b0       ?New@?$ZoomWrapObject@VZoomNodeMeetingParticipantsCtrlWrap@@@@SAXAEBV?$FunctionCallbackInfo@VValue@v8@@@v8@@@Z 00000001800616b0 f i zoom_node_addon.obj
 0001:00060850       ?New@?$ZoomWrapObject@VZoomNodeMeetingRecordingCtrlWrap@@@@SAXAEBV?$FunctionCallbackInfo@VValue@v8@@@v8@@@Z 0000000180061850 f i zoom_node_addon.obj
 0001:000609f0       ?New@?$ZoomWrapObject@VZoomNodeMeetingVideoCtrlWrap@@@@SAXAEBV?$FunctionCallbackInfo@VValue@v8@@@v8@@@Z 00000001800619f0 f i zoom_node_addon.obj
 0001:00060b90       ?New@?$ZoomWrapObject@VZoomNodeMeetingAudioCtrlWrap@@@@SAXAEBV?$FunctionCallbackInfo@VValue@v8@@@v8@@@Z 0000000180061b90 f i zoom_node_addon.obj
 0001:00060d30       ?New@?$ZoomWrapObject@VZoomNodeMeetingAnnotationWrap@@@@SAXAEBV?$FunctionCallbackInfo@VValue@v8@@@v8@@@Z 0000000180061d30 f i zoom_node_addon.obj
 0001:00060ec0       ?New@?$ZoomWrapObject@VZoomNodeSettingWrap@@@@SAXAEBV?$FunctionCallbackInfo@VValue@v8@@@v8@@@Z 0000000180061ec0 f i zoom_node_addon.obj
 0001:00061050       ?New@?$ZoomWrapObject@VZoomNodeMeetingUICtrlWrap@@@@SAXAEBV?$FunctionCallbackInfo@VValue@v8@@@v8@@@Z 0000000180062050 f i zoom_node_addon.obj
 0001:000611f0       ?New@?$ZoomWrapObject@VZoomNodeMeetingInfoWrap@@@@SAXAEBV?$FunctionCallbackInfo@VValue@v8@@@v8@@@Z 00000001800621f0 f i zoom_node_addon.obj
 0001:00061380       ?New@?$ZoomWrapObject@VZoomNodeMeetingWrap@@@@SAXAEBV?$FunctionCallbackInfo@VValue@v8@@@v8@@@Z 0000000180062380 f i zoom_node_addon.obj
 0001:00061520       ?New@?$ZoomWrapObject@VZoomNodeWrap@@@@SAXAEBV?$FunctionCallbackInfo@VValue@v8@@@v8@@@Z 0000000180062520 f i zoom_node_addon.obj
 0001:000616b0       ?New@?$ZoomWrapObject@VZoomNodeAuthWrap@@@@SAXAEBV?$FunctionCallbackInfo@VValue@v8@@@v8@@@Z 00000001800626b0 f i zoom_node_addon.obj
 0001:00061840       ?WriteRaw@EpsCopyOutputStream@io@protobuf@google@@QEAAPEAEPEBXHPEAE@Z 0000000180062840 f i electron_sdk.pb.obj
 0001:00061890       ?WriteStringMaybeAliased@EpsCopyOutputStream@io@protobuf@google@@QEAAPEAEIAEBV?$basic_string@DU?$char_traits@D@std@@V?$allocator@D@2@@std@@PEAE@Z 0000000180062890 f i electron_sdk.pb.obj
 0001:00061980       ?Done@ParseContext@internal@protobuf@google@@QEAA_NPEAPEBD@Z 0000000180062980 f i electron_sdk.pb.obj
 0001:00061ad0       ?New@InitSDKParams@proto@sdk@electron@com@@UEBAPEAV12345@PEAVArena@protobuf@google@@@Z 0000000180062ad0 f i electron_sdk.pb.obj
 0001:00061ae0       ?GetCachedSize@AICompanionQueryFeedbackParams@proto@sdk@electron@com@@UEBAHXZ 0000000180062ae0 f i electron_sdk.pb.obj
 0001:00061ae0       ?GetCachedSize@ActionConfirmEnableSmartRecordingParams@proto@sdk@electron@com@@UEBAHXZ 0000000180062ae0 f i electron_sdk.pb.obj
 0001:00061ae0       ?GetCachedSize@AddBGImageParams@proto@sdk@electron@com@@UEBAHXZ 0000000180062ae0 f i electron_sdk.pb.obj
 0001:00061ae0       ?GetCachedSize@AddBGVideoParams@proto@sdk@electron@com@@UEBAHXZ 0000000180062ae0 f i electron_sdk.pb.obj
 0001:00061ae0       ?GetCachedSize@AddCustomizedPictureResourceParams@proto@sdk@electron@com@@UEBAHXZ 0000000180062ae0 f i electron_sdk.pb.obj
 0001:00061ae0       ?GetCachedSize@AddCustomizedStringResourceParams@proto@sdk@electron@com@@UEBAHXZ 0000000180062ae0 f i electron_sdk.pb.obj
 0001:00061ae0       ?GetCachedSize@AddCustomizedURLResourceParams@proto@sdk@electron@com@@UEBAHXZ 0000000180062ae0 f i electron_sdk.pb.obj
 0001:00061ae0       ?GetCachedSize@AdmitToMeetingParams@proto@sdk@electron@com@@UEBAHXZ 0000000180062ae0 f i electron_sdk.pb.obj
 0001:00061ae0       ?GetCachedSize@AgreeAICompanionFeatureSwitchParams@proto@sdk@electron@com@@UEBAHXZ 0000000180062ae0 f i electron_sdk.pb.obj
 0001:00061ae0       ?GetCachedSize@AgreeToEnableAndStartSmartRecordingParams@proto@sdk@electron@com@@UEBAHXZ 0000000180062ae0 f i electron_sdk.pb.obj
 0001:00061ae0       ?GetCachedSize@AllowLocalRecordingParams@proto@sdk@electron@com@@UEBAHXZ 0000000180062ae0 f i electron_sdk.pb.obj
 0001:00061ae0       ?GetCachedSize@AllowParticipantsToRequestCloudRecordingParams@proto@sdk@electron@com@@UEBAHXZ 0000000180062ae0 f i electron_sdk.pb.obj
 0001:00061ae0       ?GetCachedSize@AlwaysShowIconOnTaskBarParams@proto@sdk@electron@com@@UEBAHXZ 0000000180062ae0 f i electron_sdk.pb.obj
 0001:00061ae0       ?GetCachedSize@AnswerIDParams@proto@sdk@electron@com@@UEBAHXZ 0000000180062ae0 f i electron_sdk.pb.obj
 0001:00061ae0       ?GetCachedSize@AnswerQuestionParams@proto@sdk@electron@com@@UEBAHXZ 0000000180062ae0 f i electron_sdk.pb.obj
 0001:00061ae0       ?GetCachedSize@AuthWithJwtTokenParams@proto@sdk@electron@com@@UEBAHXZ 0000000180062ae0 f i electron_sdk.pb.obj
 0001:00061ae0       ?GetCachedSize@CallOutH323Params@proto@sdk@electron@com@@UEBAHXZ 0000000180062ae0 f i electron_sdk.pb.obj
 0001:00061ae0       ?GetCachedSize@CanStartRecordingParams@proto@sdk@electron@com@@UEBAHXZ 0000000180062ae0 f i electron_sdk.pb.obj
 0001:00061ae0       ?GetCachedSize@ChangeFloatToActiveSpkVideoSizeParams@proto@sdk@electron@com@@UEBAHXZ 0000000180062ae0 f i electron_sdk.pb.obj
 0001:00061ae0       ?GetCachedSize@ChangeQuerySettingsParams@proto@sdk@electron@com@@UEBAHXZ 0000000180062ae0 f i electron_sdk.pb.obj
 0001:00061ae0       ?GetCachedSize@ChatMessageIDParams@proto@sdk@electron@com@@UEBAHXZ 0000000180062ae0 f i electron_sdk.pb.obj
 0001:00061ae0       ?GetCachedSize@ClearAnnotationParams@proto@sdk@electron@com@@UEBAHXZ 0000000180062ae0 f i electron_sdk.pb.obj
 0001:00061ae0       ?GetCachedSize@ConfSettingDialogShownTabPageParams@proto@sdk@electron@com@@UEBAHXZ 0000000180062ae0 f i electron_sdk.pb.obj
 0001:00061ae0       ?GetCachedSize@ConfigDSCPParams@proto@sdk@electron@com@@UEBAHXZ 0000000180062ae0 f i electron_sdk.pb.obj
 0001:00061ae0       ?GetCachedSize@ConfigToShowUrlLinksInSettingParams@proto@sdk@electron@com@@UEBAHXZ 0000000180062ae0 f i electron_sdk.pb.obj
 0001:00061ae0       ?GetCachedSize@CreateRendererParams@proto@sdk@electron@com@@UEBAHXZ 0000000180062ae0 f i electron_sdk.pb.obj
 0001:00061ae0       ?GetCachedSize@DeclineEnableAndStartSmartRecordingParams@proto@sdk@electron@com@@UEBAHXZ 0000000180062ae0 f i electron_sdk.pb.obj
 0001:00061ae0       ?GetCachedSize@DeclineEnableParams@proto@sdk@electron@com@@UEBAHXZ 0000000180062ae0 f i electron_sdk.pb.obj
 0001:00061ae0       ?GetCachedSize@DeclineSendQueryParams@proto@sdk@electron@com@@UEBAHXZ 0000000180062ae0 f i electron_sdk.pb.obj
 0001:00061ae0       ?GetCachedSize@DeleteMeetingParams@proto@sdk@electron@com@@UEBAHXZ 0000000180062ae0 f i electron_sdk.pb.obj
 0001:00061ae0       ?GetCachedSize@DenyRequestStartCloudRecordingParams@proto@sdk@electron@com@@UEBAHXZ 0000000180062ae0 f i electron_sdk.pb.obj
 0001:00061ae0       ?GetCachedSize@DestroyRendererParams@proto@sdk@electron@com@@UEBAHXZ 0000000180062ae0 f i electron_sdk.pb.obj
 0001:00061ae0       ?GetCachedSize@DisAllowLocalRecordingParams@proto@sdk@electron@com@@UEBAHXZ 0000000180062ae0 f i electron_sdk.pb.obj
 0001:00061ae0       ?GetCachedSize@DisableAccountSettingTabPageParams@proto@sdk@electron@com@@UEBAHXZ 0000000180062ae0 f i electron_sdk.pb.obj
 0001:00061ae0       ?GetCachedSize@DisableAdvancedFeatures4GeneralSettingParams@proto@sdk@electron@com@@UEBAHXZ 0000000180062ae0 f i electron_sdk.pb.obj
 0001:00061ae0       ?GetCachedSize@DisableAutoShowSelectJoinAudioDlgWhenJoinMeetingParams@proto@sdk@electron@com@@UEBAHXZ 0000000180062ae0 f i electron_sdk.pb.obj
 0001:00061ae0       ?GetCachedSize@DisableFreeMeetingRemainTimeNotifyParams@proto@sdk@electron@com@@UEBAHXZ 0000000180062ae0 f i electron_sdk.pb.obj
 0001:00061ae0       ?GetCachedSize@DisablePopupMeetingWrongPSWDlgParams@proto@sdk@electron@com@@UEBAHXZ 0000000180062ae0 f i electron_sdk.pb.obj
 0001:00061ae0       ?GetCachedSize@DisableShowJoinMeetingWndParams@proto@sdk@electron@com@@UEBAHXZ 0000000180062ae0 f i electron_sdk.pb.obj
 0001:00061ae0       ?GetCachedSize@DisableSplitScreenModeUIElementsParams@proto@sdk@electron@com@@UEBAHXZ 0000000180062ae0 f i electron_sdk.pb.obj
 0001:00061ae0       ?GetCachedSize@DisableToolbarInviteButtonClickOriginActionParams@proto@sdk@electron@com@@UEBAHXZ 0000000180062ae0 f i electron_sdk.pb.obj
 0001:00061ae0       ?GetCachedSize@DisableTopMostAttr4SettingDialogParams@proto@sdk@electron@com@@UEBAHXZ 0000000180062ae0 f i electron_sdk.pb.obj
 0001:00061ae0       ?GetCachedSize@DisableWaitingForHostDialogParams@proto@sdk@electron@com@@UEBAHXZ 0000000180062ae0 f i electron_sdk.pb.obj
 0001:00061ae0       ?GetCachedSize@EditMeetingParams@proto@sdk@electron@com@@UEBAHXZ 0000000180062ae0 f i electron_sdk.pb.obj
 0001:00061ae0       ?GetCachedSize@EditMeetingWithWndParams@proto@sdk@electron@com@@UEBAHXZ 0000000180062ae0 f i electron_sdk.pb.obj
 0001:00061ae0       ?GetCachedSize@Enable49VideoesInGallaryViewParams@proto@sdk@electron@com@@UEBAHXZ 0000000180062ae0 f i electron_sdk.pb.obj
 0001:00061ae0       ?GetCachedSize@EnableAccelerateGPUWhenShareParams@proto@sdk@electron@com@@UEBAHXZ 0000000180062ae0 f i electron_sdk.pb.obj
 0001:00061ae0       ?GetCachedSize@EnableAddTimestampWatermarkParams@proto@sdk@electron@com@@UEBAHXZ 0000000180062ae0 f i electron_sdk.pb.obj
 0001:00061ae0       ?GetCachedSize@EnableAirplayInstructionWindowParams@proto@sdk@electron@com@@UEBAHXZ 0000000180062ae0 f i electron_sdk.pb.obj
 0001:00061ae0       ?GetCachedSize@EnableAlwaysMuteMicWhenJoinVoipParams@proto@sdk@electron@com@@UEBAHXZ 0000000180062ae0 f i electron_sdk.pb.obj
 0001:00061ae0       ?GetCachedSize@EnableAlwaysShowMeetingControlsParams@proto@sdk@electron@com@@UEBAHXZ 0000000180062ae0 f i electron_sdk.pb.obj
 0001:00061ae0       ?GetCachedSize@EnableAlwaysShowNameOnVideoParams@proto@sdk@electron@com@@UEBAHXZ 0000000180062ae0 f i electron_sdk.pb.obj
 0001:00061ae0       ?GetCachedSize@EnableApproveRemoteControlDlgParams@proto@sdk@electron@com@@UEBAHXZ 0000000180062ae0 f i electron_sdk.pb.obj
 0001:00061ae0       ?GetCachedSize@EnableAudioButtonOnMeetingUIParams@proto@sdk@electron@com@@UEBAHXZ 0000000180062ae0 f i electron_sdk.pb.obj
 0001:00061ae0       ?GetCachedSize@EnableAutoAdjustMicParams@proto@sdk@electron@com@@UEBAHXZ 0000000180062ae0 f i electron_sdk.pb.obj
 0001:00061ae0       ?GetCachedSize@EnableAutoAdjustMicVolumeWhenJoinAudioParams@proto@sdk@electron@com@@UEBAHXZ 0000000180062ae0 f i electron_sdk.pb.obj
 0001:00061ae0       ?GetCachedSize@EnableAutoAdjustSpeakerVolumeWhenJoinAudioParams@proto@sdk@electron@com@@UEBAHXZ 0000000180062ae0 f i electron_sdk.pb.obj
 0001:00061ae0       ?GetCachedSize@EnableAutoEndOtherMeetingWhenStartMeetingParams@proto@sdk@electron@com@@UEBAHXZ 0000000180062ae0 f i electron_sdk.pb.obj
 0001:00061ae0       ?GetCachedSize@EnableAutoFitToWindowWhenViewSharingParams@proto@sdk@electron@com@@UEBAHXZ 0000000180062ae0 f i electron_sdk.pb.obj
 0001:00061ae0       ?GetCachedSize@EnableAutoFullScreenVideoWhenJoinMeetingParams@proto@sdk@electron@com@@UEBAHXZ 0000000180062ae0 f i electron_sdk.pb.obj
 0001:00061ae0       ?GetCachedSize@EnableAutoFullScreenVideoWhenViewShareParams@proto@sdk@electron@com@@UEBAHXZ 0000000180062ae0 f i electron_sdk.pb.obj
 0001:00061ae0       ?GetCachedSize@EnableAutoHideJoinAudioDialogParams@proto@sdk@electron@com@@UEBAHXZ 0000000180062ae0 f i electron_sdk.pb.obj
 0001:00061ae0       ?GetCachedSize@EnableAutoJoinAudioParams@proto@sdk@electron@com@@UEBAHXZ 0000000180062ae0 f i electron_sdk.pb.obj
 0001:00061ae0       ?GetCachedSize@EnableAutoTurnOffVideoWhenJoinMeetingParams@proto@sdk@electron@com@@UEBAHXZ 0000000180062ae0 f i electron_sdk.pb.obj
 0001:00061ae0       ?GetCachedSize@EnableClaimHostFeatureParams@proto@sdk@electron@com@@UEBAHXZ 0000000180062ae0 f i electron_sdk.pb.obj
 0001:00061ae0       ?GetCachedSize@EnableDeclineRemoteControlResponseDlgParams@proto@sdk@electron@com@@UEBAHXZ 0000000180062ae0 f i electron_sdk.pb.obj
 0001:00061ae0       ?GetCachedSize@EnableDisplayReminderWindowWhenExitParams@proto@sdk@electron@com@@UEBAHXZ 0000000180062ae0 f i electron_sdk.pb.obj
 0001:00061ae0       ?GetCachedSize@EnableDualScreenModeParams@proto@sdk@electron@com@@UEBAHXZ 0000000180062ae0 f i electron_sdk.pb.obj
 0001:00061ae0       ?GetCachedSize@EnableEnterAndExitFullScreenButtonOnMeetingUIParams@proto@sdk@electron@com@@UEBAHXZ 0000000180062ae0 f i electron_sdk.pb.obj
 0001:00061ae0       ?GetCachedSize@EnableFaceBeautyEffectParams@proto@sdk@electron@com@@UEBAHXZ 0000000180062ae0 f i electron_sdk.pb.obj
 0001:00061ae0       ?GetCachedSize@EnableForceAutoStartMyVideoWhenJoinMeetingParams@proto@sdk@electron@com@@UEBAHXZ 0000000180062ae0 f i electron_sdk.pb.obj
 0001:00061ae0       ?GetCachedSize@EnableForceAutoStopMyVideoWhenJoinMeetingParams@proto@sdk@electron@com@@UEBAHXZ 0000000180062ae0 f i electron_sdk.pb.obj
 0001:00061ae0       ?GetCachedSize@EnableGrabShareWithoutReminderParams@proto@sdk@electron@com@@UEBAHXZ 0000000180062ae0 f i electron_sdk.pb.obj
 0001:00061ae0       ?GetCachedSize@EnableHDVideoParams@proto@sdk@electron@com@@UEBAHXZ 0000000180062ae0 f i electron_sdk.pb.obj
 0001:00061ae0       ?GetCachedSize@EnableHIdeFullPhoneNumber4PureCallinUserParams@proto@sdk@electron@com@@UEBAHXZ 0000000180062ae0 f i electron_sdk.pb.obj
 0001:00061ae0       ?GetCachedSize@EnableHardwareEncodeParams@proto@sdk@electron@com@@UEBAHXZ 0000000180062ae0 f i electron_sdk.pb.obj
 0001:00061ae0       ?GetCachedSize@EnableHideNoVideoUsersOnWallViewParams@proto@sdk@electron@com@@UEBAHXZ 0000000180062ae0 f i electron_sdk.pb.obj
 0001:00061ae0       ?GetCachedSize@EnableHoldSpaceKeyToSpeakParams@proto@sdk@electron@com@@UEBAHXZ 0000000180062ae0 f i electron_sdk.pb.obj
 0001:00061ae0       ?GetCachedSize@EnableInputMeetingPasswordDlgParams@proto@sdk@electron@com@@UEBAHXZ 0000000180062ae0 f i electron_sdk.pb.obj
 0001:00061ae0       ?GetCachedSize@EnableInputMeetingScreenNameDlgParams@proto@sdk@electron@com@@UEBAHXZ 0000000180062ae0 f i electron_sdk.pb.obj
 0001:00061ae0       ?GetCachedSize@EnableInviteButtonOnMeetingUIParams@proto@sdk@electron@com@@UEBAHXZ 0000000180062ae0 f i electron_sdk.pb.obj
 0001:00061ae0       ?GetCachedSize@EnableInviteLinkOnMeetingUIParams@proto@sdk@electron@com@@UEBAHXZ 0000000180062ae0 f i electron_sdk.pb.obj
 0001:00061ae0       ?GetCachedSize@EnableLButtonDBClick4SwitchFullScreenModeParams@proto@sdk@electron@com@@UEBAHXZ 0000000180062ae0 f i electron_sdk.pb.obj
 0001:00061ae0       ?GetCachedSize@EnableLeaveMeetingOptionForHostParams@proto@sdk@electron@com@@UEBAHXZ 0000000180062ae0 f i electron_sdk.pb.obj
 0001:00061ae0       ?GetCachedSize@EnableLengthLimitationOfMeetingNumberParams@proto@sdk@electron@com@@UEBAHXZ 0000000180062ae0 f i electron_sdk.pb.obj
 0001:00061ae0       ?GetCachedSize@EnableLiveStreamReminderParams@proto@sdk@electron@com@@UEBAHXZ 0000000180062ae0 f i electron_sdk.pb.obj
 0001:00061ae0       ?GetCachedSize@EnableLocalRecordingConverProgressBarDialogParams@proto@sdk@electron@com@@UEBAHXZ 0000000180062ae0 f i electron_sdk.pb.obj
 0001:00061ae0       ?GetCachedSize@EnableMicOriginalInputParams@proto@sdk@electron@com@@UEBAHXZ 0000000180062ae0 f i electron_sdk.pb.obj
 0001:00061ae0       ?GetCachedSize@EnableMultiAudioStreamRecordParams@proto@sdk@electron@com@@UEBAHXZ 0000000180062ae0 f i electron_sdk.pb.obj
 0001:00061ae0       ?GetCachedSize@EnableMuteOnEntryParams@proto@sdk@electron@com@@UEBAHXZ 0000000180062ae0 f i electron_sdk.pb.obj
 0001:00061ae0       ?GetCachedSize@EnableOptimizeFor3rdPartyVideoEditorParams@proto@sdk@electron@com@@UEBAHXZ 0000000180062ae0 f i electron_sdk.pb.obj
 0001:00061ae0       ?GetCachedSize@EnableParticipantsCreateWithoutHostParams@proto@sdk@electron@com@@UEBAHXZ 0000000180062ae0 f i electron_sdk.pb.obj
 0001:00061ae0       ?GetCachedSize@EnablePlaceVideoNextToShareInRecordParams@proto@sdk@electron@com@@UEBAHXZ 0000000180062ae0 f i electron_sdk.pb.obj
 0001:00061ae0       ?GetCachedSize@EnablePlayChimeWhenEnterOrExitParams@proto@sdk@electron@com@@UEBAHXZ 0000000180062ae0 f i electron_sdk.pb.obj
 0001:00061ae0       ?GetCachedSize@EnablePlayMeetingAudioParams@proto@sdk@electron@com@@UEBAHXZ 0000000180062ae0 f i electron_sdk.pb.obj
 0001:00061ae0       ?GetCachedSize@EnableRemoteControlAllApplicationsParams@proto@sdk@electron@com@@UEBAHXZ 0000000180062ae0 f i electron_sdk.pb.obj
 0001:00061ae0       ?GetCachedSize@EnableSelectRecordFileLocationAfterMeetingParams@proto@sdk@electron@com@@UEBAHXZ 0000000180062ae0 f i electron_sdk.pb.obj
 0001:00061ae0       ?GetCachedSize@EnableShareIOSDeviceParams@proto@sdk@electron@com@@UEBAHXZ 0000000180062ae0 f i electron_sdk.pb.obj
 0001:00061ae0       ?GetCachedSize@EnableShareWhiteBoardParams@proto@sdk@electron@com@@UEBAHXZ 0000000180062ae0 f i electron_sdk.pb.obj
 0001:00061ae0       ?GetCachedSize@EnableShowMyMeetingElapseTimeParams@proto@sdk@electron@com@@UEBAHXZ 0000000180062ae0 f i electron_sdk.pb.obj
 0001:00061ae0       ?GetCachedSize@EnableShowShareSwitchMultiToSingleConfirmDlgParams@proto@sdk@electron@com@@UEBAHXZ 0000000180062ae0 f i electron_sdk.pb.obj
 0001:00061ae0       ?GetCachedSize@EnableShowVideoThumbnailWhenShareParams@proto@sdk@electron@com@@UEBAHXZ 0000000180062ae0 f i electron_sdk.pb.obj
 0001:00061ae0       ?GetCachedSize@EnableSplitScreenModeParams@proto@sdk@electron@com@@UEBAHXZ 0000000180062ae0 f i electron_sdk.pb.obj
 0001:00061ae0       ?GetCachedSize@EnableSpotlightSelfParams@proto@sdk@electron@com@@UEBAHXZ 0000000180062ae0 f i electron_sdk.pb.obj
 0001:00061ae0       ?GetCachedSize@EnableStereoAudioParams@proto@sdk@electron@com@@UEBAHXZ 0000000180062ae0 f i electron_sdk.pb.obj
 0001:00061ae0       ?GetCachedSize@EnableSuppressAudioNotifyParams@proto@sdk@electron@com@@UEBAHXZ 0000000180062ae0 f i electron_sdk.pb.obj
 0001:00061ae0       ?GetCachedSize@EnableToolTipsShowParams@proto@sdk@electron@com@@UEBAHXZ 0000000180062ae0 f i electron_sdk.pb.obj
 0001:00061ae0       ?GetCachedSize@EnableVideoButtonOnMeetingUIParams@proto@sdk@electron@com@@UEBAHXZ 0000000180062ae0 f i electron_sdk.pb.obj
 0001:00061ae0       ?GetCachedSize@EnableVideoMirrorEffectParams@proto@sdk@electron@com@@UEBAHXZ 0000000180062ae0 f i electron_sdk.pb.obj
 0001:00061ae0       ?GetCachedSize@EnableVideoPreviewDialogParams@proto@sdk@electron@com@@UEBAHXZ 0000000180062ae0 f i electron_sdk.pb.obj
 0001:00061ae0       ?GetCachedSize@EnableWaitingRoomOnEntryParams@proto@sdk@electron@com@@UEBAHXZ 0000000180062ae0 f i electron_sdk.pb.obj
 0001:00061ae0       ?GetCachedSize@EnableZoomAuthRealNameMeetingUIShownParams@proto@sdk@electron@com@@UEBAHXZ 0000000180062ae0 f i electron_sdk.pb.obj
 0001:00061ae0       ?GetCachedSize@EnableZoomDocsParams@proto@sdk@electron@com@@UEBAHXZ 0000000180062ae0 f i electron_sdk.pb.obj
 0001:00061ae0       ?GetCachedSize@EnterFullScreenParams@proto@sdk@electron@com@@UEBAHXZ 0000000180062ae0 f i electron_sdk.pb.obj
 0001:00061ae0       ?GetCachedSize@ExitFullScreenParams@proto@sdk@electron@com@@UEBAHXZ 0000000180062ae0 f i electron_sdk.pb.obj
 0001:00061ae0       ?GetCachedSize@ExpelUserParams@proto@sdk@electron@com@@UEBAHXZ 0000000180062ae0 f i electron_sdk.pb.obj
 0001:00061ae0       ?GetCachedSize@ForceDisableMultiShareParams@proto@sdk@electron@com@@UEBAHXZ 0000000180062ae0 f i electron_sdk.pb.obj
 0001:00061ae0       ?GetCachedSize@GenerateSSOLoginWebURLParams@proto@sdk@electron@com@@UEBAHXZ 0000000180062ae0 f i electron_sdk.pb.obj
 0001:00061ae0       ?GetCachedSize@GetAuthorizedBotListByUserIDParams@proto@sdk@electron@com@@UEBAHXZ 0000000180062ae0 f i electron_sdk.pb.obj
 0001:00061ae0       ?GetCachedSize@GetBotAuthorizedUserInfoByUserIDParams@proto@sdk@electron@com@@UEBAHXZ 0000000180062ae0 f i electron_sdk.pb.obj
 0001:00061ae0       ?GetCachedSize@GetDocsSharingSourceInfoListParams@proto@sdk@electron@com@@UEBAHXZ 0000000180062ae0 f i electron_sdk.pb.obj
 0001:00061ae0       ?GetCachedSize@GetLiveStreamItemInfoParams@proto@sdk@electron@com@@UEBAHXZ 0000000180062ae0 f i electron_sdk.pb.obj
 0001:00061ae0       ?GetCachedSize@GetRawDataTypeParams@proto@sdk@electron@com@@UEBAHXZ 0000000180062ae0 f i electron_sdk.pb.obj
 0001:00061ae0       ?GetCachedSize@GetResolutionParams@proto@sdk@electron@com@@UEBAHXZ 0000000180062ae0 f i electron_sdk.pb.obj
 0001:00061ae0       ?GetCachedSize@GetSubscribeIdParams@proto@sdk@electron@com@@UEBAHXZ 0000000180062ae0 f i electron_sdk.pb.obj
 0001:00061ae0       ?GetCachedSize@GetUserInfoByUserIDParams@proto@sdk@electron@com@@UEBAHXZ 0000000180062ae0 f i electron_sdk.pb.obj
 0001:00061ae0       ?GetCachedSize@GetWaitingRoomUserInfoByIDParams@proto@sdk@electron@com@@UEBAHXZ 0000000180062ae0 f i electron_sdk.pb.obj
 0001:00061ae0       ?GetCachedSize@GetWallpaperItemByIDParams@proto@sdk@electron@com@@UEBAHXZ 0000000180062ae0 f i electron_sdk.pb.obj
 0001:00061ae0       ?GetCachedSize@HandleZoomWebUriProtocolActionParams@proto@sdk@electron@com@@UEBAHXZ 0000000180062ae0 f i electron_sdk.pb.obj
 0001:00061ae0       ?GetCachedSize@HideAutoCopyInviteLinkCheckBoxParams@proto@sdk@electron@com@@UEBAHXZ 0000000180062ae0 f i electron_sdk.pb.obj
 0001:00061ae0       ?GetCachedSize@HideChatItemOnMeetingUIParams@proto@sdk@electron@com@@UEBAHXZ 0000000180062ae0 f i electron_sdk.pb.obj
 0001:00061ae0       ?GetCachedSize@HideCopyInvitationOnInviteWindowParams@proto@sdk@electron@com@@UEBAHXZ 0000000180062ae0 f i electron_sdk.pb.obj
 0001:00061ae0       ?GetCachedSize@HideCopyUrlOnInviteWindowParams@proto@sdk@electron@com@@UEBAHXZ 0000000180062ae0 f i electron_sdk.pb.obj
 0001:00061ae0       ?GetCachedSize@HideKeypadButtonOnMeetingWindowParams@proto@sdk@electron@com@@UEBAHXZ 0000000180062ae0 f i electron_sdk.pb.obj
 0001:00061ae0       ?GetCachedSize@HideOrShowNoVideoUserOnVideoWallParams@proto@sdk@electron@com@@UEBAHXZ 0000000180062ae0 f i electron_sdk.pb.obj
 0001:00061ae0       ?GetCachedSize@HidePollOnMeetingUIParams@proto@sdk@electron@com@@UEBAHXZ 0000000180062ae0 f i electron_sdk.pb.obj
 0001:00061ae0       ?GetCachedSize@HideQAOnMeetingUIParams@proto@sdk@electron@com@@UEBAHXZ 0000000180062ae0 f i electron_sdk.pb.obj
 0001:00061ae0       ?GetCachedSize@HideRecordItemOnMeetingUIParams@proto@sdk@electron@com@@UEBAHXZ 0000000180062ae0 f i electron_sdk.pb.obj
 0001:00061ae0       ?GetCachedSize@HideRemoteControlOnMeetingUIParams@proto@sdk@electron@com@@UEBAHXZ 0000000180062ae0 f i electron_sdk.pb.obj
 0001:00061ae0       ?GetCachedSize@HideSwitchCameraButtonParams@proto@sdk@electron@com@@UEBAHXZ 0000000180062ae0 f i electron_sdk.pb.obj
 0001:00061ae0       ?GetCachedSize@HideUpgradeFreeMeetingButtonParams@proto@sdk@electron@com@@UEBAHXZ 0000000180062ae0 f i electron_sdk.pb.obj
 0001:00061ae0       ?GetCachedSize@InitSDKParams@proto@sdk@electron@com@@UEBAHXZ 0000000180062ae0 f i electron_sdk.pb.obj
 0001:00061ae0       ?GetCachedSize@InputMeetingIDAndScreenNameParams@proto@sdk@electron@com@@UEBAHXZ 0000000180062ae0 f i electron_sdk.pb.obj
 0001:00061ae0       ?GetCachedSize@InputMeetingPasswordAndScreenNameParams@proto@sdk@electron@com@@UEBAHXZ 0000000180062ae0 f i electron_sdk.pb.obj
 0001:00061ae0       ?GetCachedSize@InputMeetingScreenNameParams@proto@sdk@electron@com@@UEBAHXZ 0000000180062ae0 f i electron_sdk.pb.obj
 0001:00061ae0       ?GetCachedSize@InputScreenNameParams@proto@sdk@electron@com@@UEBAHXZ 0000000180062ae0 f i electron_sdk.pb.obj
 0001:00061ae0       ?GetCachedSize@InputUserInfoParams@proto@sdk@electron@com@@UEBAHXZ 0000000180062ae0 f i electron_sdk.pb.obj
 0001:00061ae0       ?GetCachedSize@InputWebinarRegisterEmailAndScreenNameParams@proto@sdk@electron@com@@UEBAHXZ 0000000180062ae0 f i electron_sdk.pb.obj
 0001:00061ae0       ?GetCachedSize@IsHardwareEncodeEnabledParams@proto@sdk@electron@com@@UEBAHXZ 0000000180062ae0 f i electron_sdk.pb.obj
 0001:00061ae0       ?GetCachedSize@IsSupportLocalRecordingParams@proto@sdk@electron@com@@UEBAHXZ 0000000180062ae0 f i electron_sdk.pb.obj
 0001:00061ae0       ?GetCachedSize@IsValidEmailParams@proto@sdk@electron@com@@UEBAHXZ 0000000180062ae0 f i electron_sdk.pb.obj
 0001:00061ae0       ?GetCachedSize@JoinMeetingParams@proto@sdk@electron@com@@UEBAHXZ 0000000180062ae0 f i electron_sdk.pb.obj
 0001:00061ae0       ?GetCachedSize@JoinWithArchiveParams@proto@sdk@electron@com@@UEBAHXZ 0000000180062ae0 f i electron_sdk.pb.obj
 0001:00061ae0       ?GetCachedSize@JoinWithoutLoginParams@proto@sdk@electron@com@@UEBAHXZ 0000000180062ae0 f i electron_sdk.pb.obj
 0001:00061ae0       ?GetCachedSize@LeaveMeetingParams@proto@sdk@electron@com@@UEBAHXZ 0000000180062ae0 f i electron_sdk.pb.obj
 0001:00061ae0       ?GetCachedSize@LoginWithSSOTokenParams@proto@sdk@electron@com@@UEBAHXZ 0000000180062ae0 f i electron_sdk.pb.obj
 0001:00061ae0       ?GetCachedSize@MoveFloatVideoWndParams@proto@sdk@electron@com@@UEBAHXZ 0000000180062ae0 f i electron_sdk.pb.obj
 0001:00061ae0       ?GetCachedSize@MuteAudioParams@proto@sdk@electron@com@@UEBAHXZ 0000000180062ae0 f i electron_sdk.pb.obj
 0001:00061ae0       ?GetCachedSize@MuteVideoParams@proto@sdk@electron@com@@UEBAHXZ 0000000180062ae0 f i electron_sdk.pb.obj
 0001:00061ae0       ?GetCachedSize@PinVideoToFirstViewParams@proto@sdk@electron@com@@UEBAHXZ 0000000180062ae0 f i electron_sdk.pb.obj
 0001:00061ae0       ?GetCachedSize@PollingIDParams@proto@sdk@electron@com@@UEBAHXZ 0000000180062ae0 f i electron_sdk.pb.obj
 0001:00061ae0       ?GetCachedSize@PrePopulateWebinarRegistrationInfoParams@proto@sdk@electron@com@@UEBAHXZ 0000000180062ae0 f i electron_sdk.pb.obj
 0001:00061ae0       ?GetCachedSize@PutInWaitingRoomParams@proto@sdk@electron@com@@UEBAHXZ 0000000180062ae0 f i electron_sdk.pb.obj
 0001:00061ae0       ?GetCachedSize@QuestionCaseSensitiveParams@proto@sdk@electron@com@@UEBAHXZ 0000000180062ae0 f i electron_sdk.pb.obj
 0001:00061ae0       ?GetCachedSize@QuestionIDParams@proto@sdk@electron@com@@UEBAHXZ 0000000180062ae0 f i electron_sdk.pb.obj
 0001:00061ae0       ?GetCachedSize@QuestionImagePathParams@proto@sdk@electron@com@@UEBAHXZ 0000000180062ae0 f i electron_sdk.pb.obj
 0001:00061ae0       ?GetCachedSize@RedirectClickAudioBTNEventParams@proto@sdk@electron@com@@UEBAHXZ 0000000180062ae0 f i electron_sdk.pb.obj
 0001:00061ae0       ?GetCachedSize@RedirectClickAudioMenuBTNEventParams@proto@sdk@electron@com@@UEBAHXZ 0000000180062ae0 f i electron_sdk.pb.obj
 0001:00061ae0       ?GetCachedSize@RedirectClickCCBTNEventParams@proto@sdk@electron@com@@UEBAHXZ 0000000180062ae0 f i electron_sdk.pb.obj
 0001:00061ae0       ?GetCachedSize@RedirectClickCustomLiveStreamMenuEventParams@proto@sdk@electron@com@@UEBAHXZ 0000000180062ae0 f i electron_sdk.pb.obj
 0001:00061ae0       ?GetCachedSize@RedirectClickEndMeetingBTNEventParams@proto@sdk@electron@com@@UEBAHXZ 0000000180062ae0 f i electron_sdk.pb.obj
 0001:00061ae0       ?GetCachedSize@RedirectClickParticipantListBTNEventParams@proto@sdk@electron@com@@UEBAHXZ 0000000180062ae0 f i electron_sdk.pb.obj
 0001:00061ae0       ?GetCachedSize@RedirectClickShareBTNEventParams@proto@sdk@electron@com@@UEBAHXZ 0000000180062ae0 f i electron_sdk.pb.obj
 0001:00061ae0       ?GetCachedSize@RedirectConfirmStartArchiveDialogParams@proto@sdk@electron@com@@UEBAHXZ 0000000180062ae0 f i electron_sdk.pb.obj
 0001:00061ae0       ?GetCachedSize@RedirectEndOtherMeetingParams@proto@sdk@electron@com@@UEBAHXZ 0000000180062ae0 f i electron_sdk.pb.obj
 0001:00061ae0       ?GetCachedSize@RedirectFreeMeetingEndingReminderDlgParams@proto@sdk@electron@com@@UEBAHXZ 0000000180062ae0 f i electron_sdk.pb.obj
 0001:00061ae0       ?GetCachedSize@RedirectMeetingInputUserInfoDialogParams@proto@sdk@electron@com@@UEBAHXZ 0000000180062ae0 f i electron_sdk.pb.obj
 0001:00061ae0       ?GetCachedSize@RedirectMeetingWarningMsgParams@proto@sdk@electron@com@@UEBAHXZ 0000000180062ae0 f i electron_sdk.pb.obj
 0001:00061ae0       ?GetCachedSize@RedirectWebinarNeedRegisterParams@proto@sdk@electron@com@@UEBAHXZ 0000000180062ae0 f i electron_sdk.pb.obj
 0001:00061ae0       ?GetCachedSize@RedoParams@proto@sdk@electron@com@@UEBAHXZ 0000000180062ae0 f i electron_sdk.pb.obj
 0001:00061ae0       ?GetCachedSize@RemoveBGImageParams@proto@sdk@electron@com@@UEBAHXZ 0000000180062ae0 f i electron_sdk.pb.obj
 0001:00061ae0       ?GetCachedSize@RemoveBGVideoParams@proto@sdk@electron@com@@UEBAHXZ 0000000180062ae0 f i electron_sdk.pb.obj
 0001:00061ae0       ?GetCachedSize@RemoveRawLiveStreamPrivilegeParams@proto@sdk@electron@com@@UEBAHXZ 0000000180062ae0 f i electron_sdk.pb.obj
 0001:00061ae0       ?GetCachedSize@RenameUserParams@proto@sdk@electron@com@@UEBAHXZ 0000000180062ae0 f i electron_sdk.pb.obj
 0001:00061ae0       ?GetCachedSize@RequestRawLiveStreamParams@proto@sdk@electron@com@@UEBAHXZ 0000000180062ae0 f i electron_sdk.pb.obj
 0001:00061ae0       ?GetCachedSize@RetrieveParams@proto@sdk@electron@com@@UEBAHXZ 0000000180062ae0 f i electron_sdk.pb.obj
 0001:00061ae0       ?GetCachedSize@SSOLoginWithWebUriProtocolParams@proto@sdk@electron@com@@UEBAHXZ 0000000180062ae0 f i electron_sdk.pb.obj
 0001:00061ae0       ?GetCachedSize@ScheduleMeetingWithWndParams@proto@sdk@electron@com@@UEBAHXZ 0000000180062ae0 f i electron_sdk.pb.obj
 0001:00061ae0       ?GetCachedSize@SelectMicParams@proto@sdk@electron@com@@UEBAHXZ 0000000180062ae0 f i electron_sdk.pb.obj
 0001:00061ae0       ?GetCachedSize@SelectSpeakerParams@proto@sdk@electron@com@@UEBAHXZ 0000000180062ae0 f i electron_sdk.pb.obj
 0001:00061ae0       ?GetCachedSize@SelectVideoCameraParams@proto@sdk@electron@com@@UEBAHXZ 0000000180062ae0 f i electron_sdk.pb.obj
 0001:00061ae0       ?GetCachedSize@SendQueryQuestionParams@proto@sdk@electron@com@@UEBAHXZ 0000000180062ae0 f i electron_sdk.pb.obj
 0001:00061ae0       ?GetCachedSize@SetAttendeeViewModeParams@proto@sdk@electron@com@@UEBAHXZ 0000000180062ae0 f i electron_sdk.pb.obj
 0001:00061ae0       ?GetCachedSize@SetAudioShareModeParams@proto@sdk@electron@com@@UEBAHXZ 0000000180062ae0 f i electron_sdk.pb.obj
 0001:00061ae0       ?GetCachedSize@SetBottomFloatToolBarWndVisibilityParams@proto@sdk@electron@com@@UEBAHXZ 0000000180062ae0 f i electron_sdk.pb.obj
 0001:00061ae0       ?GetCachedSize@SetChatMessageBuilderParams@proto@sdk@electron@com@@UEBAHXZ 0000000180062ae0 f i electron_sdk.pb.obj
 0001:00061ae0       ?GetCachedSize@SetColorParams@proto@sdk@electron@com@@UEBAHXZ 0000000180062ae0 f i electron_sdk.pb.obj
 0001:00061ae0       ?GetCachedSize@SetCustomizedCloudRecordingMgrUrlParams@proto@sdk@electron@com@@UEBAHXZ 0000000180062ae0 f i electron_sdk.pb.obj
 0001:00061ae0       ?GetCachedSize@SetCustomizedInvitationDomainParams@proto@sdk@electron@com@@UEBAHXZ 0000000180062ae0 f i electron_sdk.pb.obj
 0001:00061ae0       ?GetCachedSize@SetCustomizedPollingUrlParams@proto@sdk@electron@com@@UEBAHXZ 0000000180062ae0 f i electron_sdk.pb.obj
 0001:00061ae0       ?GetCachedSize@SetDashboardViewSizeParams@proto@sdk@electron@com@@UEBAHXZ 0000000180062ae0 f i electron_sdk.pb.obj
 0001:00061ae0       ?GetCachedSize@SetDefaultCellPhoneInfoParams@proto@sdk@electron@com@@UEBAHXZ 0000000180062ae0 f i electron_sdk.pb.obj
 0001:00061ae0       ?GetCachedSize@SetDirectShareMonitorIDParams@proto@sdk@electron@com@@UEBAHXZ 0000000180062ae0 f i electron_sdk.pb.obj
 0001:00061ae0       ?GetCachedSize@SetDocDashboardSizeParams@proto@sdk@electron@com@@UEBAHXZ 0000000180062ae0 f i electron_sdk.pb.obj
 0001:00061ae0       ?GetCachedSize@SetDocsCreateOptionParams@proto@sdk@electron@com@@UEBAHXZ 0000000180062ae0 f i electron_sdk.pb.obj
 0001:00061ae0       ?GetCachedSize@SetDocsShareOptionParams@proto@sdk@electron@com@@UEBAHXZ 0000000180062ae0 f i electron_sdk.pb.obj
 0001:00061ae0       ?GetCachedSize@SetDocsViewPosParams@proto@sdk@electron@com@@UEBAHXZ 0000000180062ae0 f i electron_sdk.pb.obj
 0001:00061ae0       ?GetCachedSize@SetDocsViewSizeParams@proto@sdk@electron@com@@UEBAHXZ 0000000180062ae0 f i electron_sdk.pb.obj
 0001:00061ae0       ?GetCachedSize@SetEchoCancellationLevelParams@proto@sdk@electron@com@@UEBAHXZ 0000000180062ae0 f i electron_sdk.pb.obj
 0001:00061ae0       ?GetCachedSize@SetEnableOptionParams@proto@sdk@electron@com@@UEBAHXZ 0000000180062ae0 f i electron_sdk.pb.obj
 0001:00061ae0       ?GetCachedSize@SetFloatVideoPosParams@proto@sdk@electron@com@@UEBAHXZ 0000000180062ae0 f i electron_sdk.pb.obj
 0001:00061ae0       ?GetCachedSize@SetFloatVideoWndVisibilityParams@proto@sdk@electron@com@@UEBAHXZ 0000000180062ae0 f i electron_sdk.pb.obj
 0001:00061ae0       ?GetCachedSize@SetLineWidthParams@proto@sdk@electron@com@@UEBAHXZ 0000000180062ae0 f i electron_sdk.pb.obj
 0001:00061ae0       ?GetCachedSize@SetMaxDurationForOnlyHostInMeetingParams@proto@sdk@electron@com@@UEBAHXZ 0000000180062ae0 f i electron_sdk.pb.obj
 0001:00061ae0       ?GetCachedSize@SetMeetingTopicParam@proto@sdk@electron@com@@UEBAHXZ 0000000180062ae0 f i electron_sdk.pb.obj
 0001:00061ae0       ?GetCachedSize@SetMeetingTopicParams@proto@sdk@electron@com@@UEBAHXZ 0000000180062ae0 f i electron_sdk.pb.obj
 0001:00061ae0       ?GetCachedSize@SetMeetingUIPosParams@proto@sdk@electron@com@@UEBAHXZ 0000000180062ae0 f i electron_sdk.pb.obj
 0001:00061ae0       ?GetCachedSize@SetMicVolParams@proto@sdk@electron@com@@UEBAHXZ 0000000180062ae0 f i electron_sdk.pb.obj
 0001:00061ae0       ?GetCachedSize@SetOwnerWindowParams@proto@sdk@electron@com@@UEBAHXZ 0000000180062ae0 f i electron_sdk.pb.obj
 0001:00061ae0       ?GetCachedSize@SetPanelistChatPrivilegeParams@proto@sdk@electron@com@@UEBAHXZ 0000000180062ae0 f i electron_sdk.pb.obj
 0001:00061ae0       ?GetCachedSize@SetParticipantsChatPrivilegeParams@proto@sdk@electron@com@@UEBAHXZ 0000000180062ae0 f i electron_sdk.pb.obj
 0001:00061ae0       ?GetCachedSize@SetPipeInitParams@proto@sdk@electron@com@@UEBAHXZ 0000000180062ae0 f i electron_sdk.pb.obj
 0001:00061ae0       ?GetCachedSize@SetRawDataResolutionParams@proto@sdk@electron@com@@UEBAHXZ 0000000180062ae0 f i electron_sdk.pb.obj
 0001:00061ae0       ?GetCachedSize@SetRecordingPathParams@proto@sdk@electron@com@@UEBAHXZ 0000000180062ae0 f i electron_sdk.pb.obj
 0001:00061ae0       ?GetCachedSize@SetSharingToolBarVisibilityParams@proto@sdk@electron@com@@UEBAHXZ 0000000180062ae0 f i electron_sdk.pb.obj
 0001:00061ae0       ?GetCachedSize@SetShowAudioUseComputerSoundChkboxParams@proto@sdk@electron@com@@UEBAHXZ 0000000180062ae0 f i electron_sdk.pb.obj
 0001:00061ae0       ?GetCachedSize@SetShowCallInTabParams@proto@sdk@electron@com@@UEBAHXZ 0000000180062ae0 f i electron_sdk.pb.obj
 0001:00061ae0       ?GetCachedSize@SetShowCallMeTabParams@proto@sdk@electron@com@@UEBAHXZ 0000000180062ae0 f i electron_sdk.pb.obj
 0001:00061ae0       ?GetCachedSize@SetShowH323SubTabPageParams@proto@sdk@electron@com@@UEBAHXZ 0000000180062ae0 f i electron_sdk.pb.obj
 0001:00061ae0       ?GetCachedSize@SetShowInviteDlgTabPageParams@proto@sdk@electron@com@@UEBAHXZ 0000000180062ae0 f i electron_sdk.pb.obj
 0001:00061ae0       ?GetCachedSize@SetShowVideoOptimizeChkboxParams@proto@sdk@electron@com@@UEBAHXZ 0000000180062ae0 f i electron_sdk.pb.obj
 0001:00061ae0       ?GetCachedSize@SetSpeakerVolParams@proto@sdk@electron@com@@UEBAHXZ 0000000180062ae0 f i electron_sdk.pb.obj
 0001:00061ae0       ?GetCachedSize@SetToolParams@proto@sdk@electron@com@@UEBAHXZ 0000000180062ae0 f i electron_sdk.pb.obj
 0001:00061ae0       ?GetCachedSize@SetUsingGreenScreenParams@proto@sdk@electron@com@@UEBAHXZ 0000000180062ae0 f i electron_sdk.pb.obj
 0001:00061ae0       ?GetCachedSize@SetVideoQualityPreferenceParams@proto@sdk@electron@com@@UEBAHXZ 0000000180062ae0 f i electron_sdk.pb.obj
 0001:00061ae0       ?GetCachedSize@SetWallpaperParams@proto@sdk@electron@com@@UEBAHXZ 0000000180062ae0 f i electron_sdk.pb.obj
 0001:00061ae0       ?GetCachedSize@SetWhiteboardCreateOptionParams@proto@sdk@electron@com@@UEBAHXZ 0000000180062ae0 f i electron_sdk.pb.obj
 0001:00061ae0       ?GetCachedSize@SetWhiteboardShareOptionParams@proto@sdk@electron@com@@UEBAHXZ 0000000180062ae0 f i electron_sdk.pb.obj
 0001:00061ae0       ?GetCachedSize@SetWhiteboardViewPosParams@proto@sdk@electron@com@@UEBAHXZ 0000000180062ae0 f i electron_sdk.pb.obj
 0001:00061ae0       ?GetCachedSize@SetWhiteboardViewSizeParams@proto@sdk@electron@com@@UEBAHXZ 0000000180062ae0 f i electron_sdk.pb.obj
 0001:00061ae0       ?GetCachedSize@ShowAANPanelParams@proto@sdk@electron@com@@UEBAHXZ 0000000180062ae0 f i electron_sdk.pb.obj
 0001:00061ae0       ?GetCachedSize@ShowBottomFloatToolbarWndParams@proto@sdk@electron@com@@UEBAHXZ 0000000180062ae0 f i electron_sdk.pb.obj
 0001:00061ae0       ?GetCachedSize@ShowChatDlgParams@proto@sdk@electron@com@@UEBAHXZ 0000000180062ae0 f i electron_sdk.pb.obj
 0001:00061ae0       ?GetCachedSize@ShowDashboardViewParams@proto@sdk@electron@com@@UEBAHXZ 0000000180062ae0 f i electron_sdk.pb.obj
 0001:00061ae0       ?GetCachedSize@ShowDocsDashboardParams@proto@sdk@electron@com@@UEBAHXZ 0000000180062ae0 f i electron_sdk.pb.obj
 0001:00061ae0       ?GetCachedSize@ShowDocsViewWindowParams@proto@sdk@electron@com@@UEBAHXZ 0000000180062ae0 f i electron_sdk.pb.obj
 0001:00061ae0       ?GetCachedSize@ShowIndicatorPanelParams@proto@sdk@electron@com@@UEBAHXZ 0000000180062ae0 f i electron_sdk.pb.obj
 0001:00061ae0       ?GetCachedSize@ShowPanelParams@proto@sdk@electron@com@@UEBAHXZ 0000000180062ae0 f i electron_sdk.pb.obj
 0001:00061ae0       ?GetCachedSize@ShowParticipantsListWndParams@proto@sdk@electron@com@@UEBAHXZ 0000000180062ae0 f i electron_sdk.pb.obj
 0001:00061ae0       ?GetCachedSize@ShowPreOrNextPageVideoParams@proto@sdk@electron@com@@UEBAHXZ 0000000180062ae0 f i electron_sdk.pb.obj
 0001:00061ae0       ?GetCachedSize@ShowSettingDlgParams@proto@sdk@electron@com@@UEBAHXZ 0000000180062ae0 f i electron_sdk.pb.obj
 0001:00061ae0       ?GetCachedSize@ShowSharingFrameWindowsParams@proto@sdk@electron@com@@UEBAHXZ 0000000180062ae0 f i electron_sdk.pb.obj
 0001:00061ae0       ?GetCachedSize@ShowSharingToolbarParams@proto@sdk@electron@com@@UEBAHXZ 0000000180062ae0 f i electron_sdk.pb.obj
 0001:00061ae0       ?GetCachedSize@SpotlightVideoParams@proto@sdk@electron@com@@UEBAHXZ 0000000180062ae0 f i electron_sdk.pb.obj
 0001:00061ae0       ?GetCachedSize@StartAnnotationParams@proto@sdk@electron@com@@UEBAHXZ 0000000180062ae0 f i electron_sdk.pb.obj
 0001:00061ae0       ?GetCachedSize@StartAppShareParams@proto@sdk@electron@com@@UEBAHXZ 0000000180062ae0 f i electron_sdk.pb.obj
 0001:00061ae0       ?GetCachedSize@StartLiveStreamParams@proto@sdk@electron@com@@UEBAHXZ 0000000180062ae0 f i electron_sdk.pb.obj
 0001:00061ae0       ?GetCachedSize@StartLiveStreamWithSteamingURLParams@proto@sdk@electron@com@@UEBAHXZ 0000000180062ae0 f i electron_sdk.pb.obj
 0001:00061ae0       ?GetCachedSize@StartMeetingParams@proto@sdk@electron@com@@UEBAHXZ 0000000180062ae0 f i electron_sdk.pb.obj
 0001:00061ae0       ?GetCachedSize@StartMonitorShareParams@proto@sdk@electron@com@@UEBAHXZ 0000000180062ae0 f i electron_sdk.pb.obj
 0001:00061ae0       ?GetCachedSize@StartRawLiveStreamParams@proto@sdk@electron@com@@UEBAHXZ 0000000180062ae0 f i electron_sdk.pb.obj
 0001:00061ae0       ?GetCachedSize@StartReceiveParams@proto@sdk@electron@com@@UEBAHXZ 0000000180062ae0 f i electron_sdk.pb.obj
 0001:00061ae0       ?GetCachedSize@StartWithoutLoginParams@proto@sdk@electron@com@@UEBAHXZ 0000000180062ae0 f i electron_sdk.pb.obj
 0001:00061ae0       ?GetCachedSize@StopAnnotationParams@proto@sdk@electron@com@@UEBAHXZ 0000000180062ae0 f i electron_sdk.pb.obj
 0001:00061ae0       ?GetCachedSize@SubscribeParams@proto@sdk@electron@com@@UEBAHXZ 0000000180062ae0 f i electron_sdk.pb.obj
 0001:00061ae0       ?GetCachedSize@SwapToShowShareViewOrVideoParams@proto@sdk@electron@com@@UEBAHXZ 0000000180062ae0 f i electron_sdk.pb.obj
 0001:00061ae0       ?GetCachedSize@SwitchMinimizeUIMode4FirstScreenMeetingUIWndParams@proto@sdk@electron@com@@UEBAHXZ 0000000180062ae0 f i electron_sdk.pb.obj
 0001:00061ae0       ?GetCachedSize@SwitchSplitScreenModeParams@proto@sdk@electron@com@@UEBAHXZ 0000000180062ae0 f i electron_sdk.pb.obj
 0001:00061ae0       ?GetCachedSize@TransferFileParams@proto@sdk@electron@com@@UEBAHXZ 0000000180062ae0 f i electron_sdk.pb.obj
 0001:00061ae0       ?GetCachedSize@TryWithMeetingNumberParams@proto@sdk@electron@com@@UEBAHXZ 0000000180062ae0 f i electron_sdk.pb.obj
 0001:00061ae0       ?GetCachedSize@TryWithPairingCodeParams@proto@sdk@electron@com@@UEBAHXZ 0000000180062ae0 f i electron_sdk.pb.obj
 0001:00061ae0       ?GetCachedSize@TurnOffAeroModeInSharingParams@proto@sdk@electron@com@@UEBAHXZ 0000000180062ae0 f i electron_sdk.pb.obj
 0001:00061ae0       ?GetCachedSize@TurnOffAllAICompanionsParams@proto@sdk@electron@com@@UEBAHXZ 0000000180062ae0 f i electron_sdk.pb.obj
 0001:00061ae0       ?GetCachedSize@UnMuteVideoParams@proto@sdk@electron@com@@UEBAHXZ 0000000180062ae0 f i electron_sdk.pb.obj
 0001:00061ae0       ?GetCachedSize@UnSubscribeParams@proto@sdk@electron@com@@UEBAHXZ 0000000180062ae0 f i electron_sdk.pb.obj
 0001:00061ae0       ?GetCachedSize@UndoParams@proto@sdk@electron@com@@UEBAHXZ 0000000180062ae0 f i electron_sdk.pb.obj
 0001:00061ae0       ?GetCachedSize@UnmuteAudioParams@proto@sdk@electron@com@@UEBAHXZ 0000000180062ae0 f i electron_sdk.pb.obj
 0001:00061ae0       ?GetCachedSize@UseBGImageParams@proto@sdk@electron@com@@UEBAHXZ 0000000180062ae0 f i electron_sdk.pb.obj
 0001:00061ae0       ?GetCachedSize@UseBGVideoParams@proto@sdk@electron@com@@UEBAHXZ 0000000180062ae0 f i electron_sdk.pb.obj
 0001:00061ae0       ?GetCachedSize@VerifyParams@proto@sdk@electron@com@@UEBAHXZ 0000000180062ae0 f i electron_sdk.pb.obj
 0001:00061ae0       ?GetCachedSize@VoteQuestionParams@proto@sdk@electron@com@@UEBAHXZ 0000000180062ae0 f i electron_sdk.pb.obj
 0001:00061ae0       ?GetCachedSize@WebinarAttendeeParams@proto@sdk@electron@com@@UEBAHXZ 0000000180062ae0 f i electron_sdk.pb.obj
 0001:00061af0       ?New@AuthWithJwtTokenParams@proto@sdk@electron@com@@UEBAPEAV12345@PEAVArena@protobuf@google@@@Z 0000000180062af0 f i electron_sdk.pb.obj
 0001:00061b00       ?New@LoginWithSSOTokenParams@proto@sdk@electron@com@@UEBAPEAV12345@PEAVArena@protobuf@google@@@Z 0000000180062b00 f i electron_sdk.pb.obj
 0001:00061b10       ?New@StartMeetingParams@proto@sdk@electron@com@@UEBAPEAV12345@PEAVArena@protobuf@google@@@Z 0000000180062b10 f i electron_sdk.pb.obj
 0001:00061b20       ?New@StartWithoutLoginParams@proto@sdk@electron@com@@UEBAPEAV12345@PEAVArena@protobuf@google@@@Z 0000000180062b20 f i electron_sdk.pb.obj
 0001:00061b30       ?New@JoinMeetingParams@proto@sdk@electron@com@@UEBAPEAV12345@PEAVArena@protobuf@google@@@Z 0000000180062b30 f i electron_sdk.pb.obj
 0001:00061b40       ?New@JoinWithoutLoginParams@proto@sdk@electron@com@@UEBAPEAV12345@PEAVArena@protobuf@google@@@Z 0000000180062b40 f i electron_sdk.pb.obj
 0001:00061b50       ?New@LeaveMeetingParams@proto@sdk@electron@com@@UEBAPEAV12345@PEAVArena@protobuf@google@@@Z 0000000180062b50 f i electron_sdk.pb.obj
 0001:00061b60       ?New@SetMeetingTopicParam@proto@sdk@electron@com@@UEBAPEAV12345@PEAVArena@protobuf@google@@@Z 0000000180062b60 f i electron_sdk.pb.obj
 0001:00061b70       ?New@HandleZoomWebUriProtocolActionParams@proto@sdk@electron@com@@UEBAPEAV12345@PEAVArena@protobuf@google@@@Z 0000000180062b70 f i electron_sdk.pb.obj
 0001:00061b80       ?New@ShowChatDlgParams@proto@sdk@electron@com@@UEBAPEAV12345@PEAVArena@protobuf@google@@@Z 0000000180062b80 f i electron_sdk.pb.obj
 0001:00061b90       ?New@EnterFullScreenParams@proto@sdk@electron@com@@UEBAPEAV12345@PEAVArena@protobuf@google@@@Z 0000000180062b90 f i electron_sdk.pb.obj
 0001:00061ba0       ?New@ExitFullScreenParams@proto@sdk@electron@com@@UEBAPEAV12345@PEAVArena@protobuf@google@@@Z 0000000180062ba0 f i electron_sdk.pb.obj
 0001:00061bb0       ?New@MoveFloatVideoWndParams@proto@sdk@electron@com@@UEBAPEAV12345@PEAVArena@protobuf@google@@@Z 0000000180062bb0 f i electron_sdk.pb.obj
 0001:00061bc0       ?New@ShowSharingToolbarParams@proto@sdk@electron@com@@UEBAPEAV12345@PEAVArena@protobuf@google@@@Z 0000000180062bc0 f i electron_sdk.pb.obj
 0001:00061bd0       ?New@ChangeFloatToActiveSpkVideoSizeParams@proto@sdk@electron@com@@UEBAPEAV12345@PEAVArena@protobuf@google@@@Z 0000000180062bd0 f i electron_sdk.pb.obj
 0001:00061be0       ?New@ShowParticipantsListWndParams@proto@sdk@electron@com@@UEBAPEAV12345@PEAVArena@protobuf@google@@@Z 0000000180062be0 f i electron_sdk.pb.obj
 0001:00061bf0       ?New@ShowBottomFloatToolbarWndParams@proto@sdk@electron@com@@UEBAPEAV12345@PEAVArena@protobuf@google@@@Z 0000000180062bf0 f i electron_sdk.pb.obj
 0001:00061c00       ?New@ShowPreOrNextPageVideoParams@proto@sdk@electron@com@@UEBAPEAV12345@PEAVArena@protobuf@google@@@Z 0000000180062c00 f i electron_sdk.pb.obj
 0001:00061c10       ?New@ShowSharingFrameWindowsParams@proto@sdk@electron@com@@UEBAPEAV12345@PEAVArena@protobuf@google@@@Z 0000000180062c10 f i electron_sdk.pb.obj
 0001:00061c20       ?New@SwitchSplitScreenModeParams@proto@sdk@electron@com@@UEBAPEAV12345@PEAVArena@protobuf@google@@@Z 0000000180062c20 f i electron_sdk.pb.obj
 0001:00061c30       ?New@SwitchMinimizeUIMode4FirstScreenMeetingUIWndParams@proto@sdk@electron@com@@UEBAPEAV12345@PEAVArena@protobuf@google@@@Z 0000000180062c30 f i electron_sdk.pb.obj
 0001:00061c40       ?New@SwapToShowShareViewOrVideoParams@proto@sdk@electron@com@@UEBAPEAV12345@PEAVArena@protobuf@google@@@Z 0000000180062c40 f i electron_sdk.pb.obj
 0001:00061c50       ?New@ShowSettingDlgParams@proto@sdk@electron@com@@UEBAPEAV12345@PEAVArena@protobuf@google@@@Z 0000000180062c50 f i electron_sdk.pb.obj
 0001:00061c60       ?New@ScheduleMeetingWithWndParams@proto@sdk@electron@com@@UEBAPEAV12345@PEAVArena@protobuf@google@@@Z 0000000180062c60 f i electron_sdk.pb.obj
 0001:00061c70       ?New@EditMeetingParams@proto@sdk@electron@com@@UEBAPEAV12345@PEAVArena@protobuf@google@@@Z 0000000180062c70 f i electron_sdk.pb.obj
 0001:00061c80       ?New@EditMeetingWithWndParams@proto@sdk@electron@com@@UEBAPEAV12345@PEAVArena@protobuf@google@@@Z 0000000180062c80 f i electron_sdk.pb.obj
 0001:00061c90       ?New@DeleteMeetingParams@proto@sdk@electron@com@@UEBAPEAV12345@PEAVArena@protobuf@google@@@Z 0000000180062c90 f i electron_sdk.pb.obj
 0001:00061ca0       ?New@AddCustomizedPictureResourceParams@proto@sdk@electron@com@@UEBAPEAV12345@PEAVArena@protobuf@google@@@Z 0000000180062ca0 f i electron_sdk.pb.obj
 0001:00061cb0       ?New@AddCustomizedStringResourceParams@proto@sdk@electron@com@@UEBAPEAV12345@PEAVArena@protobuf@google@@@Z 0000000180062cb0 f i electron_sdk.pb.obj
 0001:00061cc0       ?New@AddCustomizedURLResourceParams@proto@sdk@electron@com@@UEBAPEAV12345@PEAVArena@protobuf@google@@@Z 0000000180062cc0 f i electron_sdk.pb.obj
 0001:00061cd0       ?New@TryWithMeetingNumberParams@proto@sdk@electron@com@@UEBAPEAV12345@PEAVArena@protobuf@google@@@Z 0000000180062cd0 f i electron_sdk.pb.obj
 0001:00061ce0       ?New@TryWithPairingCodeParams@proto@sdk@electron@com@@UEBAPEAV12345@PEAVArena@protobuf@google@@@Z 0000000180062ce0 f i electron_sdk.pb.obj
 0001:00061cf0       ?New@ShowPanelParams@proto@sdk@electron@com@@UEBAPEAV12345@PEAVArena@protobuf@google@@@Z 0000000180062cf0 f i electron_sdk.pb.obj
 0001:00061d00       ?New@StartAnnotationParams@proto@sdk@electron@com@@UEBAPEAV12345@PEAVArena@protobuf@google@@@Z 0000000180062d00 f i electron_sdk.pb.obj
 0001:00061d10       ?New@StopAnnotationParams@proto@sdk@electron@com@@UEBAPEAV12345@PEAVArena@protobuf@google@@@Z 0000000180062d10 f i electron_sdk.pb.obj
 0001:00061d20       ?New@SetToolParams@proto@sdk@electron@com@@UEBAPEAV12345@PEAVArena@protobuf@google@@@Z 0000000180062d20 f i electron_sdk.pb.obj
 0001:00061d30       ?New@ClearAnnotationParams@proto@sdk@electron@com@@UEBAPEAV12345@PEAVArena@protobuf@google@@@Z 0000000180062d30 f i electron_sdk.pb.obj
 0001:00061d40       ?New@SetColorParams@proto@sdk@electron@com@@UEBAPEAV12345@PEAVArena@protobuf@google@@@Z 0000000180062d40 f i electron_sdk.pb.obj
 0001:00061d50       ?New@SetLineWidthParams@proto@sdk@electron@com@@UEBAPEAV12345@PEAVArena@protobuf@google@@@Z 0000000180062d50 f i electron_sdk.pb.obj
 0001:00061d60       ?New@UndoParams@proto@sdk@electron@com@@UEBAPEAV12345@PEAVArena@protobuf@google@@@Z 0000000180062d60 f i electron_sdk.pb.obj
 0001:00061d70       ?New@RedoParams@proto@sdk@electron@com@@UEBAPEAV12345@PEAVArena@protobuf@google@@@Z 0000000180062d70 f i electron_sdk.pb.obj
 0001:00061d80       ?New@MuteAudioParams@proto@sdk@electron@com@@UEBAPEAV12345@PEAVArena@protobuf@google@@@Z 0000000180062d80 f i electron_sdk.pb.obj
 0001:00061d90       ?New@UnmuteAudioParams@proto@sdk@electron@com@@UEBAPEAV12345@PEAVArena@protobuf@google@@@Z 0000000180062d90 f i electron_sdk.pb.obj
 0001:00061da0       ?New@EnablePlayChimeWhenEnterOrExitParams@proto@sdk@electron@com@@UEBAPEAV12345@PEAVArena@protobuf@google@@@Z 0000000180062da0 f i electron_sdk.pb.obj
 0001:00061db0       ?New@EnableMuteOnEntryParams@proto@sdk@electron@com@@UEBAPEAV12345@PEAVArena@protobuf@google@@@Z 0000000180062db0 f i electron_sdk.pb.obj
 0001:00061dc0       ?New@EnablePlayMeetingAudioParams@proto@sdk@electron@com@@UEBAPEAV12345@PEAVArena@protobuf@google@@@Z 0000000180062dc0 f i electron_sdk.pb.obj
 0001:00061dd0       ?New@EnableInviteButtonOnMeetingUIParams@proto@sdk@electron@com@@UEBAPEAV12345@PEAVArena@protobuf@google@@@Z 0000000180062dd0 f i electron_sdk.pb.obj
 0001:00061de0       ?New@SetFloatVideoPosParams@proto@sdk@electron@com@@UEBAPEAV12345@PEAVArena@protobuf@google@@@Z 0000000180062de0 f i electron_sdk.pb.obj
 0001:00061df0       ?New@SetBottomFloatToolBarWndVisibilityParams@proto@sdk@electron@com@@UEBAPEAV12345@PEAVArena@protobuf@google@@@Z 0000000180062df0 f i electron_sdk.pb.obj
 0001:00061e00       ?New@SetSharingToolBarVisibilityParams@proto@sdk@electron@com@@UEBAPEAV12345@PEAVArena@protobuf@google@@@Z 0000000180062e00 f i electron_sdk.pb.obj
 0001:00061e10       ?New@SetDirectShareMonitorIDParams@proto@sdk@electron@com@@UEBAPEAV12345@PEAVArena@protobuf@google@@@Z 0000000180062e10 f i electron_sdk.pb.obj
 0001:00061e20       ?New@SetMeetingUIPosParams@proto@sdk@electron@com@@UEBAPEAV12345@PEAVArena@protobuf@google@@@Z 0000000180062e20 f i electron_sdk.pb.obj
 0001:00061e30       ?New@DisableWaitingForHostDialogParams@proto@sdk@electron@com@@UEBAPEAV12345@PEAVArena@protobuf@google@@@Z 0000000180062e30 f i electron_sdk.pb.obj
 0001:00061e40       ?New@DisablePopupMeetingWrongPSWDlgParams@proto@sdk@electron@com@@UEBAPEAV12345@PEAVArena@protobuf@google@@@Z 0000000180062e40 f i electron_sdk.pb.obj
 0001:00061e50       ?New@EnableAutoEndOtherMeetingWhenStartMeetingParams@proto@sdk@electron@com@@UEBAPEAV12345@PEAVArena@protobuf@google@@@Z 0000000180062e50 f i electron_sdk.pb.obj
 0001:00061e60       ?New@EnableLButtonDBClick4SwitchFullScreenModeParams@proto@sdk@electron@com@@UEBAPEAV12345@PEAVArena@protobuf@google@@@Z 0000000180062e60 f i electron_sdk.pb.obj
 0001:00061e70       ?New@SetFloatVideoWndVisibilityParams@proto@sdk@electron@com@@UEBAPEAV12345@PEAVArena@protobuf@google@@@Z 0000000180062e70 f i electron_sdk.pb.obj
 0001:00061e80       ?New@PrePopulateWebinarRegistrationInfoParams@proto@sdk@electron@com@@UEBAPEAV12345@PEAVArena@protobuf@google@@@Z 0000000180062e80 f i electron_sdk.pb.obj
 0001:00061e90       ?New@EnableAutoAdjustSpeakerVolumeWhenJoinAudioParams@proto@sdk@electron@com@@UEBAPEAV12345@PEAVArena@protobuf@google@@@Z 0000000180062e90 f i electron_sdk.pb.obj
 0001:00061ea0       ?New@EnableAutoAdjustMicVolumeWhenJoinAudioParams@proto@sdk@electron@com@@UEBAPEAV12345@PEAVArena@protobuf@google@@@Z 0000000180062ea0 f i electron_sdk.pb.obj
 0001:00061eb0       ?New@ConfigDSCPParams@proto@sdk@electron@com@@UEBAPEAV12345@PEAVArena@protobuf@google@@@Z 0000000180062eb0 f i electron_sdk.pb.obj
 0001:00061ec0       ?New@EnableHIdeFullPhoneNumber4PureCallinUserParams@proto@sdk@electron@com@@UEBAPEAV12345@PEAVArena@protobuf@google@@@Z 0000000180062ec0 f i electron_sdk.pb.obj
 0001:00061ed0       ?New@EnableShareIOSDeviceParams@proto@sdk@electron@com@@UEBAPEAV12345@PEAVArena@protobuf@google@@@Z 0000000180062ed0 f i electron_sdk.pb.obj
 0001:00061ee0       ?New@EnableShareWhiteBoardParams@proto@sdk@electron@com@@UEBAPEAV12345@PEAVArena@protobuf@google@@@Z 0000000180062ee0 f i electron_sdk.pb.obj
 0001:00061ef0       ?New@EnableLengthLimitationOfMeetingNumberParams@proto@sdk@electron@com@@UEBAPEAV12345@PEAVArena@protobuf@google@@@Z 0000000180062ef0 f i electron_sdk.pb.obj
 0001:00061f00       ?New@ForceDisableMultiShareParams@proto@sdk@electron@com@@UEBAPEAV12345@PEAVArena@protobuf@google@@@Z 0000000180062f00 f i electron_sdk.pb.obj
 0001:00061f10       ?New@EnableZoomDocsParams@proto@sdk@electron@com@@UEBAPEAV12345@PEAVArena@protobuf@google@@@Z 0000000180062f10 f i electron_sdk.pb.obj
 0001:00061f20       ?New@EnableLocalRecordingConverProgressBarDialogParams@proto@sdk@electron@com@@UEBAPEAV12345@PEAVArena@protobuf@google@@@Z 0000000180062f20 f i electron_sdk.pb.obj
 0001:00061f30       ?New@SetMaxDurationForOnlyHostInMeetingParams@proto@sdk@electron@com@@UEBAPEAV12345@PEAVArena@protobuf@google@@@Z 0000000180062f30 f i electron_sdk.pb.obj
 0001:00061f40       ?New@EnableApproveRemoteControlDlgParams@proto@sdk@electron@com@@UEBAPEAV12345@PEAVArena@protobuf@google@@@Z 0000000180062f40 f i electron_sdk.pb.obj
 0001:00061f50       ?New@EnableDeclineRemoteControlResponseDlgParams@proto@sdk@electron@com@@UEBAPEAV12345@PEAVArena@protobuf@google@@@Z 0000000180062f50 f i electron_sdk.pb.obj
 0001:00061f60       ?New@EnableLeaveMeetingOptionForHostParams@proto@sdk@electron@com@@UEBAPEAV12345@PEAVArena@protobuf@google@@@Z 0000000180062f60 f i electron_sdk.pb.obj
 0001:00061f70       ?New@EnableVideoButtonOnMeetingUIParams@proto@sdk@electron@com@@UEBAPEAV12345@PEAVArena@protobuf@google@@@Z 0000000180062f70 f i electron_sdk.pb.obj
 0001:00061f80       ?New@EnableAudioButtonOnMeetingUIParams@proto@sdk@electron@com@@UEBAPEAV12345@PEAVArena@protobuf@google@@@Z 0000000180062f80 f i electron_sdk.pb.obj
 0001:00061f90       ?New@EnableEnterAndExitFullScreenButtonOnMeetingUIParams@proto@sdk@electron@com@@UEBAPEAV12345@PEAVArena@protobuf@google@@@Z 0000000180062f90 f i electron_sdk.pb.obj
 0001:00061fa0       ?New@RedirectClickShareBTNEventParams@proto@sdk@electron@com@@UEBAPEAV12345@PEAVArena@protobuf@google@@@Z 0000000180062fa0 f i electron_sdk.pb.obj
 0001:00061fb0       ?New@RedirectClickEndMeetingBTNEventParams@proto@sdk@electron@com@@UEBAPEAV12345@PEAVArena@protobuf@google@@@Z 0000000180062fb0 f i electron_sdk.pb.obj
 0001:00061fc0       ?New@RedirectFreeMeetingEndingReminderDlgParams@proto@sdk@electron@com@@UEBAPEAV12345@PEAVArena@protobuf@google@@@Z 0000000180062fc0 f i electron_sdk.pb.obj
 0001:00061fd0       ?New@RedirectClickCustomLiveStreamMenuEventParams@proto@sdk@electron@com@@UEBAPEAV12345@PEAVArena@protobuf@google@@@Z 0000000180062fd0 f i electron_sdk.pb.obj
 0001:00061fe0       ?New@RedirectClickParticipantListBTNEventParams@proto@sdk@electron@com@@UEBAPEAV12345@PEAVArena@protobuf@google@@@Z 0000000180062fe0 f i electron_sdk.pb.obj
 0001:00061ff0       ?New@RedirectClickCCBTNEventParams@proto@sdk@electron@com@@UEBAPEAV12345@PEAVArena@protobuf@google@@@Z 0000000180062ff0 f i electron_sdk.pb.obj
 0001:00062000       ?New@RedirectClickAudioBTNEventParams@proto@sdk@electron@com@@UEBAPEAV12345@PEAVArena@protobuf@google@@@Z 0000000180063000 f i electron_sdk.pb.obj
 0001:00062010       ?New@RedirectClickAudioMenuBTNEventParams@proto@sdk@electron@com@@UEBAPEAV12345@PEAVArena@protobuf@google@@@Z 0000000180063010 f i electron_sdk.pb.obj
 0001:00062020       ?New@RedirectMeetingWarningMsgParams@proto@sdk@electron@com@@UEBAPEAV12345@PEAVArena@protobuf@google@@@Z 0000000180063020 f i electron_sdk.pb.obj
 0001:00062030       ?New@EnableToolTipsShowParams@proto@sdk@electron@com@@UEBAPEAV12345@PEAVArena@protobuf@google@@@Z 0000000180063030 f i electron_sdk.pb.obj
 0001:00062040       ?New@EnableAirplayInstructionWindowParams@proto@sdk@electron@com@@UEBAPEAV12345@PEAVArena@protobuf@google@@@Z 0000000180063040 f i electron_sdk.pb.obj
 0001:00062050       ?New@EnableClaimHostFeatureParams@proto@sdk@electron@com@@UEBAPEAV12345@PEAVArena@protobuf@google@@@Z 0000000180063050 f i electron_sdk.pb.obj
 0001:00062060       ?New@EnableAutoHideJoinAudioDialogParams@proto@sdk@electron@com@@UEBAPEAV12345@PEAVArena@protobuf@google@@@Z 0000000180063060 f i electron_sdk.pb.obj
 0001:00062070       ?New@AlwaysShowIconOnTaskBarParams@proto@sdk@electron@com@@UEBAPEAV12345@PEAVArena@protobuf@google@@@Z 0000000180063070 f i electron_sdk.pb.obj
 0001:00062080       ?New@DisableSplitScreenModeUIElementsParams@proto@sdk@electron@com@@UEBAPEAV12345@PEAVArena@protobuf@google@@@Z 0000000180063080 f i electron_sdk.pb.obj
 0001:00062090       ?New@SetShowAudioUseComputerSoundChkboxParams@proto@sdk@electron@com@@UEBAPEAV12345@PEAVArena@protobuf@google@@@Z 0000000180063090 f i electron_sdk.pb.obj
 0001:000620a0       ?New@SetShowCallInTabParams@proto@sdk@electron@com@@UEBAPEAV12345@PEAVArena@protobuf@google@@@Z 00000001800630a0 f i electron_sdk.pb.obj
 0001:000620b0       ?New@SetShowCallMeTabParams@proto@sdk@electron@com@@UEBAPEAV12345@PEAVArena@protobuf@google@@@Z 00000001800630b0 f i electron_sdk.pb.obj
 0001:000620c0       ?New@DisableTopMostAttr4SettingDialogParams@proto@sdk@electron@com@@UEBAPEAV12345@PEAVArena@protobuf@google@@@Z 00000001800630c0 f i electron_sdk.pb.obj
 0001:000620d0       ?New@EnableGrabShareWithoutReminderParams@proto@sdk@electron@com@@UEBAPEAV12345@PEAVArena@protobuf@google@@@Z 00000001800630d0 f i electron_sdk.pb.obj
 0001:000620e0       ?New@EnableShowShareSwitchMultiToSingleConfirmDlgParams@proto@sdk@electron@com@@UEBAPEAV12345@PEAVArena@protobuf@google@@@Z 00000001800630e0 f i electron_sdk.pb.obj
 0001:000620f0       ?New@DisableFreeMeetingRemainTimeNotifyParams@proto@sdk@electron@com@@UEBAPEAV12345@PEAVArena@protobuf@google@@@Z 00000001800630f0 f i electron_sdk.pb.obj
 0001:00062100       ?New@HideChatItemOnMeetingUIParams@proto@sdk@electron@com@@UEBAPEAV12345@PEAVArena@protobuf@google@@@Z 0000000180063100 f i electron_sdk.pb.obj
 0001:00062110       ?New@HideRecordItemOnMeetingUIParams@proto@sdk@electron@com@@UEBAPEAV12345@PEAVArena@protobuf@google@@@Z 0000000180063110 f i electron_sdk.pb.obj
 0001:00062120       ?New@HideUpgradeFreeMeetingButtonParams@proto@sdk@electron@com@@UEBAPEAV12345@PEAVArena@protobuf@google@@@Z 0000000180063120 f i electron_sdk.pb.obj
 0001:00062130       ?New@SetShowInviteDlgTabPageParams@proto@sdk@electron@com@@UEBAPEAV12345@PEAVArena@protobuf@google@@@Z 0000000180063130 f i electron_sdk.pb.obj
 0001:00062140       ?New@SetShowH323SubTabPageParams@proto@sdk@electron@com@@UEBAPEAV12345@PEAVArena@protobuf@google@@@Z 0000000180063140 f i electron_sdk.pb.obj
 0001:00062150       ?New@HideSwitchCameraButtonParams@proto@sdk@electron@com@@UEBAPEAV12345@PEAVArena@protobuf@google@@@Z 0000000180063150 f i electron_sdk.pb.obj
 0001:00062160       ?New@HideCopyUrlOnInviteWindowParams@proto@sdk@electron@com@@UEBAPEAV12345@PEAVArena@protobuf@google@@@Z 0000000180063160 f i electron_sdk.pb.obj
 0001:00062170       ?New@HideCopyInvitationOnInviteWindowParams@proto@sdk@electron@com@@UEBAPEAV12345@PEAVArena@protobuf@google@@@Z 0000000180063170 f i electron_sdk.pb.obj
 0001:00062180       ?New@HideKeypadButtonOnMeetingWindowParams@proto@sdk@electron@com@@UEBAPEAV12345@PEAVArena@protobuf@google@@@Z 0000000180063180 f i electron_sdk.pb.obj
 0001:00062190       ?New@HideRemoteControlOnMeetingUIParams@proto@sdk@electron@com@@UEBAPEAV12345@PEAVArena@protobuf@google@@@Z 0000000180063190 f i electron_sdk.pb.obj
 0001:000621a0       ?New@HideQAOnMeetingUIParams@proto@sdk@electron@com@@UEBAPEAV12345@PEAVArena@protobuf@google@@@Z 00000001800631a0 f i electron_sdk.pb.obj
 0001:000621b0       ?New@HidePollOnMeetingUIParams@proto@sdk@electron@com@@UEBAPEAV12345@PEAVArena@protobuf@google@@@Z 00000001800631b0 f i electron_sdk.pb.obj
 0001:000621c0       ?New@EnableInputMeetingPasswordDlgParams@proto@sdk@electron@com@@UEBAPEAV12345@PEAVArena@protobuf@google@@@Z 00000001800631c0 f i electron_sdk.pb.obj
 0001:000621d0       ?New@EnableInputMeetingScreenNameDlgParams@proto@sdk@electron@com@@UEBAPEAV12345@PEAVArena@protobuf@google@@@Z 00000001800631d0 f i electron_sdk.pb.obj
 0001:000621e0       ?New@RedirectWebinarNeedRegisterParams@proto@sdk@electron@com@@UEBAPEAV12345@PEAVArena@protobuf@google@@@Z 00000001800631e0 f i electron_sdk.pb.obj
 0001:000621f0       ?New@RedirectEndOtherMeetingParams@proto@sdk@electron@com@@UEBAPEAV12345@PEAVArena@protobuf@google@@@Z 00000001800631f0 f i electron_sdk.pb.obj
 0001:00062200       ?New@EnableForceAutoStartMyVideoWhenJoinMeetingParams@proto@sdk@electron@com@@UEBAPEAV12345@PEAVArena@protobuf@google@@@Z 0000000180063200 f i electron_sdk.pb.obj
 0001:00062210       ?New@EnableForceAutoStopMyVideoWhenJoinMeetingParams@proto@sdk@electron@com@@UEBAPEAV12345@PEAVArena@protobuf@google@@@Z 0000000180063210 f i electron_sdk.pb.obj
 0001:00062220       ?New@DisableAutoShowSelectJoinAudioDlgWhenJoinMeetingParams@proto@sdk@electron@com@@UEBAPEAV12345@PEAVArena@protobuf@google@@@Z 0000000180063220 f i electron_sdk.pb.obj
 0001:00062230       ?New@DisableShowJoinMeetingWndParams@proto@sdk@electron@com@@UEBAPEAV12345@PEAVArena@protobuf@google@@@Z 0000000180063230 f i electron_sdk.pb.obj
 0001:00062240       ?New@DisableToolbarInviteButtonClickOriginActionParams@proto@sdk@electron@com@@UEBAPEAV12345@PEAVArena@protobuf@google@@@Z 0000000180063240 f i electron_sdk.pb.obj
 0001:00062250       ?New@SetShowVideoOptimizeChkboxParams@proto@sdk@electron@com@@UEBAPEAV12345@PEAVArena@protobuf@google@@@Z 0000000180063250 f i electron_sdk.pb.obj
 0001:00062260       ?New@InputMeetingPasswordAndScreenNameParams@proto@sdk@electron@com@@UEBAPEAV12345@PEAVArena@protobuf@google@@@Z 0000000180063260 f i electron_sdk.pb.obj
 0001:00062270       ?New@InputMeetingIDAndScreenNameParams@proto@sdk@electron@com@@UEBAPEAV12345@PEAVArena@protobuf@google@@@Z 0000000180063270 f i electron_sdk.pb.obj
 0001:00062280       ?New@InputMeetingScreenNameParams@proto@sdk@electron@com@@UEBAPEAV12345@PEAVArena@protobuf@google@@@Z 0000000180063280 f i electron_sdk.pb.obj
 0001:00062290       ?New@InputWebinarRegisterEmailAndScreenNameParams@proto@sdk@electron@com@@UEBAPEAV12345@PEAVArena@protobuf@google@@@Z 0000000180063290 f i electron_sdk.pb.obj
 0001:000622a0       ?New@CallOutH323Params@proto@sdk@electron@com@@UEBAPEAV12345@PEAVArena@protobuf@google@@@Z 00000001800632a0 f i electron_sdk.pb.obj
 0001:000622b0       ?New@GetUserInfoByUserIDParams@proto@sdk@electron@com@@UEBAPEAV12345@PEAVArena@protobuf@google@@@Z 00000001800632b0 f i electron_sdk.pb.obj
 0001:000622c0       ?New@GetBotAuthorizedUserInfoByUserIDParams@proto@sdk@electron@com@@UEBAPEAV12345@PEAVArena@protobuf@google@@@Z 00000001800632c0 f i electron_sdk.pb.obj
 0001:000622d0       ?New@GetAuthorizedBotListByUserIDParams@proto@sdk@electron@com@@UEBAPEAV12345@PEAVArena@protobuf@google@@@Z 00000001800632d0 f i electron_sdk.pb.obj
 0001:000622e0       ?New@CanStartRecordingParams@proto@sdk@electron@com@@UEBAPEAV12345@PEAVArena@protobuf@google@@@Z 00000001800632e0 f i electron_sdk.pb.obj
 0001:000622f0       ?New@IsSupportLocalRecordingParams@proto@sdk@electron@com@@UEBAPEAV12345@PEAVArena@protobuf@google@@@Z 00000001800632f0 f i electron_sdk.pb.obj
 0001:00062300       ?New@AllowLocalRecordingParams@proto@sdk@electron@com@@UEBAPEAV12345@PEAVArena@protobuf@google@@@Z 0000000180063300 f i electron_sdk.pb.obj
 0001:00062310       ?New@DisAllowLocalRecordingParams@proto@sdk@electron@com@@UEBAPEAV12345@PEAVArena@protobuf@google@@@Z 0000000180063310 f i electron_sdk.pb.obj
 0001:00062320       ?New@StartAppShareParams@proto@sdk@electron@com@@UEBAPEAV12345@PEAVArena@protobuf@google@@@Z 0000000180063320 f i electron_sdk.pb.obj
 0001:00062330       ?New@StartMonitorShareParams@proto@sdk@electron@com@@UEBAPEAV12345@PEAVArena@protobuf@google@@@Z 0000000180063330 f i electron_sdk.pb.obj
 0001:00062340       ?New@MuteVideoParams@proto@sdk@electron@com@@UEBAPEAV12345@PEAVArena@protobuf@google@@@Z 0000000180063340 f i electron_sdk.pb.obj
 0001:00062350       ?New@UnMuteVideoParams@proto@sdk@electron@com@@UEBAPEAV12345@PEAVArena@protobuf@google@@@Z 0000000180063350 f i electron_sdk.pb.obj
 0001:00062360       ?New@PinVideoToFirstViewParams@proto@sdk@electron@com@@UEBAPEAV12345@PEAVArena@protobuf@google@@@Z 0000000180063360 f i electron_sdk.pb.obj
 0001:00062370       ?New@SpotlightVideoParams@proto@sdk@electron@com@@UEBAPEAV12345@PEAVArena@protobuf@google@@@Z 0000000180063370 f i electron_sdk.pb.obj
 0001:00062380       ?New@HideOrShowNoVideoUserOnVideoWallParams@proto@sdk@electron@com@@UEBAPEAV12345@PEAVArena@protobuf@google@@@Z 0000000180063380 f i electron_sdk.pb.obj
 0001:00062390       ?New@CreateRendererParams@proto@sdk@electron@com@@UEBAPEAV12345@PEAVArena@protobuf@google@@@Z 0000000180063390 f i electron_sdk.pb.obj
 0001:000623a0       ?New@DestroyRendererParams@proto@sdk@electron@com@@UEBAPEAV12345@PEAVArena@protobuf@google@@@Z 00000001800633a0 f i electron_sdk.pb.obj
 0001:000623b0       ?New@SubscribeParams@proto@sdk@electron@com@@UEBAPEAV12345@PEAVArena@protobuf@google@@@Z 00000001800633b0 f i electron_sdk.pb.obj
 0001:000623c0       ?New@UnSubscribeParams@proto@sdk@electron@com@@UEBAPEAV12345@PEAVArena@protobuf@google@@@Z 00000001800633c0 f i electron_sdk.pb.obj
 0001:000623d0       ?New@SetRawDataResolutionParams@proto@sdk@electron@com@@UEBAPEAV12345@PEAVArena@protobuf@google@@@Z 00000001800633d0 f i electron_sdk.pb.obj
 0001:000623e0       ?New@GetResolutionParams@proto@sdk@electron@com@@UEBAPEAV12345@PEAVArena@protobuf@google@@@Z 00000001800633e0 f i electron_sdk.pb.obj
 0001:000623f0       ?New@GetRawDataTypeParams@proto@sdk@electron@com@@UEBAPEAV12345@PEAVArena@protobuf@google@@@Z 00000001800633f0 f i electron_sdk.pb.obj
 0001:00062400       ?New@GetSubscribeIdParams@proto@sdk@electron@com@@UEBAPEAV12345@PEAVArena@protobuf@google@@@Z 0000000180063400 f i electron_sdk.pb.obj
 0001:00062410       ?New@EnableZoomAuthRealNameMeetingUIShownParams@proto@sdk@electron@com@@UEBAPEAV12345@PEAVArena@protobuf@google@@@Z 0000000180063410 f i electron_sdk.pb.obj
 0001:00062420       ?New@RetrieveParams@proto@sdk@electron@com@@UEBAPEAV12345@PEAVArena@protobuf@google@@@Z 0000000180063420 f i electron_sdk.pb.obj
 0001:00062430       ?New@VerifyParams@proto@sdk@electron@com@@UEBAPEAV12345@PEAVArena@protobuf@google@@@Z 0000000180063430 f i electron_sdk.pb.obj
 0001:00062440       ?New@SetDefaultCellPhoneInfoParams@proto@sdk@electron@com@@UEBAPEAV12345@PEAVArena@protobuf@google@@@Z 0000000180063440 f i electron_sdk.pb.obj
 0001:00062450       ?New@EnableAlwaysShowMeetingControlsParams@proto@sdk@electron@com@@UEBAPEAV12345@PEAVArena@protobuf@google@@@Z 0000000180063450 f i electron_sdk.pb.obj
 0001:00062460       ?New@SelectMicParams@proto@sdk@electron@com@@UEBAPEAV12345@PEAVArena@protobuf@google@@@Z 0000000180063460 f i electron_sdk.pb.obj
 0001:00062470       ?New@SelectSpeakerParams@proto@sdk@electron@com@@UEBAPEAV12345@PEAVArena@protobuf@google@@@Z 0000000180063470 f i electron_sdk.pb.obj
 0001:00062480       ?New@EnableAutoJoinAudioParams@proto@sdk@electron@com@@UEBAPEAV12345@PEAVArena@protobuf@google@@@Z 0000000180063480 f i electron_sdk.pb.obj
 0001:00062490       ?New@EnableAutoAdjustMicParams@proto@sdk@electron@com@@UEBAPEAV12345@PEAVArena@protobuf@google@@@Z 0000000180063490 f i electron_sdk.pb.obj
 0001:000624a0       ?New@EnableStereoAudioParams@proto@sdk@electron@com@@UEBAPEAV12345@PEAVArena@protobuf@google@@@Z 00000001800634a0 f i electron_sdk.pb.obj
 0001:000624b0       ?New@EnableMicOriginalInputParams@proto@sdk@electron@com@@UEBAPEAV12345@PEAVArena@protobuf@google@@@Z 00000001800634b0 f i electron_sdk.pb.obj
 0001:000624c0       ?New@EnableHoldSpaceKeyToSpeakParams@proto@sdk@electron@com@@UEBAPEAV12345@PEAVArena@protobuf@google@@@Z 00000001800634c0 f i electron_sdk.pb.obj
 0001:000624d0       ?New@EnableAlwaysMuteMicWhenJoinVoipParams@proto@sdk@electron@com@@UEBAPEAV12345@PEAVArena@protobuf@google@@@Z 00000001800634d0 f i electron_sdk.pb.obj
 0001:000624e0       ?New@EnableSuppressAudioNotifyParams@proto@sdk@electron@com@@UEBAPEAV12345@PEAVArena@protobuf@google@@@Z 00000001800634e0 f i electron_sdk.pb.obj
 0001:000624f0       ?New@SetEchoCancellationLevelParams@proto@sdk@electron@com@@UEBAPEAV12345@PEAVArena@protobuf@google@@@Z 00000001800634f0 f i electron_sdk.pb.obj
 0001:00062500       ?New@SetMicVolParams@proto@sdk@electron@com@@UEBAPEAV12345@PEAVArena@protobuf@google@@@Z 0000000180063500 f i electron_sdk.pb.obj
 0001:00062510       ?New@SetSpeakerVolParams@proto@sdk@electron@com@@UEBAPEAV12345@PEAVArena@protobuf@google@@@Z 0000000180063510 f i electron_sdk.pb.obj
 0001:00062520       ?New@EnableDualScreenModeParams@proto@sdk@electron@com@@UEBAPEAV12345@PEAVArena@protobuf@google@@@Z 0000000180063520 f i electron_sdk.pb.obj
 0001:00062530       ?New@TurnOffAeroModeInSharingParams@proto@sdk@electron@com@@UEBAPEAV12345@PEAVArena@protobuf@google@@@Z 0000000180063530 f i electron_sdk.pb.obj
 0001:00062540       ?New@EnableAutoFitToWindowWhenViewSharingParams@proto@sdk@electron@com@@UEBAPEAV12345@PEAVArena@protobuf@google@@@Z 0000000180063540 f i electron_sdk.pb.obj
 0001:00062550       ?New@EnableAutoFullScreenVideoWhenJoinMeetingParams@proto@sdk@electron@com@@UEBAPEAV12345@PEAVArena@protobuf@google@@@Z 0000000180063550 f i electron_sdk.pb.obj
 0001:00062560       ?New@EnableSplitScreenModeParams@proto@sdk@electron@com@@UEBAPEAV12345@PEAVArena@protobuf@google@@@Z 0000000180063560 f i electron_sdk.pb.obj
 0001:00062570       ?New@EnableAutoFullScreenVideoWhenViewShareParams@proto@sdk@electron@com@@UEBAPEAV12345@PEAVArena@protobuf@google@@@Z 0000000180063570 f i electron_sdk.pb.obj
 0001:00062580       ?New@EnableDisplayReminderWindowWhenExitParams@proto@sdk@electron@com@@UEBAPEAV12345@PEAVArena@protobuf@google@@@Z 0000000180063580 f i electron_sdk.pb.obj
 0001:00062590       ?New@EnableShowMyMeetingElapseTimeParams@proto@sdk@electron@com@@UEBAPEAV12345@PEAVArena@protobuf@google@@@Z 0000000180063590 f i electron_sdk.pb.obj
 0001:000625a0       ?New@EnableAccelerateGPUWhenShareParams@proto@sdk@electron@com@@UEBAPEAV12345@PEAVArena@protobuf@google@@@Z 00000001800635a0 f i electron_sdk.pb.obj
 0001:000625b0       ?New@EnableRemoteControlAllApplicationsParams@proto@sdk@electron@com@@UEBAPEAV12345@PEAVArena@protobuf@google@@@Z 00000001800635b0 f i electron_sdk.pb.obj
 0001:000625c0       ?New@SetRecordingPathParams@proto@sdk@electron@com@@UEBAPEAV12345@PEAVArena@protobuf@google@@@Z 00000001800635c0 f i electron_sdk.pb.obj
 0001:000625d0       ?New@EnableSelectRecordFileLocationAfterMeetingParams@proto@sdk@electron@com@@UEBAPEAV12345@PEAVArena@protobuf@google@@@Z 00000001800635d0 f i electron_sdk.pb.obj
 0001:000625e0       ?New@EnableMultiAudioStreamRecordParams@proto@sdk@electron@com@@UEBAPEAV12345@PEAVArena@protobuf@google@@@Z 00000001800635e0 f i electron_sdk.pb.obj
 0001:000625f0       ?New@EnableAddTimestampWatermarkParams@proto@sdk@electron@com@@UEBAPEAV12345@PEAVArena@protobuf@google@@@Z 00000001800635f0 f i electron_sdk.pb.obj
 0001:00062600       ?New@EnableOptimizeFor3rdPartyVideoEditorParams@proto@sdk@electron@com@@UEBAPEAV12345@PEAVArena@protobuf@google@@@Z 0000000180063600 f i electron_sdk.pb.obj
 0001:00062610       ?New@EnableShowVideoThumbnailWhenShareParams@proto@sdk@electron@com@@UEBAPEAV12345@PEAVArena@protobuf@google@@@Z 0000000180063610 f i electron_sdk.pb.obj
 0001:00062620       ?New@EnablePlaceVideoNextToShareInRecordParams@proto@sdk@electron@com@@UEBAPEAV12345@PEAVArena@protobuf@google@@@Z 0000000180063620 f i electron_sdk.pb.obj
 0001:00062630       ?New@DisableAdvancedFeatures4GeneralSettingParams@proto@sdk@electron@com@@UEBAPEAV12345@PEAVArena@protobuf@google@@@Z 0000000180063630 f i electron_sdk.pb.obj
 0001:00062640       ?New@DisableAccountSettingTabPageParams@proto@sdk@electron@com@@UEBAPEAV12345@PEAVArena@protobuf@google@@@Z 0000000180063640 f i electron_sdk.pb.obj
 0001:00062650       ?New@HideAutoCopyInviteLinkCheckBoxParams@proto@sdk@electron@com@@UEBAPEAV12345@PEAVArena@protobuf@google@@@Z 0000000180063650 f i electron_sdk.pb.obj
 0001:00062660       ?New@ConfigToShowUrlLinksInSettingParams@proto@sdk@electron@com@@UEBAPEAV12345@PEAVArena@protobuf@google@@@Z 0000000180063660 f i electron_sdk.pb.obj
 0001:00062670       ?New@ConfSettingDialogShownTabPageParams@proto@sdk@electron@com@@UEBAPEAV12345@PEAVArena@protobuf@google@@@Z 0000000180063670 f i electron_sdk.pb.obj
 0001:00062680       ?New@SelectVideoCameraParams@proto@sdk@electron@com@@UEBAPEAV12345@PEAVArena@protobuf@google@@@Z 0000000180063680 f i electron_sdk.pb.obj
 0001:00062690       ?New@EnableVideoMirrorEffectParams@proto@sdk@electron@com@@UEBAPEAV12345@PEAVArena@protobuf@google@@@Z 0000000180063690 f i electron_sdk.pb.obj
 0001:000626a0       ?New@EnableFaceBeautyEffectParams@proto@sdk@electron@com@@UEBAPEAV12345@PEAVArena@protobuf@google@@@Z 00000001800636a0 f i electron_sdk.pb.obj
 0001:000626b0       ?New@EnableHDVideoParams@proto@sdk@electron@com@@UEBAPEAV12345@PEAVArena@protobuf@google@@@Z 00000001800636b0 f i electron_sdk.pb.obj
 0001:000626c0       ?New@EnableAlwaysShowNameOnVideoParams@proto@sdk@electron@com@@UEBAPEAV12345@PEAVArena@protobuf@google@@@Z 00000001800636c0 f i electron_sdk.pb.obj
 0001:000626d0       ?New@EnableVideoPreviewDialogParams@proto@sdk@electron@com@@UEBAPEAV12345@PEAVArena@protobuf@google@@@Z 00000001800636d0 f i electron_sdk.pb.obj
 0001:000626e0       ?New@EnableAutoTurnOffVideoWhenJoinMeetingParams@proto@sdk@electron@com@@UEBAPEAV12345@PEAVArena@protobuf@google@@@Z 00000001800636e0 f i electron_sdk.pb.obj
 0001:000626f0       ?New@EnableSpotlightSelfParams@proto@sdk@electron@com@@UEBAPEAV12345@PEAVArena@protobuf@google@@@Z 00000001800636f0 f i electron_sdk.pb.obj
 0001:00062700       ?New@EnableHardwareEncodeParams@proto@sdk@electron@com@@UEBAPEAV12345@PEAVArena@protobuf@google@@@Z 0000000180063700 f i electron_sdk.pb.obj
 0001:00062710       ?New@IsHardwareEncodeEnabledParams@proto@sdk@electron@com@@UEBAPEAV12345@PEAVArena@protobuf@google@@@Z 0000000180063710 f i electron_sdk.pb.obj
 0001:00062720       ?New@Enable49VideoesInGallaryViewParams@proto@sdk@electron@com@@UEBAPEAV12345@PEAVArena@protobuf@google@@@Z 0000000180063720 f i electron_sdk.pb.obj
 0001:00062730       ?New@EnableHideNoVideoUsersOnWallViewParams@proto@sdk@electron@com@@UEBAPEAV12345@PEAVArena@protobuf@google@@@Z 0000000180063730 f i electron_sdk.pb.obj
 0001:00062740       ?New@GenerateSSOLoginWebURLParams@proto@sdk@electron@com@@UEBAPEAV12345@PEAVArena@protobuf@google@@@Z 0000000180063740 f i electron_sdk.pb.obj
 0001:00062750       ?New@SSOLoginWithWebUriProtocolParams@proto@sdk@electron@com@@UEBAPEAV12345@PEAVArena@protobuf@google@@@Z 0000000180063750 f i electron_sdk.pb.obj
 0001:00062760       ?New@ShowAANPanelParams@proto@sdk@electron@com@@UEBAPEAV12345@PEAVArena@protobuf@google@@@Z 0000000180063760 f i electron_sdk.pb.obj
 0001:00062770       ?New@EnableInviteLinkOnMeetingUIParams@proto@sdk@electron@com@@UEBAPEAV12345@PEAVArena@protobuf@google@@@Z 0000000180063770 f i electron_sdk.pb.obj
 0001:00062780       ?New@SetMeetingTopicParams@proto@sdk@electron@com@@UEBAPEAV12345@PEAVArena@protobuf@google@@@Z 0000000180063780 f i electron_sdk.pb.obj
 0001:00062790       ?New@SetCustomizedCloudRecordingMgrUrlParams@proto@sdk@electron@com@@UEBAPEAV12345@PEAVArena@protobuf@google@@@Z 0000000180063790 f i electron_sdk.pb.obj
 0001:000627a0       ?New@SetCustomizedInvitationDomainParams@proto@sdk@electron@com@@UEBAPEAV12345@PEAVArena@protobuf@google@@@Z 00000001800637a0 f i electron_sdk.pb.obj
 0001:000627b0       ?New@SetCustomizedPollingUrlParams@proto@sdk@electron@com@@UEBAPEAV12345@PEAVArena@protobuf@google@@@Z 00000001800637b0 f i electron_sdk.pb.obj
 0001:000627c0       ?New@SetAudioShareModeParams@proto@sdk@electron@com@@UEBAPEAV12345@PEAVArena@protobuf@google@@@Z 00000001800637c0 f i electron_sdk.pb.obj
 0001:000627d0       ?New@StartLiveStreamParams@proto@sdk@electron@com@@UEBAPEAV12345@PEAVArena@protobuf@google@@@Z 00000001800637d0 f i electron_sdk.pb.obj
 0001:000627e0       ?New@StartLiveStreamWithSteamingURLParams@proto@sdk@electron@com@@UEBAPEAV12345@PEAVArena@protobuf@google@@@Z 00000001800637e0 f i electron_sdk.pb.obj
 0001:000627f0       ?New@StartRawLiveStreamParams@proto@sdk@electron@com@@UEBAPEAV12345@PEAVArena@protobuf@google@@@Z 00000001800637f0 f i electron_sdk.pb.obj
 0001:00062800       ?New@GetLiveStreamItemInfoParams@proto@sdk@electron@com@@UEBAPEAV12345@PEAVArena@protobuf@google@@@Z 0000000180063800 f i electron_sdk.pb.obj
 0001:00062810       ?New@RequestRawLiveStreamParams@proto@sdk@electron@com@@UEBAPEAV12345@PEAVArena@protobuf@google@@@Z 0000000180063810 f i electron_sdk.pb.obj
 0001:00062820       ?New@RemoveRawLiveStreamPrivilegeParams@proto@sdk@electron@com@@UEBAPEAV12345@PEAVArena@protobuf@google@@@Z 0000000180063820 f i electron_sdk.pb.obj
 0001:00062830       ?New@EnableLiveStreamReminderParams@proto@sdk@electron@com@@UEBAPEAV12345@PEAVArena@protobuf@google@@@Z 0000000180063830 f i electron_sdk.pb.obj
 0001:00062840       ?New@SetPipeInitParams@proto@sdk@electron@com@@UEBAPEAV12345@PEAVArena@protobuf@google@@@Z 0000000180063840 f i electron_sdk.pb.obj
 0001:00062850       ?New@SetParticipantsChatPrivilegeParams@proto@sdk@electron@com@@UEBAPEAV12345@PEAVArena@protobuf@google@@@Z 0000000180063850 f i electron_sdk.pb.obj
 0001:00062860       ?New@ChatMessageIDParams@proto@sdk@electron@com@@UEBAPEAV12345@PEAVArena@protobuf@google@@@Z 0000000180063860 f i electron_sdk.pb.obj
 0001:00062870       ?New@SetChatMessageBuilderParams@proto@sdk@electron@com@@UEBAPEAV12345@PEAVArena@protobuf@google@@@Z 0000000180063870 f i electron_sdk.pb.obj
 0001:00062880       ?New@TransferFileParams@proto@sdk@electron@com@@UEBAPEAV12345@PEAVArena@protobuf@google@@@Z 0000000180063880 f i electron_sdk.pb.obj
 0001:00062890       ?New@StartReceiveParams@proto@sdk@electron@com@@UEBAPEAV12345@PEAVArena@protobuf@google@@@Z 0000000180063890 f i electron_sdk.pb.obj
 0001:000628a0       ?New@EnableWaitingRoomOnEntryParams@proto@sdk@electron@com@@UEBAPEAV12345@PEAVArena@protobuf@google@@@Z 00000001800638a0 f i electron_sdk.pb.obj
 0001:000628b0       ?New@GetWaitingRoomUserInfoByIDParams@proto@sdk@electron@com@@UEBAPEAV12345@PEAVArena@protobuf@google@@@Z 00000001800638b0 f i electron_sdk.pb.obj
 0001:000628c0       ?New@AdmitToMeetingParams@proto@sdk@electron@com@@UEBAPEAV12345@PEAVArena@protobuf@google@@@Z 00000001800638c0 f i electron_sdk.pb.obj
 0001:000628d0       ?New@PutInWaitingRoomParams@proto@sdk@electron@com@@UEBAPEAV12345@PEAVArena@protobuf@google@@@Z 00000001800638d0 f i electron_sdk.pb.obj
 0001:000628e0       ?New@RenameUserParams@proto@sdk@electron@com@@UEBAPEAV12345@PEAVArena@protobuf@google@@@Z 00000001800638e0 f i electron_sdk.pb.obj
 0001:000628f0       ?New@ExpelUserParams@proto@sdk@electron@com@@UEBAPEAV12345@PEAVArena@protobuf@google@@@Z 00000001800638f0 f i electron_sdk.pb.obj
 0001:00062900       ?New@AllowParticipantsToRequestCloudRecordingParams@proto@sdk@electron@com@@UEBAPEAV12345@PEAVArena@protobuf@google@@@Z 0000000180063900 f i electron_sdk.pb.obj
 0001:00062910       ?New@DenyRequestStartCloudRecordingParams@proto@sdk@electron@com@@UEBAPEAV12345@PEAVArena@protobuf@google@@@Z 0000000180063910 f i electron_sdk.pb.obj
 0001:00062920       ?New@SetEnableOptionParams@proto@sdk@electron@com@@UEBAPEAV12345@PEAVArena@protobuf@google@@@Z 0000000180063920 f i electron_sdk.pb.obj
 0001:00062930       ?New@DeclineEnableParams@proto@sdk@electron@com@@UEBAPEAV12345@PEAVArena@protobuf@google@@@Z 0000000180063930 f i electron_sdk.pb.obj
 0001:00062940       ?New@InputScreenNameParams@proto@sdk@electron@com@@UEBAPEAV12345@PEAVArena@protobuf@google@@@Z 0000000180063940 f i electron_sdk.pb.obj
 0001:00062950       ?New@AgreeToEnableAndStartSmartRecordingParams@proto@sdk@electron@com@@UEBAPEAV12345@PEAVArena@protobuf@google@@@Z 0000000180063950 f i electron_sdk.pb.obj
 0001:00062960       ?New@DeclineEnableAndStartSmartRecordingParams@proto@sdk@electron@com@@UEBAPEAV12345@PEAVArena@protobuf@google@@@Z 0000000180063960 f i electron_sdk.pb.obj
 0001:00062970       ?New@ActionConfirmEnableSmartRecordingParams@proto@sdk@electron@com@@UEBAPEAV12345@PEAVArena@protobuf@google@@@Z 0000000180063970 f i electron_sdk.pb.obj
 0001:00062980       ?New@IsValidEmailParams@proto@sdk@electron@com@@UEBAPEAV12345@PEAVArena@protobuf@google@@@Z 0000000180063980 f i electron_sdk.pb.obj
 0001:00062990       ?New@InputUserInfoParams@proto@sdk@electron@com@@UEBAPEAV12345@PEAVArena@protobuf@google@@@Z 0000000180063990 f i electron_sdk.pb.obj
 0001:000629a0       ?New@RedirectMeetingInputUserInfoDialogParams@proto@sdk@electron@com@@UEBAPEAV12345@PEAVArena@protobuf@google@@@Z 00000001800639a0 f i electron_sdk.pb.obj
 0001:000629b0       ?New@JoinWithArchiveParams@proto@sdk@electron@com@@UEBAPEAV12345@PEAVArena@protobuf@google@@@Z 00000001800639b0 f i electron_sdk.pb.obj
 0001:000629c0       ?New@RedirectConfirmStartArchiveDialogParams@proto@sdk@electron@com@@UEBAPEAV12345@PEAVArena@protobuf@google@@@Z 00000001800639c0 f i electron_sdk.pb.obj
 0001:000629d0       ?New@ShowIndicatorPanelParams@proto@sdk@electron@com@@UEBAPEAV12345@PEAVArena@protobuf@google@@@Z 00000001800639d0 f i electron_sdk.pb.obj
 0001:000629e0       ?New@WebinarAttendeeParams@proto@sdk@electron@com@@UEBAPEAV12345@PEAVArena@protobuf@google@@@Z 00000001800639e0 f i electron_sdk.pb.obj
 0001:000629f0       ?New@SetPanelistChatPrivilegeParams@proto@sdk@electron@com@@UEBAPEAV12345@PEAVArena@protobuf@google@@@Z 00000001800639f0 f i electron_sdk.pb.obj
 0001:00062a00       ?New@SetAttendeeViewModeParams@proto@sdk@electron@com@@UEBAPEAV12345@PEAVArena@protobuf@google@@@Z 0000000180063a00 f i electron_sdk.pb.obj
 0001:00062a10       ?New@SetWallpaperParams@proto@sdk@electron@com@@UEBAPEAV12345@PEAVArena@protobuf@google@@@Z 0000000180063a10 f i electron_sdk.pb.obj
 0001:00062a20       ?New@GetWallpaperItemByIDParams@proto@sdk@electron@com@@UEBAPEAV12345@PEAVArena@protobuf@google@@@Z 0000000180063a20 f i electron_sdk.pb.obj
 0001:00062a30       ?New@SetUsingGreenScreenParams@proto@sdk@electron@com@@UEBAPEAV12345@PEAVArena@protobuf@google@@@Z 0000000180063a30 f i electron_sdk.pb.obj
 0001:00062a40       ?New@AddBGImageParams@proto@sdk@electron@com@@UEBAPEAV12345@PEAVArena@protobuf@google@@@Z 0000000180063a40 f i electron_sdk.pb.obj
 0001:00062a50       ?New@RemoveBGImageParams@proto@sdk@electron@com@@UEBAPEAV12345@PEAVArena@protobuf@google@@@Z 0000000180063a50 f i electron_sdk.pb.obj
 0001:00062a60       ?New@UseBGImageParams@proto@sdk@electron@com@@UEBAPEAV12345@PEAVArena@protobuf@google@@@Z 0000000180063a60 f i electron_sdk.pb.obj
 0001:00062a70       ?New@AddBGVideoParams@proto@sdk@electron@com@@UEBAPEAV12345@PEAVArena@protobuf@google@@@Z 0000000180063a70 f i electron_sdk.pb.obj
 0001:00062a80       ?New@RemoveBGVideoParams@proto@sdk@electron@com@@UEBAPEAV12345@PEAVArena@protobuf@google@@@Z 0000000180063a80 f i electron_sdk.pb.obj
 0001:00062a90       ?New@UseBGVideoParams@proto@sdk@electron@com@@UEBAPEAV12345@PEAVArena@protobuf@google@@@Z 0000000180063a90 f i electron_sdk.pb.obj
 0001:00062aa0       ?New@ChangeQuerySettingsParams@proto@sdk@electron@com@@UEBAPEAV12345@PEAVArena@protobuf@google@@@Z 0000000180063aa0 f i electron_sdk.pb.obj
 0001:00062ab0       ?New@SendQueryQuestionParams@proto@sdk@electron@com@@UEBAPEAV12345@PEAVArena@protobuf@google@@@Z 0000000180063ab0 f i electron_sdk.pb.obj
 0001:00062ac0       ?New@AICompanionQueryFeedbackParams@proto@sdk@electron@com@@UEBAPEAV12345@PEAVArena@protobuf@google@@@Z 0000000180063ac0 f i electron_sdk.pb.obj
 0001:00062ad0       ?New@SetVideoQualityPreferenceParams@proto@sdk@electron@com@@UEBAPEAV12345@PEAVArena@protobuf@google@@@Z 0000000180063ad0 f i electron_sdk.pb.obj
 0001:00062ae0       ?New@TurnOffAllAICompanionsParams@proto@sdk@electron@com@@UEBAPEAV12345@PEAVArena@protobuf@google@@@Z 0000000180063ae0 f i electron_sdk.pb.obj
 0001:00062af0       ?New@AgreeAICompanionFeatureSwitchParams@proto@sdk@electron@com@@UEBAPEAV12345@PEAVArena@protobuf@google@@@Z 0000000180063af0 f i electron_sdk.pb.obj
 0001:00062b00       ?New@DeclineSendQueryParams@proto@sdk@electron@com@@UEBAPEAV12345@PEAVArena@protobuf@google@@@Z 0000000180063b00 f i electron_sdk.pb.obj
 0001:00062b10       ?New@QuestionIDParams@proto@sdk@electron@com@@UEBAPEAV12345@PEAVArena@protobuf@google@@@Z 0000000180063b10 f i electron_sdk.pb.obj
 0001:00062b20       ?New@VoteQuestionParams@proto@sdk@electron@com@@UEBAPEAV12345@PEAVArena@protobuf@google@@@Z 0000000180063b20 f i electron_sdk.pb.obj
 0001:00062b30       ?New@AnswerIDParams@proto@sdk@electron@com@@UEBAPEAV12345@PEAVArena@protobuf@google@@@Z 0000000180063b30 f i electron_sdk.pb.obj
 0001:00062b40       ?New@AnswerQuestionParams@proto@sdk@electron@com@@UEBAPEAV12345@PEAVArena@protobuf@google@@@Z 0000000180063b40 f i electron_sdk.pb.obj
 0001:00062b50       ?New@PollingIDParams@proto@sdk@electron@com@@UEBAPEAV12345@PEAVArena@protobuf@google@@@Z 0000000180063b50 f i electron_sdk.pb.obj
 0001:00062b60       ?New@QuestionCaseSensitiveParams@proto@sdk@electron@com@@UEBAPEAV12345@PEAVArena@protobuf@google@@@Z 0000000180063b60 f i electron_sdk.pb.obj
 0001:00062b70       ?New@QuestionImagePathParams@proto@sdk@electron@com@@UEBAPEAV12345@PEAVArena@protobuf@google@@@Z 0000000180063b70 f i electron_sdk.pb.obj
 0001:00062b80       ?New@SetOwnerWindowParams@proto@sdk@electron@com@@UEBAPEAV12345@PEAVArena@protobuf@google@@@Z 0000000180063b80 f i electron_sdk.pb.obj
 0001:00062b90       ?New@ShowDashboardViewParams@proto@sdk@electron@com@@UEBAPEAV12345@PEAVArena@protobuf@google@@@Z 0000000180063b90 f i electron_sdk.pb.obj
 0001:00062ba0       ?New@SetDashboardViewSizeParams@proto@sdk@electron@com@@UEBAPEAV12345@PEAVArena@protobuf@google@@@Z 0000000180063ba0 f i electron_sdk.pb.obj
 0001:00062bb0       ?New@SetWhiteboardViewPosParams@proto@sdk@electron@com@@UEBAPEAV12345@PEAVArena@protobuf@google@@@Z 0000000180063bb0 f i electron_sdk.pb.obj
 0001:00062bc0       ?New@SetWhiteboardViewSizeParams@proto@sdk@electron@com@@UEBAPEAV12345@PEAVArena@protobuf@google@@@Z 0000000180063bc0 f i electron_sdk.pb.obj
 0001:00062bd0       ?New@SetWhiteboardShareOptionParams@proto@sdk@electron@com@@UEBAPEAV12345@PEAVArena@protobuf@google@@@Z 0000000180063bd0 f i electron_sdk.pb.obj
 0001:00062be0       ?New@SetWhiteboardCreateOptionParams@proto@sdk@electron@com@@UEBAPEAV12345@PEAVArena@protobuf@google@@@Z 0000000180063be0 f i electron_sdk.pb.obj
 0001:00062bf0       ?New@EnableParticipantsCreateWithoutHostParams@proto@sdk@electron@com@@UEBAPEAV12345@PEAVArena@protobuf@google@@@Z 0000000180063bf0 f i electron_sdk.pb.obj
 0001:00062c00       ?New@SetDocsShareOptionParams@proto@sdk@electron@com@@UEBAPEAV12345@PEAVArena@protobuf@google@@@Z 0000000180063c00 f i electron_sdk.pb.obj
 0001:00062c10       ?New@SetDocsCreateOptionParams@proto@sdk@electron@com@@UEBAPEAV12345@PEAVArena@protobuf@google@@@Z 0000000180063c10 f i electron_sdk.pb.obj
 0001:00062c20       ?New@ShowDocsDashboardParams@proto@sdk@electron@com@@UEBAPEAV12345@PEAVArena@protobuf@google@@@Z 0000000180063c20 f i electron_sdk.pb.obj
 0001:00062c30       ?New@SetDocDashboardSizeParams@proto@sdk@electron@com@@UEBAPEAV12345@PEAVArena@protobuf@google@@@Z 0000000180063c30 f i electron_sdk.pb.obj
 0001:00062c40       ?New@SetDocsViewPosParams@proto@sdk@electron@com@@UEBAPEAV12345@PEAVArena@protobuf@google@@@Z 0000000180063c40 f i electron_sdk.pb.obj
 0001:00062c50       ?New@SetDocsViewSizeParams@proto@sdk@electron@com@@UEBAPEAV12345@PEAVArena@protobuf@google@@@Z 0000000180063c50 f i electron_sdk.pb.obj
 0001:00062c60       ?New@ShowDocsViewWindowParams@proto@sdk@electron@com@@UEBAPEAV12345@PEAVArena@protobuf@google@@@Z 0000000180063c60 f i electron_sdk.pb.obj
 0001:00062c70       ?New@GetDocsSharingSourceInfoListParams@proto@sdk@electron@com@@UEBAPEAV12345@PEAVArena@protobuf@google@@@Z 0000000180063c70 f i electron_sdk.pb.obj
 0001:00062c80       ??_EInitSDKParams@proto@sdk@electron@com@@UEAAPEAXI@Z 0000000180063c80 f i * CIL library *:* CIL module *
 0001:00062c80       ??_GInitSDKParams@proto@sdk@electron@com@@UEAAPEAXI@Z 0000000180063c80 f i electron_sdk.pb.obj
 0001:00062cc0       ??_EAuthWithJwtTokenParams@proto@sdk@electron@com@@UEAAPEAXI@Z 0000000180063cc0 f i * CIL library *:* CIL module *
 0001:00062cc0       ??_GAuthWithJwtTokenParams@proto@sdk@electron@com@@UEAAPEAXI@Z 0000000180063cc0 f i electron_sdk.pb.obj
 0001:00062d00       ??_ELoginWithSSOTokenParams@proto@sdk@electron@com@@UEAAPEAXI@Z 0000000180063d00 f i * CIL library *:* CIL module *
 0001:00062d00       ??_GLoginWithSSOTokenParams@proto@sdk@electron@com@@UEAAPEAXI@Z 0000000180063d00 f i electron_sdk.pb.obj
 0001:00062df0       ??_EStartMeetingParams@proto@sdk@electron@com@@UEAAPEAXI@Z 0000000180063df0 f i * CIL library *:* CIL module *
 0001:00062df0       ??_GStartMeetingParams@proto@sdk@electron@com@@UEAAPEAXI@Z 0000000180063df0 f i electron_sdk.pb.obj
 0001:00062e30       ??_EStartWithoutLoginParams@proto@sdk@electron@com@@UEAAPEAXI@Z 0000000180063e30 f i * CIL library *:* CIL module *
 0001:00062e30       ??_GStartWithoutLoginParams@proto@sdk@electron@com@@UEAAPEAXI@Z 0000000180063e30 f i electron_sdk.pb.obj
 0001:00062e70       ??_EJoinMeetingParams@proto@sdk@electron@com@@UEAAPEAXI@Z 0000000180063e70 f i * CIL library *:* CIL module *
 0001:00062e70       ??_GJoinMeetingParams@proto@sdk@electron@com@@UEAAPEAXI@Z 0000000180063e70 f i electron_sdk.pb.obj
 0001:00062eb0       ??_EJoinWithoutLoginParams@proto@sdk@electron@com@@UEAAPEAXI@Z 0000000180063eb0 f i * CIL library *:* CIL module *
 0001:00062eb0       ??_GJoinWithoutLoginParams@proto@sdk@electron@com@@UEAAPEAXI@Z 0000000180063eb0 f i electron_sdk.pb.obj
 0001:00062ef0       ??_ELeaveMeetingParams@proto@sdk@electron@com@@UEAAPEAXI@Z 0000000180063ef0 f i * CIL library *:* CIL module *
 0001:00062ef0       ??_GLeaveMeetingParams@proto@sdk@electron@com@@UEAAPEAXI@Z 0000000180063ef0 f i electron_sdk.pb.obj
 0001:00062f30       ??_ESetMeetingTopicParam@proto@sdk@electron@com@@UEAAPEAXI@Z 0000000180063f30 f i * CIL library *:* CIL module *
 0001:00062f30       ??_GSetMeetingTopicParam@proto@sdk@electron@com@@UEAAPEAXI@Z 0000000180063f30 f i electron_sdk.pb.obj
 0001:00062f70       ??_EHandleZoomWebUriProtocolActionParams@proto@sdk@electron@com@@UEAAPEAXI@Z 0000000180063f70 f i * CIL library *:* CIL module *
 0001:00062f70       ??_GHandleZoomWebUriProtocolActionParams@proto@sdk@electron@com@@UEAAPEAXI@Z 0000000180063f70 f i electron_sdk.pb.obj
 0001:00062fb0       ??_EShowChatDlgParams@proto@sdk@electron@com@@UEAAPEAXI@Z 0000000180063fb0 f i * CIL library *:* CIL module *
 0001:00062fb0       ??_GShowChatDlgParams@proto@sdk@electron@com@@UEAAPEAXI@Z 0000000180063fb0 f i electron_sdk.pb.obj
 0001:00062ff0       ??_EEnterFullScreenParams@proto@sdk@electron@com@@UEAAPEAXI@Z 0000000180063ff0 f i * CIL library *:* CIL module *
 0001:00062ff0       ??_GEnterFullScreenParams@proto@sdk@electron@com@@UEAAPEAXI@Z 0000000180063ff0 f i electron_sdk.pb.obj
 0001:00063030       ??_EExitFullScreenParams@proto@sdk@electron@com@@UEAAPEAXI@Z 0000000180064030 f i * CIL library *:* CIL module *
 0001:00063030       ??_GExitFullScreenParams@proto@sdk@electron@com@@UEAAPEAXI@Z 0000000180064030 f i electron_sdk.pb.obj
 0001:00063070       ??_EMoveFloatVideoWndParams@proto@sdk@electron@com@@UEAAPEAXI@Z 0000000180064070 f i * CIL library *:* CIL module *
 0001:00063070       ??_GMoveFloatVideoWndParams@proto@sdk@electron@com@@UEAAPEAXI@Z 0000000180064070 f i electron_sdk.pb.obj
 0001:000630b0       ??_EShowSharingToolbarParams@proto@sdk@electron@com@@UEAAPEAXI@Z 00000001800640b0 f i * CIL library *:* CIL module *
 0001:000630b0       ??_GShowSharingToolbarParams@proto@sdk@electron@com@@UEAAPEAXI@Z 00000001800640b0 f i electron_sdk.pb.obj
 0001:000630f0       ??_EChangeFloatToActiveSpkVideoSizeParams@proto@sdk@electron@com@@UEAAPEAXI@Z 00000001800640f0 f i * CIL library *:* CIL module *
 0001:000630f0       ??_GChangeFloatToActiveSpkVideoSizeParams@proto@sdk@electron@com@@UEAAPEAXI@Z 00000001800640f0 f i electron_sdk.pb.obj
 0001:00063130       ??_EShowParticipantsListWndParams@proto@sdk@electron@com@@UEAAPEAXI@Z 0000000180064130 f i * CIL library *:* CIL module *
 0001:00063130       ??_GShowParticipantsListWndParams@proto@sdk@electron@com@@UEAAPEAXI@Z 0000000180064130 f i electron_sdk.pb.obj
 0001:00063170       ??_EShowBottomFloatToolbarWndParams@proto@sdk@electron@com@@UEAAPEAXI@Z 0000000180064170 f i * CIL library *:* CIL module *
 0001:00063170       ??_GShowBottomFloatToolbarWndParams@proto@sdk@electron@com@@UEAAPEAXI@Z 0000000180064170 f i electron_sdk.pb.obj
 0001:000631b0       ??_EShowPreOrNextPageVideoParams@proto@sdk@electron@com@@UEAAPEAXI@Z 00000001800641b0 f i * CIL library *:* CIL module *
 0001:000631b0       ??_GShowPreOrNextPageVideoParams@proto@sdk@electron@com@@UEAAPEAXI@Z 00000001800641b0 f i electron_sdk.pb.obj
 0001:000631f0       ??_EShowSharingFrameWindowsParams@proto@sdk@electron@com@@UEAAPEAXI@Z 00000001800641f0 f i * CIL library *:* CIL module *
 0001:000631f0       ??_GShowSharingFrameWindowsParams@proto@sdk@electron@com@@UEAAPEAXI@Z 00000001800641f0 f i electron_sdk.pb.obj
 0001:00063230       ??_ESwitchSplitScreenModeParams@proto@sdk@electron@com@@UEAAPEAXI@Z 0000000180064230 f i * CIL library *:* CIL module *
 0001:00063230       ??_GSwitchSplitScreenModeParams@proto@sdk@electron@com@@UEAAPEAXI@Z 0000000180064230 f i electron_sdk.pb.obj
 0001:00063270       ??_ESwitchMinimizeUIMode4FirstScreenMeetingUIWndParams@proto@sdk@electron@com@@UEAAPEAXI@Z 0000000180064270 f i * CIL library *:* CIL module *
 0001:00063270       ??_GSwitchMinimizeUIMode4FirstScreenMeetingUIWndParams@proto@sdk@electron@com@@UEAAPEAXI@Z 0000000180064270 f i electron_sdk.pb.obj
 0001:000632b0       ??_ESwapToShowShareViewOrVideoParams@proto@sdk@electron@com@@UEAAPEAXI@Z 00000001800642b0 f i * CIL library *:* CIL module *
 0001:000632b0       ??_GSwapToShowShareViewOrVideoParams@proto@sdk@electron@com@@UEAAPEAXI@Z 00000001800642b0 f i electron_sdk.pb.obj
 0001:000632f0       ??_EShowSettingDlgParams@proto@sdk@electron@com@@UEAAPEAXI@Z 00000001800642f0 f i * CIL library *:* CIL module *
 0001:000632f0       ??_GShowSettingDlgParams@proto@sdk@electron@com@@UEAAPEAXI@Z 00000001800642f0 f i electron_sdk.pb.obj
 0001:00063330       ??_EScheduleMeetingWithWndParams@proto@sdk@electron@com@@UEAAPEAXI@Z 0000000180064330 f i * CIL library *:* CIL module *
 0001:00063330       ??_GScheduleMeetingWithWndParams@proto@sdk@electron@com@@UEAAPEAXI@Z 0000000180064330 f i electron_sdk.pb.obj
 0001:00063440       ??_EEditMeetingParams@proto@sdk@electron@com@@UEAAPEAXI@Z 0000000180064440 f i * CIL library *:* CIL module *
 0001:00063440       ??_GEditMeetingParams@proto@sdk@electron@com@@UEAAPEAXI@Z 0000000180064440 f i electron_sdk.pb.obj
 0001:00063520       ??_EEditMeetingWithWndParams@proto@sdk@electron@com@@UEAAPEAXI@Z 0000000180064520 f i * CIL library *:* CIL module *
 0001:00063520       ??_GEditMeetingWithWndParams@proto@sdk@electron@com@@UEAAPEAXI@Z 0000000180064520 f i electron_sdk.pb.obj
 0001:00063630       ??_EDeleteMeetingParams@proto@sdk@electron@com@@UEAAPEAXI@Z 0000000180064630 f i * CIL library *:* CIL module *
 0001:00063630       ??_GDeleteMeetingParams@proto@sdk@electron@com@@UEAAPEAXI@Z 0000000180064630 f i electron_sdk.pb.obj
 0001:00063710       ??_EAddCustomizedPictureResourceParams@proto@sdk@electron@com@@UEAAPEAXI@Z 0000000180064710 f i * CIL library *:* CIL module *
 0001:00063710       ??_GAddCustomizedPictureResourceParams@proto@sdk@electron@com@@UEAAPEAXI@Z 0000000180064710 f i electron_sdk.pb.obj
 0001:00063750       ??_EAddCustomizedStringResourceParams@proto@sdk@electron@com@@UEAAPEAXI@Z 0000000180064750 f i * CIL library *:* CIL module *
 0001:00063750       ??_GAddCustomizedStringResourceParams@proto@sdk@electron@com@@UEAAPEAXI@Z 0000000180064750 f i electron_sdk.pb.obj
 0001:00063790       ??_EAddCustomizedURLResourceParams@proto@sdk@electron@com@@UEAAPEAXI@Z 0000000180064790 f i * CIL library *:* CIL module *
 0001:00063790       ??_GAddCustomizedURLResourceParams@proto@sdk@electron@com@@UEAAPEAXI@Z 0000000180064790 f i electron_sdk.pb.obj
 0001:000637d0       ??_ETryWithMeetingNumberParams@proto@sdk@electron@com@@UEAAPEAXI@Z 00000001800647d0 f i * CIL library *:* CIL module *
 0001:000637d0       ??_GTryWithMeetingNumberParams@proto@sdk@electron@com@@UEAAPEAXI@Z 00000001800647d0 f i electron_sdk.pb.obj
 0001:00063810       ??_ETryWithPairingCodeParams@proto@sdk@electron@com@@UEAAPEAXI@Z 0000000180064810 f i * CIL library *:* CIL module *
 0001:00063810       ??_GTryWithPairingCodeParams@proto@sdk@electron@com@@UEAAPEAXI@Z 0000000180064810 f i electron_sdk.pb.obj
 0001:00063850       ??_EShowPanelParams@proto@sdk@electron@com@@UEAAPEAXI@Z 0000000180064850 f i * CIL library *:* CIL module *
 0001:00063850       ??_GShowPanelParams@proto@sdk@electron@com@@UEAAPEAXI@Z 0000000180064850 f i electron_sdk.pb.obj
 0001:00063890       ??_EStartAnnotationParams@proto@sdk@electron@com@@UEAAPEAXI@Z 0000000180064890 f i * CIL library *:* CIL module *
 0001:00063890       ??_GStartAnnotationParams@proto@sdk@electron@com@@UEAAPEAXI@Z 0000000180064890 f i electron_sdk.pb.obj
 0001:000638d0       ??_EStopAnnotationParams@proto@sdk@electron@com@@UEAAPEAXI@Z 00000001800648d0 f i * CIL library *:* CIL module *
 0001:000638d0       ??_GStopAnnotationParams@proto@sdk@electron@com@@UEAAPEAXI@Z 00000001800648d0 f i electron_sdk.pb.obj
 0001:00063910       ??_ESetToolParams@proto@sdk@electron@com@@UEAAPEAXI@Z 0000000180064910 f i * CIL library *:* CIL module *
 0001:00063910       ??_GSetToolParams@proto@sdk@electron@com@@UEAAPEAXI@Z 0000000180064910 f i electron_sdk.pb.obj
 0001:00063950       ??_EClearAnnotationParams@proto@sdk@electron@com@@UEAAPEAXI@Z 0000000180064950 f i * CIL library *:* CIL module *
 0001:00063950       ??_GClearAnnotationParams@proto@sdk@electron@com@@UEAAPEAXI@Z 0000000180064950 f i electron_sdk.pb.obj
 0001:00063990       ??_ESetColorParams@proto@sdk@electron@com@@UEAAPEAXI@Z 0000000180064990 f i * CIL library *:* CIL module *
 0001:00063990       ??_GSetColorParams@proto@sdk@electron@com@@UEAAPEAXI@Z 0000000180064990 f i electron_sdk.pb.obj
 0001:000639d0       ??_ESetLineWidthParams@proto@sdk@electron@com@@UEAAPEAXI@Z 00000001800649d0 f i * CIL library *:* CIL module *
 0001:000639d0       ??_GSetLineWidthParams@proto@sdk@electron@com@@UEAAPEAXI@Z 00000001800649d0 f i electron_sdk.pb.obj
 0001:00063a10       ??_EUndoParams@proto@sdk@electron@com@@UEAAPEAXI@Z 0000000180064a10 f i * CIL library *:* CIL module *
 0001:00063a10       ??_GUndoParams@proto@sdk@electron@com@@UEAAPEAXI@Z 0000000180064a10 f i electron_sdk.pb.obj
 0001:00063a50       ??_ERedoParams@proto@sdk@electron@com@@UEAAPEAXI@Z 0000000180064a50 f i * CIL library *:* CIL module *
 0001:00063a50       ??_GRedoParams@proto@sdk@electron@com@@UEAAPEAXI@Z 0000000180064a50 f i electron_sdk.pb.obj
 0001:00063b30       ??_EMuteAudioParams@proto@sdk@electron@com@@UEAAPEAXI@Z 0000000180064b30 f i * CIL library *:* CIL module *
 0001:00063b30       ??_GMuteAudioParams@proto@sdk@electron@com@@UEAAPEAXI@Z 0000000180064b30 f i electron_sdk.pb.obj
 0001:00063b70       ??_EUnmuteAudioParams@proto@sdk@electron@com@@UEAAPEAXI@Z 0000000180064b70 f i * CIL library *:* CIL module *
 0001:00063b70       ??_GUnmuteAudioParams@proto@sdk@electron@com@@UEAAPEAXI@Z 0000000180064b70 f i electron_sdk.pb.obj
 0001:00063bb0       ??_EEnablePlayChimeWhenEnterOrExitParams@proto@sdk@electron@com@@UEAAPEAXI@Z 0000000180064bb0 f i * CIL library *:* CIL module *
 0001:00063bb0       ??_GEnablePlayChimeWhenEnterOrExitParams@proto@sdk@electron@com@@UEAAPEAXI@Z 0000000180064bb0 f i electron_sdk.pb.obj
 0001:00063bf0       ??_EEnableMuteOnEntryParams@proto@sdk@electron@com@@UEAAPEAXI@Z 0000000180064bf0 f i * CIL library *:* CIL module *
 0001:00063bf0       ??_GEnableMuteOnEntryParams@proto@sdk@electron@com@@UEAAPEAXI@Z 0000000180064bf0 f i electron_sdk.pb.obj
 0001:00063c30       ??_EEnablePlayMeetingAudioParams@proto@sdk@electron@com@@UEAAPEAXI@Z 0000000180064c30 f i * CIL library *:* CIL module *
 0001:00063c30       ??_GEnablePlayMeetingAudioParams@proto@sdk@electron@com@@UEAAPEAXI@Z 0000000180064c30 f i electron_sdk.pb.obj
 0001:00063c70       ??_EEnableInviteButtonOnMeetingUIParams@proto@sdk@electron@com@@UEAAPEAXI@Z 0000000180064c70 f i * CIL library *:* CIL module *
 0001:00063c70       ??_GEnableInviteButtonOnMeetingUIParams@proto@sdk@electron@com@@UEAAPEAXI@Z 0000000180064c70 f i electron_sdk.pb.obj
 0001:00063cb0       ??_ESetFloatVideoPosParams@proto@sdk@electron@com@@UEAAPEAXI@Z 0000000180064cb0 f i * CIL library *:* CIL module *
 0001:00063cb0       ??_GSetFloatVideoPosParams@proto@sdk@electron@com@@UEAAPEAXI@Z 0000000180064cb0 f i electron_sdk.pb.obj
 0001:00063cf0       ??_ESetBottomFloatToolBarWndVisibilityParams@proto@sdk@electron@com@@UEAAPEAXI@Z 0000000180064cf0 f i * CIL library *:* CIL module *
 0001:00063cf0       ??_GSetBottomFloatToolBarWndVisibilityParams@proto@sdk@electron@com@@UEAAPEAXI@Z 0000000180064cf0 f i electron_sdk.pb.obj
 0001:00063d30       ??_ESetSharingToolBarVisibilityParams@proto@sdk@electron@com@@UEAAPEAXI@Z 0000000180064d30 f i * CIL library *:* CIL module *
 0001:00063d30       ??_GSetSharingToolBarVisibilityParams@proto@sdk@electron@com@@UEAAPEAXI@Z 0000000180064d30 f i electron_sdk.pb.obj
 0001:00063d70       ??_ESetDirectShareMonitorIDParams@proto@sdk@electron@com@@UEAAPEAXI@Z 0000000180064d70 f i * CIL library *:* CIL module *
 0001:00063d70       ??_GSetDirectShareMonitorIDParams@proto@sdk@electron@com@@UEAAPEAXI@Z 0000000180064d70 f i electron_sdk.pb.obj
 0001:00063db0       ??_ESetMeetingUIPosParams@proto@sdk@electron@com@@UEAAPEAXI@Z 0000000180064db0 f i * CIL library *:* CIL module *
 0001:00063db0       ??_GSetMeetingUIPosParams@proto@sdk@electron@com@@UEAAPEAXI@Z 0000000180064db0 f i electron_sdk.pb.obj
 0001:00063df0       ??_EDisableWaitingForHostDialogParams@proto@sdk@electron@com@@UEAAPEAXI@Z 0000000180064df0 f i * CIL library *:* CIL module *
 0001:00063df0       ??_GDisableWaitingForHostDialogParams@proto@sdk@electron@com@@UEAAPEAXI@Z 0000000180064df0 f i electron_sdk.pb.obj
 0001:00063e30       ??_EDisablePopupMeetingWrongPSWDlgParams@proto@sdk@electron@com@@UEAAPEAXI@Z 0000000180064e30 f i * CIL library *:* CIL module *
 0001:00063e30       ??_GDisablePopupMeetingWrongPSWDlgParams@proto@sdk@electron@com@@UEAAPEAXI@Z 0000000180064e30 f i electron_sdk.pb.obj
 0001:00063e70       ??_EEnableAutoEndOtherMeetingWhenStartMeetingParams@proto@sdk@electron@com@@UEAAPEAXI@Z 0000000180064e70 f i * CIL library *:* CIL module *
 0001:00063e70       ??_GEnableAutoEndOtherMeetingWhenStartMeetingParams@proto@sdk@electron@com@@UEAAPEAXI@Z 0000000180064e70 f i electron_sdk.pb.obj
 0001:00063eb0       ??_EEnableLButtonDBClick4SwitchFullScreenModeParams@proto@sdk@electron@com@@UEAAPEAXI@Z 0000000180064eb0 f i * CIL library *:* CIL module *
 0001:00063eb0       ??_GEnableLButtonDBClick4SwitchFullScreenModeParams@proto@sdk@electron@com@@UEAAPEAXI@Z 0000000180064eb0 f i electron_sdk.pb.obj
 0001:00063ef0       ??_ESetFloatVideoWndVisibilityParams@proto@sdk@electron@com@@UEAAPEAXI@Z 0000000180064ef0 f i * CIL library *:* CIL module *
 0001:00063ef0       ??_GSetFloatVideoWndVisibilityParams@proto@sdk@electron@com@@UEAAPEAXI@Z 0000000180064ef0 f i electron_sdk.pb.obj
 0001:00063f30       ??_EPrePopulateWebinarRegistrationInfoParams@proto@sdk@electron@com@@UEAAPEAXI@Z 0000000180064f30 f i * CIL library *:* CIL module *
 0001:00063f30       ??_GPrePopulateWebinarRegistrationInfoParams@proto@sdk@electron@com@@UEAAPEAXI@Z 0000000180064f30 f i electron_sdk.pb.obj
 0001:00063f70       ??_EEnableAutoAdjustSpeakerVolumeWhenJoinAudioParams@proto@sdk@electron@com@@UEAAPEAXI@Z 0000000180064f70 f i * CIL library *:* CIL module *
 0001:00063f70       ??_GEnableAutoAdjustSpeakerVolumeWhenJoinAudioParams@proto@sdk@electron@com@@UEAAPEAXI@Z 0000000180064f70 f i electron_sdk.pb.obj
 0001:00063fb0       ??_EEnableAutoAdjustMicVolumeWhenJoinAudioParams@proto@sdk@electron@com@@UEAAPEAXI@Z 0000000180064fb0 f i * CIL library *:* CIL module *
 0001:00063fb0       ??_GEnableAutoAdjustMicVolumeWhenJoinAudioParams@proto@sdk@electron@com@@UEAAPEAXI@Z 0000000180064fb0 f i electron_sdk.pb.obj
 0001:00063ff0       ??_EConfigDSCPParams@proto@sdk@electron@com@@UEAAPEAXI@Z 0000000180064ff0 f i * CIL library *:* CIL module *
 0001:00063ff0       ??_GConfigDSCPParams@proto@sdk@electron@com@@UEAAPEAXI@Z 0000000180064ff0 f i electron_sdk.pb.obj
 0001:00064030       ??_EEnableHIdeFullPhoneNumber4PureCallinUserParams@proto@sdk@electron@com@@UEAAPEAXI@Z 0000000180065030 f i * CIL library *:* CIL module *
 0001:00064030       ??_GEnableHIdeFullPhoneNumber4PureCallinUserParams@proto@sdk@electron@com@@UEAAPEAXI@Z 0000000180065030 f i electron_sdk.pb.obj
 0001:00064110       ??_EEnableShareIOSDeviceParams@proto@sdk@electron@com@@UEAAPEAXI@Z 0000000180065110 f i * CIL library *:* CIL module *
 0001:00064110       ??_GEnableShareIOSDeviceParams@proto@sdk@electron@com@@UEAAPEAXI@Z 0000000180065110 f i electron_sdk.pb.obj
 0001:00064150       ??_EEnableShareWhiteBoardParams@proto@sdk@electron@com@@UEAAPEAXI@Z 0000000180065150 f i * CIL library *:* CIL module *
 0001:00064150       ??_GEnableShareWhiteBoardParams@proto@sdk@electron@com@@UEAAPEAXI@Z 0000000180065150 f i electron_sdk.pb.obj
 0001:00064190       ??_EEnableLengthLimitationOfMeetingNumberParams@proto@sdk@electron@com@@UEAAPEAXI@Z 0000000180065190 f i * CIL library *:* CIL module *
 0001:00064190       ??_GEnableLengthLimitationOfMeetingNumberParams@proto@sdk@electron@com@@UEAAPEAXI@Z 0000000180065190 f i electron_sdk.pb.obj
 0001:000641d0       ??_EForceDisableMultiShareParams@proto@sdk@electron@com@@UEAAPEAXI@Z 00000001800651d0 f i * CIL library *:* CIL module *
 0001:000641d0       ??_GForceDisableMultiShareParams@proto@sdk@electron@com@@UEAAPEAXI@Z 00000001800651d0 f i electron_sdk.pb.obj
 0001:00064210       ??_EEnableZoomDocsParams@proto@sdk@electron@com@@UEAAPEAXI@Z 0000000180065210 f i * CIL library *:* CIL module *
 0001:00064210       ??_GEnableZoomDocsParams@proto@sdk@electron@com@@UEAAPEAXI@Z 0000000180065210 f i electron_sdk.pb.obj
 0001:00064250       ??_EEnableLocalRecordingConverProgressBarDialogParams@proto@sdk@electron@com@@UEAAPEAXI@Z 0000000180065250 f i * CIL library *:* CIL module *
 0001:00064250       ??_GEnableLocalRecordingConverProgressBarDialogParams@proto@sdk@electron@com@@UEAAPEAXI@Z 0000000180065250 f i electron_sdk.pb.obj
 0001:00064290       ??_ESetMaxDurationForOnlyHostInMeetingParams@proto@sdk@electron@com@@UEAAPEAXI@Z 0000000180065290 f i * CIL library *:* CIL module *
 0001:00064290       ??_GSetMaxDurationForOnlyHostInMeetingParams@proto@sdk@electron@com@@UEAAPEAXI@Z 0000000180065290 f i electron_sdk.pb.obj
 0001:000642d0       ??_EEnableApproveRemoteControlDlgParams@proto@sdk@electron@com@@UEAAPEAXI@Z 00000001800652d0 f i * CIL library *:* CIL module *
 0001:000642d0       ??_GEnableApproveRemoteControlDlgParams@proto@sdk@electron@com@@UEAAPEAXI@Z 00000001800652d0 f i electron_sdk.pb.obj
 0001:00064310       ??_EEnableDeclineRemoteControlResponseDlgParams@proto@sdk@electron@com@@UEAAPEAXI@Z 0000000180065310 f i * CIL library *:* CIL module *
 0001:00064310       ??_GEnableDeclineRemoteControlResponseDlgParams@proto@sdk@electron@com@@UEAAPEAXI@Z 0000000180065310 f i electron_sdk.pb.obj
 0001:00064350       ??_EEnableLeaveMeetingOptionForHostParams@proto@sdk@electron@com@@UEAAPEAXI@Z 0000000180065350 f i * CIL library *:* CIL module *
 0001:00064350       ??_GEnableLeaveMeetingOptionForHostParams@proto@sdk@electron@com@@UEAAPEAXI@Z 0000000180065350 f i electron_sdk.pb.obj
 0001:00064390       ??_EEnableVideoButtonOnMeetingUIParams@proto@sdk@electron@com@@UEAAPEAXI@Z 0000000180065390 f i * CIL library *:* CIL module *
 0001:00064390       ??_GEnableVideoButtonOnMeetingUIParams@proto@sdk@electron@com@@UEAAPEAXI@Z 0000000180065390 f i electron_sdk.pb.obj
 0001:000643d0       ??_EEnableAudioButtonOnMeetingUIParams@proto@sdk@electron@com@@UEAAPEAXI@Z 00000001800653d0 f i * CIL library *:* CIL module *
 0001:000643d0       ??_GEnableAudioButtonOnMeetingUIParams@proto@sdk@electron@com@@UEAAPEAXI@Z 00000001800653d0 f i electron_sdk.pb.obj
 0001:00064410       ??_EEnableEnterAndExitFullScreenButtonOnMeetingUIParams@proto@sdk@electron@com@@UEAAPEAXI@Z 0000000180065410 f i * CIL library *:* CIL module *
 0001:00064410       ??_GEnableEnterAndExitFullScreenButtonOnMeetingUIParams@proto@sdk@electron@com@@UEAAPEAXI@Z 0000000180065410 f i electron_sdk.pb.obj
 0001:00064450       ??_ERedirectClickShareBTNEventParams@proto@sdk@electron@com@@UEAAPEAXI@Z 0000000180065450 f i * CIL library *:* CIL module *
 0001:00064450       ??_GRedirectClickShareBTNEventParams@proto@sdk@electron@com@@UEAAPEAXI@Z 0000000180065450 f i electron_sdk.pb.obj
 0001:00064490       ??_ERedirectClickEndMeetingBTNEventParams@proto@sdk@electron@com@@UEAAPEAXI@Z 0000000180065490 f i * CIL library *:* CIL module *
 0001:00064490       ??_GRedirectClickEndMeetingBTNEventParams@proto@sdk@electron@com@@UEAAPEAXI@Z 0000000180065490 f i electron_sdk.pb.obj
 0001:000644d0       ??_ERedirectFreeMeetingEndingReminderDlgParams@proto@sdk@electron@com@@UEAAPEAXI@Z 00000001800654d0 f i * CIL library *:* CIL module *
 0001:000644d0       ??_GRedirectFreeMeetingEndingReminderDlgParams@proto@sdk@electron@com@@UEAAPEAXI@Z 00000001800654d0 f i electron_sdk.pb.obj
 0001:00064510       ??_ERedirectClickCustomLiveStreamMenuEventParams@proto@sdk@electron@com@@UEAAPEAXI@Z 0000000180065510 f i * CIL library *:* CIL module *
 0001:00064510       ??_GRedirectClickCustomLiveStreamMenuEventParams@proto@sdk@electron@com@@UEAAPEAXI@Z 0000000180065510 f i electron_sdk.pb.obj
 0001:00064550       ??_ERedirectClickParticipantListBTNEventParams@proto@sdk@electron@com@@UEAAPEAXI@Z 0000000180065550 f i * CIL library *:* CIL module *
 0001:00064550       ??_GRedirectClickParticipantListBTNEventParams@proto@sdk@electron@com@@UEAAPEAXI@Z 0000000180065550 f i electron_sdk.pb.obj
 0001:00064590       ??_ERedirectClickCCBTNEventParams@proto@sdk@electron@com@@UEAAPEAXI@Z 0000000180065590 f i * CIL library *:* CIL module *
 0001:00064590       ??_GRedirectClickCCBTNEventParams@proto@sdk@electron@com@@UEAAPEAXI@Z 0000000180065590 f i electron_sdk.pb.obj
 0001:000645d0       ??_ERedirectClickAudioBTNEventParams@proto@sdk@electron@com@@UEAAPEAXI@Z 00000001800655d0 f i * CIL library *:* CIL module *
 0001:000645d0       ??_GRedirectClickAudioBTNEventParams@proto@sdk@electron@com@@UEAAPEAXI@Z 00000001800655d0 f i electron_sdk.pb.obj
 0001:00064610       ??_ERedirectClickAudioMenuBTNEventParams@proto@sdk@electron@com@@UEAAPEAXI@Z 0000000180065610 f i * CIL library *:* CIL module *
 0001:00064610       ??_GRedirectClickAudioMenuBTNEventParams@proto@sdk@electron@com@@UEAAPEAXI@Z 0000000180065610 f i electron_sdk.pb.obj
 0001:00064650       ??_ERedirectMeetingWarningMsgParams@proto@sdk@electron@com@@UEAAPEAXI@Z 0000000180065650 f i * CIL library *:* CIL module *
 0001:00064650       ??_GRedirectMeetingWarningMsgParams@proto@sdk@electron@com@@UEAAPEAXI@Z 0000000180065650 f i electron_sdk.pb.obj
 0001:00064690       ??_EEnableToolTipsShowParams@proto@sdk@electron@com@@UEAAPEAXI@Z 0000000180065690 f i * CIL library *:* CIL module *
 0001:00064690       ??_GEnableToolTipsShowParams@proto@sdk@electron@com@@UEAAPEAXI@Z 0000000180065690 f i electron_sdk.pb.obj
 0001:000646d0       ??_EEnableAirplayInstructionWindowParams@proto@sdk@electron@com@@UEAAPEAXI@Z 00000001800656d0 f i * CIL library *:* CIL module *
 0001:000646d0       ??_GEnableAirplayInstructionWindowParams@proto@sdk@electron@com@@UEAAPEAXI@Z 00000001800656d0 f i electron_sdk.pb.obj
 0001:000647b0       ??_EEnableClaimHostFeatureParams@proto@sdk@electron@com@@UEAAPEAXI@Z 00000001800657b0 f i * CIL library *:* CIL module *
 0001:000647b0       ??_GEnableClaimHostFeatureParams@proto@sdk@electron@com@@UEAAPEAXI@Z 00000001800657b0 f i electron_sdk.pb.obj
 0001:000647f0       ??_EEnableAutoHideJoinAudioDialogParams@proto@sdk@electron@com@@UEAAPEAXI@Z 00000001800657f0 f i * CIL library *:* CIL module *
 0001:000647f0       ??_GEnableAutoHideJoinAudioDialogParams@proto@sdk@electron@com@@UEAAPEAXI@Z 00000001800657f0 f i electron_sdk.pb.obj
 0001:00064830       ??_EAlwaysShowIconOnTaskBarParams@proto@sdk@electron@com@@UEAAPEAXI@Z 0000000180065830 f i * CIL library *:* CIL module *
 0001:00064830       ??_GAlwaysShowIconOnTaskBarParams@proto@sdk@electron@com@@UEAAPEAXI@Z 0000000180065830 f i electron_sdk.pb.obj
 0001:00064870       ??_EDisableSplitScreenModeUIElementsParams@proto@sdk@electron@com@@UEAAPEAXI@Z 0000000180065870 f i * CIL library *:* CIL module *
 0001:00064870       ??_GDisableSplitScreenModeUIElementsParams@proto@sdk@electron@com@@UEAAPEAXI@Z 0000000180065870 f i electron_sdk.pb.obj
 0001:000648b0       ??_ESetShowAudioUseComputerSoundChkboxParams@proto@sdk@electron@com@@UEAAPEAXI@Z 00000001800658b0 f i * CIL library *:* CIL module *
 0001:000648b0       ??_GSetShowAudioUseComputerSoundChkboxParams@proto@sdk@electron@com@@UEAAPEAXI@Z 00000001800658b0 f i electron_sdk.pb.obj
 0001:000648f0       ??_ESetShowCallInTabParams@proto@sdk@electron@com@@UEAAPEAXI@Z 00000001800658f0 f i * CIL library *:* CIL module *
 0001:000648f0       ??_GSetShowCallInTabParams@proto@sdk@electron@com@@UEAAPEAXI@Z 00000001800658f0 f i electron_sdk.pb.obj
 0001:00064930       ??_ESetShowCallMeTabParams@proto@sdk@electron@com@@UEAAPEAXI@Z 0000000180065930 f i * CIL library *:* CIL module *
 0001:00064930       ??_GSetShowCallMeTabParams@proto@sdk@electron@com@@UEAAPEAXI@Z 0000000180065930 f i electron_sdk.pb.obj
 0001:00064970       ??_EDisableTopMostAttr4SettingDialogParams@proto@sdk@electron@com@@UEAAPEAXI@Z 0000000180065970 f i * CIL library *:* CIL module *
 0001:00064970       ??_GDisableTopMostAttr4SettingDialogParams@proto@sdk@electron@com@@UEAAPEAXI@Z 0000000180065970 f i electron_sdk.pb.obj
 0001:000649b0       ??_EEnableGrabShareWithoutReminderParams@proto@sdk@electron@com@@UEAAPEAXI@Z 00000001800659b0 f i * CIL library *:* CIL module *
 0001:000649b0       ??_GEnableGrabShareWithoutReminderParams@proto@sdk@electron@com@@UEAAPEAXI@Z 00000001800659b0 f i electron_sdk.pb.obj
 0001:000649f0       ??_EEnableShowShareSwitchMultiToSingleConfirmDlgParams@proto@sdk@electron@com@@UEAAPEAXI@Z 00000001800659f0 f i * CIL library *:* CIL module *
 0001:000649f0       ??_GEnableShowShareSwitchMultiToSingleConfirmDlgParams@proto@sdk@electron@com@@UEAAPEAXI@Z 00000001800659f0 f i electron_sdk.pb.obj
 0001:00064a30       ??_EDisableFreeMeetingRemainTimeNotifyParams@proto@sdk@electron@com@@UEAAPEAXI@Z 0000000180065a30 f i * CIL library *:* CIL module *
 0001:00064a30       ??_GDisableFreeMeetingRemainTimeNotifyParams@proto@sdk@electron@com@@UEAAPEAXI@Z 0000000180065a30 f i electron_sdk.pb.obj
 0001:00064a70       ??_EHideChatItemOnMeetingUIParams@proto@sdk@electron@com@@UEAAPEAXI@Z 0000000180065a70 f i * CIL library *:* CIL module *
 0001:00064a70       ??_GHideChatItemOnMeetingUIParams@proto@sdk@electron@com@@UEAAPEAXI@Z 0000000180065a70 f i electron_sdk.pb.obj
 0001:00064ab0       ??_EHideRecordItemOnMeetingUIParams@proto@sdk@electron@com@@UEAAPEAXI@Z 0000000180065ab0 f i * CIL library *:* CIL module *
 0001:00064ab0       ??_GHideRecordItemOnMeetingUIParams@proto@sdk@electron@com@@UEAAPEAXI@Z 0000000180065ab0 f i electron_sdk.pb.obj
 0001:00064af0       ??_EHideUpgradeFreeMeetingButtonParams@proto@sdk@electron@com@@UEAAPEAXI@Z 0000000180065af0 f i * CIL library *:* CIL module *
 0001:00064af0       ??_GHideUpgradeFreeMeetingButtonParams@proto@sdk@electron@com@@UEAAPEAXI@Z 0000000180065af0 f i electron_sdk.pb.obj
 0001:00064b30       ??_ESetShowInviteDlgTabPageParams@proto@sdk@electron@com@@UEAAPEAXI@Z 0000000180065b30 f i * CIL library *:* CIL module *
 0001:00064b30       ??_GSetShowInviteDlgTabPageParams@proto@sdk@electron@com@@UEAAPEAXI@Z 0000000180065b30 f i electron_sdk.pb.obj
 0001:00064b70       ??_ESetShowH323SubTabPageParams@proto@sdk@electron@com@@UEAAPEAXI@Z 0000000180065b70 f i * CIL library *:* CIL module *
 0001:00064b70       ??_GSetShowH323SubTabPageParams@proto@sdk@electron@com@@UEAAPEAXI@Z 0000000180065b70 f i electron_sdk.pb.obj
 0001:00064bb0       ??_EHideSwitchCameraButtonParams@proto@sdk@electron@com@@UEAAPEAXI@Z 0000000180065bb0 f i * CIL library *:* CIL module *
 0001:00064bb0       ??_GHideSwitchCameraButtonParams@proto@sdk@electron@com@@UEAAPEAXI@Z 0000000180065bb0 f i electron_sdk.pb.obj
 0001:00064bf0       ??_EHideCopyUrlOnInviteWindowParams@proto@sdk@electron@com@@UEAAPEAXI@Z 0000000180065bf0 f i * CIL library *:* CIL module *
 0001:00064bf0       ??_GHideCopyUrlOnInviteWindowParams@proto@sdk@electron@com@@UEAAPEAXI@Z 0000000180065bf0 f i electron_sdk.pb.obj
 0001:00064c30       ??_EHideCopyInvitationOnInviteWindowParams@proto@sdk@electron@com@@UEAAPEAXI@Z 0000000180065c30 f i * CIL library *:* CIL module *
 0001:00064c30       ??_GHideCopyInvitationOnInviteWindowParams@proto@sdk@electron@com@@UEAAPEAXI@Z 0000000180065c30 f i electron_sdk.pb.obj
 0001:00064c70       ??_EHideKeypadButtonOnMeetingWindowParams@proto@sdk@electron@com@@UEAAPEAXI@Z 0000000180065c70 f i * CIL library *:* CIL module *
 0001:00064c70       ??_GHideKeypadButtonOnMeetingWindowParams@proto@sdk@electron@com@@UEAAPEAXI@Z 0000000180065c70 f i electron_sdk.pb.obj
 0001:00064cb0       ??_EHideRemoteControlOnMeetingUIParams@proto@sdk@electron@com@@UEAAPEAXI@Z 0000000180065cb0 f i * CIL library *:* CIL module *
 0001:00064cb0       ??_GHideRemoteControlOnMeetingUIParams@proto@sdk@electron@com@@UEAAPEAXI@Z 0000000180065cb0 f i electron_sdk.pb.obj
 0001:00064cf0       ??_EHideQAOnMeetingUIParams@proto@sdk@electron@com@@UEAAPEAXI@Z 0000000180065cf0 f i * CIL library *:* CIL module *
 0001:00064cf0       ??_GHideQAOnMeetingUIParams@proto@sdk@electron@com@@UEAAPEAXI@Z 0000000180065cf0 f i electron_sdk.pb.obj
 0001:00064d30       ??_EHidePollOnMeetingUIParams@proto@sdk@electron@com@@UEAAPEAXI@Z 0000000180065d30 f i * CIL library *:* CIL module *
 0001:00064d30       ??_GHidePollOnMeetingUIParams@proto@sdk@electron@com@@UEAAPEAXI@Z 0000000180065d30 f i electron_sdk.pb.obj
 0001:00064d70       ??_EEnableInputMeetingPasswordDlgParams@proto@sdk@electron@com@@UEAAPEAXI@Z 0000000180065d70 f i * CIL library *:* CIL module *
 0001:00064d70       ??_GEnableInputMeetingPasswordDlgParams@proto@sdk@electron@com@@UEAAPEAXI@Z 0000000180065d70 f i electron_sdk.pb.obj
 0001:00064db0       ??_EEnableInputMeetingScreenNameDlgParams@proto@sdk@electron@com@@UEAAPEAXI@Z 0000000180065db0 f i * CIL library *:* CIL module *
 0001:00064db0       ??_GEnableInputMeetingScreenNameDlgParams@proto@sdk@electron@com@@UEAAPEAXI@Z 0000000180065db0 f i electron_sdk.pb.obj
 0001:00064df0       ??_ERedirectWebinarNeedRegisterParams@proto@sdk@electron@com@@UEAAPEAXI@Z 0000000180065df0 f i * CIL library *:* CIL module *
 0001:00064df0       ??_GRedirectWebinarNeedRegisterParams@proto@sdk@electron@com@@UEAAPEAXI@Z 0000000180065df0 f i electron_sdk.pb.obj
 0001:00064e30       ??_ERedirectEndOtherMeetingParams@proto@sdk@electron@com@@UEAAPEAXI@Z 0000000180065e30 f i * CIL library *:* CIL module *
 0001:00064e30       ??_GRedirectEndOtherMeetingParams@proto@sdk@electron@com@@UEAAPEAXI@Z 0000000180065e30 f i electron_sdk.pb.obj
 0001:00064e70       ??_EEnableForceAutoStartMyVideoWhenJoinMeetingParams@proto@sdk@electron@com@@UEAAPEAXI@Z 0000000180065e70 f i * CIL library *:* CIL module *
 0001:00064e70       ??_GEnableForceAutoStartMyVideoWhenJoinMeetingParams@proto@sdk@electron@com@@UEAAPEAXI@Z 0000000180065e70 f i electron_sdk.pb.obj
 0001:00064eb0       ??_EEnableForceAutoStopMyVideoWhenJoinMeetingParams@proto@sdk@electron@com@@UEAAPEAXI@Z 0000000180065eb0 f i * CIL library *:* CIL module *
 0001:00064eb0       ??_GEnableForceAutoStopMyVideoWhenJoinMeetingParams@proto@sdk@electron@com@@UEAAPEAXI@Z 0000000180065eb0 f i electron_sdk.pb.obj
 0001:00064ef0       ??_EDisableAutoShowSelectJoinAudioDlgWhenJoinMeetingParams@proto@sdk@electron@com@@UEAAPEAXI@Z 0000000180065ef0 f i * CIL library *:* CIL module *
 0001:00064ef0       ??_GDisableAutoShowSelectJoinAudioDlgWhenJoinMeetingParams@proto@sdk@electron@com@@UEAAPEAXI@Z 0000000180065ef0 f i electron_sdk.pb.obj
 0001:00064f30       ??_EDisableShowJoinMeetingWndParams@proto@sdk@electron@com@@UEAAPEAXI@Z 0000000180065f30 f i * CIL library *:* CIL module *
 0001:00064f30       ??_GDisableShowJoinMeetingWndParams@proto@sdk@electron@com@@UEAAPEAXI@Z 0000000180065f30 f i electron_sdk.pb.obj
 0001:00064f70       ??_EDisableToolbarInviteButtonClickOriginActionParams@proto@sdk@electron@com@@UEAAPEAXI@Z 0000000180065f70 f i * CIL library *:* CIL module *
 0001:00064f70       ??_GDisableToolbarInviteButtonClickOriginActionParams@proto@sdk@electron@com@@UEAAPEAXI@Z 0000000180065f70 f i electron_sdk.pb.obj
 0001:00064fb0       ??_ESetShowVideoOptimizeChkboxParams@proto@sdk@electron@com@@UEAAPEAXI@Z 0000000180065fb0 f i * CIL library *:* CIL module *
 0001:00064fb0       ??_GSetShowVideoOptimizeChkboxParams@proto@sdk@electron@com@@UEAAPEAXI@Z 0000000180065fb0 f i electron_sdk.pb.obj
 0001:00064ff0       ??_EInputMeetingPasswordAndScreenNameParams@proto@sdk@electron@com@@UEAAPEAXI@Z 0000000180065ff0 f i * CIL library *:* CIL module *
 0001:00064ff0       ??_GInputMeetingPasswordAndScreenNameParams@proto@sdk@electron@com@@UEAAPEAXI@Z 0000000180065ff0 f i electron_sdk.pb.obj
 0001:00065030       ??_EInputMeetingIDAndScreenNameParams@proto@sdk@electron@com@@UEAAPEAXI@Z 0000000180066030 f i * CIL library *:* CIL module *
 0001:00065030       ??_GInputMeetingIDAndScreenNameParams@proto@sdk@electron@com@@UEAAPEAXI@Z 0000000180066030 f i electron_sdk.pb.obj
 0001:00065070       ??_EInputMeetingScreenNameParams@proto@sdk@electron@com@@UEAAPEAXI@Z 0000000180066070 f i * CIL library *:* CIL module *
 0001:00065070       ??_GInputMeetingScreenNameParams@proto@sdk@electron@com@@UEAAPEAXI@Z 0000000180066070 f i electron_sdk.pb.obj
 0001:000650b0       ??_EInputWebinarRegisterEmailAndScreenNameParams@proto@sdk@electron@com@@UEAAPEAXI@Z 00000001800660b0 f i * CIL library *:* CIL module *
 0001:000650b0       ??_GInputWebinarRegisterEmailAndScreenNameParams@proto@sdk@electron@com@@UEAAPEAXI@Z 00000001800660b0 f i electron_sdk.pb.obj
 0001:000650f0       ??_ECallOutH323Params@proto@sdk@electron@com@@UEAAPEAXI@Z 00000001800660f0 f i * CIL library *:* CIL module *
 0001:000650f0       ??_GCallOutH323Params@proto@sdk@electron@com@@UEAAPEAXI@Z 00000001800660f0 f i electron_sdk.pb.obj
 0001:00065130       ??_EGetUserInfoByUserIDParams@proto@sdk@electron@com@@UEAAPEAXI@Z 0000000180066130 f i * CIL library *:* CIL module *
 0001:00065130       ??_GGetUserInfoByUserIDParams@proto@sdk@electron@com@@UEAAPEAXI@Z 0000000180066130 f i electron_sdk.pb.obj
 0001:00065170       ??_EGetBotAuthorizedUserInfoByUserIDParams@proto@sdk@electron@com@@UEAAPEAXI@Z 0000000180066170 f i * CIL library *:* CIL module *
 0001:00065170       ??_GGetBotAuthorizedUserInfoByUserIDParams@proto@sdk@electron@com@@UEAAPEAXI@Z 0000000180066170 f i electron_sdk.pb.obj
 0001:000651b0       ??_EGetAuthorizedBotListByUserIDParams@proto@sdk@electron@com@@UEAAPEAXI@Z 00000001800661b0 f i * CIL library *:* CIL module *
 0001:000651b0       ??_GGetAuthorizedBotListByUserIDParams@proto@sdk@electron@com@@UEAAPEAXI@Z 00000001800661b0 f i electron_sdk.pb.obj
 0001:000651f0       ??_ECanStartRecordingParams@proto@sdk@electron@com@@UEAAPEAXI@Z 00000001800661f0 f i * CIL library *:* CIL module *
 0001:000651f0       ??_GCanStartRecordingParams@proto@sdk@electron@com@@UEAAPEAXI@Z 00000001800661f0 f i electron_sdk.pb.obj
 0001:00065230       ??_EIsSupportLocalRecordingParams@proto@sdk@electron@com@@UEAAPEAXI@Z 0000000180066230 f i * CIL library *:* CIL module *
 0001:00065230       ??_GIsSupportLocalRecordingParams@proto@sdk@electron@com@@UEAAPEAXI@Z 0000000180066230 f i electron_sdk.pb.obj
 0001:00065270       ??_EAllowLocalRecordingParams@proto@sdk@electron@com@@UEAAPEAXI@Z 0000000180066270 f i * CIL library *:* CIL module *
 0001:00065270       ??_GAllowLocalRecordingParams@proto@sdk@electron@com@@UEAAPEAXI@Z 0000000180066270 f i electron_sdk.pb.obj
 0001:000652b0       ??_EDisAllowLocalRecordingParams@proto@sdk@electron@com@@UEAAPEAXI@Z 00000001800662b0 f i * CIL library *:* CIL module *
 0001:000652b0       ??_GDisAllowLocalRecordingParams@proto@sdk@electron@com@@UEAAPEAXI@Z 00000001800662b0 f i electron_sdk.pb.obj
 0001:000652f0       ??_EStartAppShareParams@proto@sdk@electron@com@@UEAAPEAXI@Z 00000001800662f0 f i * CIL library *:* CIL module *
 0001:000652f0       ??_GStartAppShareParams@proto@sdk@electron@com@@UEAAPEAXI@Z 00000001800662f0 f i electron_sdk.pb.obj
 0001:00065330       ??_EStartMonitorShareParams@proto@sdk@electron@com@@UEAAPEAXI@Z 0000000180066330 f i * CIL library *:* CIL module *
 0001:00065330       ??_GStartMonitorShareParams@proto@sdk@electron@com@@UEAAPEAXI@Z 0000000180066330 f i electron_sdk.pb.obj
 0001:00065370       ??_EMuteVideoParams@proto@sdk@electron@com@@UEAAPEAXI@Z 0000000180066370 f i * CIL library *:* CIL module *
 0001:00065370       ??_GMuteVideoParams@proto@sdk@electron@com@@UEAAPEAXI@Z 0000000180066370 f i electron_sdk.pb.obj
 0001:000653b0       ??_EUnMuteVideoParams@proto@sdk@electron@com@@UEAAPEAXI@Z 00000001800663b0 f i * CIL library *:* CIL module *
 0001:000653b0       ??_GUnMuteVideoParams@proto@sdk@electron@com@@UEAAPEAXI@Z 00000001800663b0 f i electron_sdk.pb.obj
 0001:000653f0       ??_EPinVideoToFirstViewParams@proto@sdk@electron@com@@UEAAPEAXI@Z 00000001800663f0 f i * CIL library *:* CIL module *
 0001:000653f0       ??_GPinVideoToFirstViewParams@proto@sdk@electron@com@@UEAAPEAXI@Z 00000001800663f0 f i electron_sdk.pb.obj
 0001:00065430       ??_ESpotlightVideoParams@proto@sdk@electron@com@@UEAAPEAXI@Z 0000000180066430 f i * CIL library *:* CIL module *
 0001:00065430       ??_GSpotlightVideoParams@proto@sdk@electron@com@@UEAAPEAXI@Z 0000000180066430 f i electron_sdk.pb.obj
 0001:00065470       ??_EHideOrShowNoVideoUserOnVideoWallParams@proto@sdk@electron@com@@UEAAPEAXI@Z 0000000180066470 f i * CIL library *:* CIL module *
 0001:00065470       ??_GHideOrShowNoVideoUserOnVideoWallParams@proto@sdk@electron@com@@UEAAPEAXI@Z 0000000180066470 f i electron_sdk.pb.obj
 0001:000654b0       ??_ECreateRendererParams@proto@sdk@electron@com@@UEAAPEAXI@Z 00000001800664b0 f i * CIL library *:* CIL module *
 0001:000654b0       ??_GCreateRendererParams@proto@sdk@electron@com@@UEAAPEAXI@Z 00000001800664b0 f i electron_sdk.pb.obj
 0001:000654f0       ??_EDestroyRendererParams@proto@sdk@electron@com@@UEAAPEAXI@Z 00000001800664f0 f i * CIL library *:* CIL module *
 0001:000654f0       ??_GDestroyRendererParams@proto@sdk@electron@com@@UEAAPEAXI@Z 00000001800664f0 f i electron_sdk.pb.obj
 0001:00065530       ??_ESubscribeParams@proto@sdk@electron@com@@UEAAPEAXI@Z 0000000180066530 f i * CIL library *:* CIL module *
 0001:00065530       ??_GSubscribeParams@proto@sdk@electron@com@@UEAAPEAXI@Z 0000000180066530 f i electron_sdk.pb.obj
 0001:00065570       ??_EUnSubscribeParams@proto@sdk@electron@com@@UEAAPEAXI@Z 0000000180066570 f i * CIL library *:* CIL module *
 0001:00065570       ??_GUnSubscribeParams@proto@sdk@electron@com@@UEAAPEAXI@Z 0000000180066570 f i electron_sdk.pb.obj
 0001:000655b0       ??_ESetRawDataResolutionParams@proto@sdk@electron@com@@UEAAPEAXI@Z 00000001800665b0 f i * CIL library *:* CIL module *
 0001:000655b0       ??_GSetRawDataResolutionParams@proto@sdk@electron@com@@UEAAPEAXI@Z 00000001800665b0 f i electron_sdk.pb.obj
 0001:000655f0       ??_EGetResolutionParams@proto@sdk@electron@com@@UEAAPEAXI@Z 00000001800665f0 f i * CIL library *:* CIL module *
 0001:000655f0       ??_GGetResolutionParams@proto@sdk@electron@com@@UEAAPEAXI@Z 00000001800665f0 f i electron_sdk.pb.obj
 0001:00065630       ??_EGetRawDataTypeParams@proto@sdk@electron@com@@UEAAPEAXI@Z 0000000180066630 f i * CIL library *:* CIL module *
 0001:00065630       ??_GGetRawDataTypeParams@proto@sdk@electron@com@@UEAAPEAXI@Z 0000000180066630 f i electron_sdk.pb.obj
 0001:00065670       ??_EGetSubscribeIdParams@proto@sdk@electron@com@@UEAAPEAXI@Z 0000000180066670 f i * CIL library *:* CIL module *
 0001:00065670       ??_GGetSubscribeIdParams@proto@sdk@electron@com@@UEAAPEAXI@Z 0000000180066670 f i electron_sdk.pb.obj
 0001:000656b0       ??_EEnableZoomAuthRealNameMeetingUIShownParams@proto@sdk@electron@com@@UEAAPEAXI@Z 00000001800666b0 f i * CIL library *:* CIL module *
 0001:000656b0       ??_GEnableZoomAuthRealNameMeetingUIShownParams@proto@sdk@electron@com@@UEAAPEAXI@Z 00000001800666b0 f i electron_sdk.pb.obj
 0001:000656f0       ??_ERetrieveParams@proto@sdk@electron@com@@UEAAPEAXI@Z 00000001800666f0 f i * CIL library *:* CIL module *
 0001:000656f0       ??_GRetrieveParams@proto@sdk@electron@com@@UEAAPEAXI@Z 00000001800666f0 f i electron_sdk.pb.obj
 0001:00065730       ??_EVerifyParams@proto@sdk@electron@com@@UEAAPEAXI@Z 0000000180066730 f i * CIL library *:* CIL module *
 0001:00065730       ??_GVerifyParams@proto@sdk@electron@com@@UEAAPEAXI@Z 0000000180066730 f i electron_sdk.pb.obj
 0001:00065770       ??_ESetDefaultCellPhoneInfoParams@proto@sdk@electron@com@@UEAAPEAXI@Z 0000000180066770 f i * CIL library *:* CIL module *
 0001:00065770       ??_GSetDefaultCellPhoneInfoParams@proto@sdk@electron@com@@UEAAPEAXI@Z 0000000180066770 f i electron_sdk.pb.obj
 0001:000657b0       ??_EEnableAlwaysShowMeetingControlsParams@proto@sdk@electron@com@@UEAAPEAXI@Z 00000001800667b0 f i * CIL library *:* CIL module *
 0001:000657b0       ??_GEnableAlwaysShowMeetingControlsParams@proto@sdk@electron@com@@UEAAPEAXI@Z 00000001800667b0 f i electron_sdk.pb.obj
 0001:000657f0       ??_ESelectMicParams@proto@sdk@electron@com@@UEAAPEAXI@Z 00000001800667f0 f i * CIL library *:* CIL module *
 0001:000657f0       ??_GSelectMicParams@proto@sdk@electron@com@@UEAAPEAXI@Z 00000001800667f0 f i electron_sdk.pb.obj
 0001:00065830       ??_ESelectSpeakerParams@proto@sdk@electron@com@@UEAAPEAXI@Z 0000000180066830 f i * CIL library *:* CIL module *
 0001:00065830       ??_GSelectSpeakerParams@proto@sdk@electron@com@@UEAAPEAXI@Z 0000000180066830 f i electron_sdk.pb.obj
 0001:00065870       ??_EEnableAutoJoinAudioParams@proto@sdk@electron@com@@UEAAPEAXI@Z 0000000180066870 f i * CIL library *:* CIL module *
 0001:00065870       ??_GEnableAutoJoinAudioParams@proto@sdk@electron@com@@UEAAPEAXI@Z 0000000180066870 f i electron_sdk.pb.obj
 0001:000658b0       ??_EEnableAutoAdjustMicParams@proto@sdk@electron@com@@UEAAPEAXI@Z 00000001800668b0 f i * CIL library *:* CIL module *
 0001:000658b0       ??_GEnableAutoAdjustMicParams@proto@sdk@electron@com@@UEAAPEAXI@Z 00000001800668b0 f i electron_sdk.pb.obj
 0001:000658f0       ??_EEnableStereoAudioParams@proto@sdk@electron@com@@UEAAPEAXI@Z 00000001800668f0 f i * CIL library *:* CIL module *
 0001:000658f0       ??_GEnableStereoAudioParams@proto@sdk@electron@com@@UEAAPEAXI@Z 00000001800668f0 f i electron_sdk.pb.obj
 0001:00065930       ??_EEnableMicOriginalInputParams@proto@sdk@electron@com@@UEAAPEAXI@Z 0000000180066930 f i * CIL library *:* CIL module *
 0001:00065930       ??_GEnableMicOriginalInputParams@proto@sdk@electron@com@@UEAAPEAXI@Z 0000000180066930 f i electron_sdk.pb.obj
 0001:00065970       ??_EEnableHoldSpaceKeyToSpeakParams@proto@sdk@electron@com@@UEAAPEAXI@Z 0000000180066970 f i * CIL library *:* CIL module *
 0001:00065970       ??_GEnableHoldSpaceKeyToSpeakParams@proto@sdk@electron@com@@UEAAPEAXI@Z 0000000180066970 f i electron_sdk.pb.obj
 0001:000659b0       ??_EEnableAlwaysMuteMicWhenJoinVoipParams@proto@sdk@electron@com@@UEAAPEAXI@Z 00000001800669b0 f i * CIL library *:* CIL module *
 0001:000659b0       ??_GEnableAlwaysMuteMicWhenJoinVoipParams@proto@sdk@electron@com@@UEAAPEAXI@Z 00000001800669b0 f i electron_sdk.pb.obj
 0001:000659f0       ??_EEnableSuppressAudioNotifyParams@proto@sdk@electron@com@@UEAAPEAXI@Z 00000001800669f0 f i * CIL library *:* CIL module *
 0001:000659f0       ??_GEnableSuppressAudioNotifyParams@proto@sdk@electron@com@@UEAAPEAXI@Z 00000001800669f0 f i electron_sdk.pb.obj
 0001:00065a30       ??_ESetEchoCancellationLevelParams@proto@sdk@electron@com@@UEAAPEAXI@Z 0000000180066a30 f i * CIL library *:* CIL module *
 0001:00065a30       ??_GSetEchoCancellationLevelParams@proto@sdk@electron@com@@UEAAPEAXI@Z 0000000180066a30 f i electron_sdk.pb.obj
 0001:00065a70       ??_ESetMicVolParams@proto@sdk@electron@com@@UEAAPEAXI@Z 0000000180066a70 f i * CIL library *:* CIL module *
 0001:00065a70       ??_GSetMicVolParams@proto@sdk@electron@com@@UEAAPEAXI@Z 0000000180066a70 f i electron_sdk.pb.obj
 0001:00065ab0       ??_ESetSpeakerVolParams@proto@sdk@electron@com@@UEAAPEAXI@Z 0000000180066ab0 f i * CIL library *:* CIL module *
 0001:00065ab0       ??_GSetSpeakerVolParams@proto@sdk@electron@com@@UEAAPEAXI@Z 0000000180066ab0 f i electron_sdk.pb.obj
 0001:00065af0       ??_EEnableDualScreenModeParams@proto@sdk@electron@com@@UEAAPEAXI@Z 0000000180066af0 f i * CIL library *:* CIL module *
 0001:00065af0       ??_GEnableDualScreenModeParams@proto@sdk@electron@com@@UEAAPEAXI@Z 0000000180066af0 f i electron_sdk.pb.obj
 0001:00065b30       ??_ETurnOffAeroModeInSharingParams@proto@sdk@electron@com@@UEAAPEAXI@Z 0000000180066b30 f i * CIL library *:* CIL module *
 0001:00065b30       ??_GTurnOffAeroModeInSharingParams@proto@sdk@electron@com@@UEAAPEAXI@Z 0000000180066b30 f i electron_sdk.pb.obj
 0001:00065b70       ??_EEnableAutoFitToWindowWhenViewSharingParams@proto@sdk@electron@com@@UEAAPEAXI@Z 0000000180066b70 f i * CIL library *:* CIL module *
 0001:00065b70       ??_GEnableAutoFitToWindowWhenViewSharingParams@proto@sdk@electron@com@@UEAAPEAXI@Z 0000000180066b70 f i electron_sdk.pb.obj
 0001:00065bb0       ??_EEnableAutoFullScreenVideoWhenJoinMeetingParams@proto@sdk@electron@com@@UEAAPEAXI@Z 0000000180066bb0 f i * CIL library *:* CIL module *
 0001:00065bb0       ??_GEnableAutoFullScreenVideoWhenJoinMeetingParams@proto@sdk@electron@com@@UEAAPEAXI@Z 0000000180066bb0 f i electron_sdk.pb.obj
 0001:00065bf0       ??_EEnableSplitScreenModeParams@proto@sdk@electron@com@@UEAAPEAXI@Z 0000000180066bf0 f i * CIL library *:* CIL module *
 0001:00065bf0       ??_GEnableSplitScreenModeParams@proto@sdk@electron@com@@UEAAPEAXI@Z 0000000180066bf0 f i electron_sdk.pb.obj
 0001:00065c30       ??_EEnableAutoFullScreenVideoWhenViewShareParams@proto@sdk@electron@com@@UEAAPEAXI@Z 0000000180066c30 f i * CIL library *:* CIL module *
 0001:00065c30       ??_GEnableAutoFullScreenVideoWhenViewShareParams@proto@sdk@electron@com@@UEAAPEAXI@Z 0000000180066c30 f i electron_sdk.pb.obj
 0001:00065d10       ??_EEnableDisplayReminderWindowWhenExitParams@proto@sdk@electron@com@@UEAAPEAXI@Z 0000000180066d10 f i * CIL library *:* CIL module *
 0001:00065d10       ??_GEnableDisplayReminderWindowWhenExitParams@proto@sdk@electron@com@@UEAAPEAXI@Z 0000000180066d10 f i electron_sdk.pb.obj
 0001:00065d50       ??_EEnableShowMyMeetingElapseTimeParams@proto@sdk@electron@com@@UEAAPEAXI@Z 0000000180066d50 f i * CIL library *:* CIL module *
 0001:00065d50       ??_GEnableShowMyMeetingElapseTimeParams@proto@sdk@electron@com@@UEAAPEAXI@Z 0000000180066d50 f i electron_sdk.pb.obj
 0001:00065d90       ??_EEnableAccelerateGPUWhenShareParams@proto@sdk@electron@com@@UEAAPEAXI@Z 0000000180066d90 f i * CIL library *:* CIL module *
 0001:00065d90       ??_GEnableAccelerateGPUWhenShareParams@proto@sdk@electron@com@@UEAAPEAXI@Z 0000000180066d90 f i electron_sdk.pb.obj
 0001:00065dd0       ??_EEnableRemoteControlAllApplicationsParams@proto@sdk@electron@com@@UEAAPEAXI@Z 0000000180066dd0 f i * CIL library *:* CIL module *
 0001:00065dd0       ??_GEnableRemoteControlAllApplicationsParams@proto@sdk@electron@com@@UEAAPEAXI@Z 0000000180066dd0 f i electron_sdk.pb.obj
 0001:00065e10       ??_ESetRecordingPathParams@proto@sdk@electron@com@@UEAAPEAXI@Z 0000000180066e10 f i * CIL library *:* CIL module *
 0001:00065e10       ??_GSetRecordingPathParams@proto@sdk@electron@com@@UEAAPEAXI@Z 0000000180066e10 f i electron_sdk.pb.obj
 0001:00065e50       ??_EEnableSelectRecordFileLocationAfterMeetingParams@proto@sdk@electron@com@@UEAAPEAXI@Z 0000000180066e50 f i * CIL library *:* CIL module *
 0001:00065e50       ??_GEnableSelectRecordFileLocationAfterMeetingParams@proto@sdk@electron@com@@UEAAPEAXI@Z 0000000180066e50 f i electron_sdk.pb.obj
 0001:00065e90       ??_EEnableMultiAudioStreamRecordParams@proto@sdk@electron@com@@UEAAPEAXI@Z 0000000180066e90 f i * CIL library *:* CIL module *
 0001:00065e90       ??_GEnableMultiAudioStreamRecordParams@proto@sdk@electron@com@@UEAAPEAXI@Z 0000000180066e90 f i electron_sdk.pb.obj
 0001:00065ed0       ??_EEnableAddTimestampWatermarkParams@proto@sdk@electron@com@@UEAAPEAXI@Z 0000000180066ed0 f i * CIL library *:* CIL module *
 0001:00065ed0       ??_GEnableAddTimestampWatermarkParams@proto@sdk@electron@com@@UEAAPEAXI@Z 0000000180066ed0 f i electron_sdk.pb.obj
 0001:00065f10       ??_EEnableOptimizeFor3rdPartyVideoEditorParams@proto@sdk@electron@com@@UEAAPEAXI@Z 0000000180066f10 f i * CIL library *:* CIL module *
 0001:00065f10       ??_GEnableOptimizeFor3rdPartyVideoEditorParams@proto@sdk@electron@com@@UEAAPEAXI@Z 0000000180066f10 f i electron_sdk.pb.obj
 0001:00065f50       ??_EEnableShowVideoThumbnailWhenShareParams@proto@sdk@electron@com@@UEAAPEAXI@Z 0000000180066f50 f i * CIL library *:* CIL module *
 0001:00065f50       ??_GEnableShowVideoThumbnailWhenShareParams@proto@sdk@electron@com@@UEAAPEAXI@Z 0000000180066f50 f i electron_sdk.pb.obj
 0001:00065f90       ??_EEnablePlaceVideoNextToShareInRecordParams@proto@sdk@electron@com@@UEAAPEAXI@Z 0000000180066f90 f i * CIL library *:* CIL module *
 0001:00065f90       ??_GEnablePlaceVideoNextToShareInRecordParams@proto@sdk@electron@com@@UEAAPEAXI@Z 0000000180066f90 f i electron_sdk.pb.obj
 0001:00065fd0       ??_EDisableAdvancedFeatures4GeneralSettingParams@proto@sdk@electron@com@@UEAAPEAXI@Z 0000000180066fd0 f i * CIL library *:* CIL module *
 0001:00065fd0       ??_GDisableAdvancedFeatures4GeneralSettingParams@proto@sdk@electron@com@@UEAAPEAXI@Z 0000000180066fd0 f i electron_sdk.pb.obj
 0001:00066010       ??_EDisableAccountSettingTabPageParams@proto@sdk@electron@com@@UEAAPEAXI@Z 0000000180067010 f i * CIL library *:* CIL module *
 0001:00066010       ??_GDisableAccountSettingTabPageParams@proto@sdk@electron@com@@UEAAPEAXI@Z 0000000180067010 f i electron_sdk.pb.obj
 0001:00066050       ??_EHideAutoCopyInviteLinkCheckBoxParams@proto@sdk@electron@com@@UEAAPEAXI@Z 0000000180067050 f i * CIL library *:* CIL module *
 0001:00066050       ??_GHideAutoCopyInviteLinkCheckBoxParams@proto@sdk@electron@com@@UEAAPEAXI@Z 0000000180067050 f i electron_sdk.pb.obj
 0001:00066090       ??_EConfigToShowUrlLinksInSettingParams@proto@sdk@electron@com@@UEAAPEAXI@Z 0000000180067090 f i * CIL library *:* CIL module *
 0001:00066090       ??_GConfigToShowUrlLinksInSettingParams@proto@sdk@electron@com@@UEAAPEAXI@Z 0000000180067090 f i electron_sdk.pb.obj
 0001:000660d0       ??_EConfSettingDialogShownTabPageParams@proto@sdk@electron@com@@UEAAPEAXI@Z 00000001800670d0 f i * CIL library *:* CIL module *
 0001:000660d0       ??_GConfSettingDialogShownTabPageParams@proto@sdk@electron@com@@UEAAPEAXI@Z 00000001800670d0 f i electron_sdk.pb.obj
 0001:00066110       ??_ESelectVideoCameraParams@proto@sdk@electron@com@@UEAAPEAXI@Z 0000000180067110 f i * CIL library *:* CIL module *
 0001:00066110       ??_GSelectVideoCameraParams@proto@sdk@electron@com@@UEAAPEAXI@Z 0000000180067110 f i electron_sdk.pb.obj
 0001:00066150       ??_EEnableVideoMirrorEffectParams@proto@sdk@electron@com@@UEAAPEAXI@Z 0000000180067150 f i * CIL library *:* CIL module *
 0001:00066150       ??_GEnableVideoMirrorEffectParams@proto@sdk@electron@com@@UEAAPEAXI@Z 0000000180067150 f i electron_sdk.pb.obj
 0001:00066190       ??_EEnableFaceBeautyEffectParams@proto@sdk@electron@com@@UEAAPEAXI@Z 0000000180067190 f i * CIL library *:* CIL module *
 0001:00066190       ??_GEnableFaceBeautyEffectParams@proto@sdk@electron@com@@UEAAPEAXI@Z 0000000180067190 f i electron_sdk.pb.obj
 0001:000661d0       ??_EEnableHDVideoParams@proto@sdk@electron@com@@UEAAPEAXI@Z 00000001800671d0 f i * CIL library *:* CIL module *
 0001:000661d0       ??_GEnableHDVideoParams@proto@sdk@electron@com@@UEAAPEAXI@Z 00000001800671d0 f i electron_sdk.pb.obj
 0001:00066210       ??_EEnableAlwaysShowNameOnVideoParams@proto@sdk@electron@com@@UEAAPEAXI@Z 0000000180067210 f i * CIL library *:* CIL module *
 0001:00066210       ??_GEnableAlwaysShowNameOnVideoParams@proto@sdk@electron@com@@UEAAPEAXI@Z 0000000180067210 f i electron_sdk.pb.obj
 0001:00066250       ??_EEnableVideoPreviewDialogParams@proto@sdk@electron@com@@UEAAPEAXI@Z 0000000180067250 f i * CIL library *:* CIL module *
 0001:00066250       ??_GEnableVideoPreviewDialogParams@proto@sdk@electron@com@@UEAAPEAXI@Z 0000000180067250 f i electron_sdk.pb.obj
 0001:00066290       ??_EEnableAutoTurnOffVideoWhenJoinMeetingParams@proto@sdk@electron@com@@UEAAPEAXI@Z 0000000180067290 f i * CIL library *:* CIL module *
 0001:00066290       ??_GEnableAutoTurnOffVideoWhenJoinMeetingParams@proto@sdk@electron@com@@UEAAPEAXI@Z 0000000180067290 f i electron_sdk.pb.obj
 0001:000662d0       ??_EEnableSpotlightSelfParams@proto@sdk@electron@com@@UEAAPEAXI@Z 00000001800672d0 f i * CIL library *:* CIL module *
 0001:000662d0       ??_GEnableSpotlightSelfParams@proto@sdk@electron@com@@UEAAPEAXI@Z 00000001800672d0 f i electron_sdk.pb.obj
 0001:00066310       ??_EEnableHardwareEncodeParams@proto@sdk@electron@com@@UEAAPEAXI@Z 0000000180067310 f i * CIL library *:* CIL module *
 0001:00066310       ??_GEnableHardwareEncodeParams@proto@sdk@electron@com@@UEAAPEAXI@Z 0000000180067310 f i electron_sdk.pb.obj
 0001:00066350       ??_EIsHardwareEncodeEnabledParams@proto@sdk@electron@com@@UEAAPEAXI@Z 0000000180067350 f i * CIL library *:* CIL module *
 0001:00066350       ??_GIsHardwareEncodeEnabledParams@proto@sdk@electron@com@@UEAAPEAXI@Z 0000000180067350 f i electron_sdk.pb.obj
 0001:00066390       ??_EEnable49VideoesInGallaryViewParams@proto@sdk@electron@com@@UEAAPEAXI@Z 0000000180067390 f i * CIL library *:* CIL module *
 0001:00066390       ??_GEnable49VideoesInGallaryViewParams@proto@sdk@electron@com@@UEAAPEAXI@Z 0000000180067390 f i electron_sdk.pb.obj
 0001:000663d0       ??_EEnableHideNoVideoUsersOnWallViewParams@proto@sdk@electron@com@@UEAAPEAXI@Z 00000001800673d0 f i * CIL library *:* CIL module *
 0001:000663d0       ??_GEnableHideNoVideoUsersOnWallViewParams@proto@sdk@electron@com@@UEAAPEAXI@Z 00000001800673d0 f i electron_sdk.pb.obj
 0001:00066410       ??_EGenerateSSOLoginWebURLParams@proto@sdk@electron@com@@UEAAPEAXI@Z 0000000180067410 f i * CIL library *:* CIL module *
 0001:00066410       ??_GGenerateSSOLoginWebURLParams@proto@sdk@electron@com@@UEAAPEAXI@Z 0000000180067410 f i electron_sdk.pb.obj
 0001:00066450       ??_ESSOLoginWithWebUriProtocolParams@proto@sdk@electron@com@@UEAAPEAXI@Z 0000000180067450 f i * CIL library *:* CIL module *
 0001:00066450       ??_GSSOLoginWithWebUriProtocolParams@proto@sdk@electron@com@@UEAAPEAXI@Z 0000000180067450 f i electron_sdk.pb.obj
 0001:00066490       ??_EShowAANPanelParams@proto@sdk@electron@com@@UEAAPEAXI@Z 0000000180067490 f i * CIL library *:* CIL module *
 0001:00066490       ??_GShowAANPanelParams@proto@sdk@electron@com@@UEAAPEAXI@Z 0000000180067490 f i electron_sdk.pb.obj
 0001:000664d0       ??_EEnableInviteLinkOnMeetingUIParams@proto@sdk@electron@com@@UEAAPEAXI@Z 00000001800674d0 f i * CIL library *:* CIL module *
 0001:000664d0       ??_GEnableInviteLinkOnMeetingUIParams@proto@sdk@electron@com@@UEAAPEAXI@Z 00000001800674d0 f i electron_sdk.pb.obj
 0001:00066510       ??_ESetMeetingTopicParams@proto@sdk@electron@com@@UEAAPEAXI@Z 0000000180067510 f i * CIL library *:* CIL module *
 0001:00066510       ??_GSetMeetingTopicParams@proto@sdk@electron@com@@UEAAPEAXI@Z 0000000180067510 f i electron_sdk.pb.obj
 0001:00066550       ??_ESetCustomizedCloudRecordingMgrUrlParams@proto@sdk@electron@com@@UEAAPEAXI@Z 0000000180067550 f i * CIL library *:* CIL module *
 0001:00066550       ??_GSetCustomizedCloudRecordingMgrUrlParams@proto@sdk@electron@com@@UEAAPEAXI@Z 0000000180067550 f i electron_sdk.pb.obj
 0001:00066590       ??_ESetCustomizedInvitationDomainParams@proto@sdk@electron@com@@UEAAPEAXI@Z 0000000180067590 f i * CIL library *:* CIL module *
 0001:00066590       ??_GSetCustomizedInvitationDomainParams@proto@sdk@electron@com@@UEAAPEAXI@Z 0000000180067590 f i electron_sdk.pb.obj
 0001:000665d0       ??_ESetCustomizedPollingUrlParams@proto@sdk@electron@com@@UEAAPEAXI@Z 00000001800675d0 f i * CIL library *:* CIL module *
 0001:000665d0       ??_GSetCustomizedPollingUrlParams@proto@sdk@electron@com@@UEAAPEAXI@Z 00000001800675d0 f i electron_sdk.pb.obj
 0001:00066610       ??_ESetAudioShareModeParams@proto@sdk@electron@com@@UEAAPEAXI@Z 0000000180067610 f i * CIL library *:* CIL module *
 0001:00066610       ??_GSetAudioShareModeParams@proto@sdk@electron@com@@UEAAPEAXI@Z 0000000180067610 f i electron_sdk.pb.obj
 0001:00066650       ??_EStartLiveStreamParams@proto@sdk@electron@com@@UEAAPEAXI@Z 0000000180067650 f i * CIL library *:* CIL module *
 0001:00066650       ??_GStartLiveStreamParams@proto@sdk@electron@com@@UEAAPEAXI@Z 0000000180067650 f i electron_sdk.pb.obj
 0001:00066690       ??_EStartLiveStreamWithSteamingURLParams@proto@sdk@electron@com@@UEAAPEAXI@Z 0000000180067690 f i * CIL library *:* CIL module *
 0001:00066690       ??_GStartLiveStreamWithSteamingURLParams@proto@sdk@electron@com@@UEAAPEAXI@Z 0000000180067690 f i electron_sdk.pb.obj
 0001:000666d0       ??_EStartRawLiveStreamParams@proto@sdk@electron@com@@UEAAPEAXI@Z 00000001800676d0 f i * CIL library *:* CIL module *
 0001:000666d0       ??_GStartRawLiveStreamParams@proto@sdk@electron@com@@UEAAPEAXI@Z 00000001800676d0 f i electron_sdk.pb.obj
 0001:000667c0       ??_EGetLiveStreamItemInfoParams@proto@sdk@electron@com@@UEAAPEAXI@Z 00000001800677c0 f i * CIL library *:* CIL module *
 0001:000667c0       ??_GGetLiveStreamItemInfoParams@proto@sdk@electron@com@@UEAAPEAXI@Z 00000001800677c0 f i electron_sdk.pb.obj
 0001:00066800       ??_ERequestRawLiveStreamParams@proto@sdk@electron@com@@UEAAPEAXI@Z 0000000180067800 f i * CIL library *:* CIL module *
 0001:00066800       ??_GRequestRawLiveStreamParams@proto@sdk@electron@com@@UEAAPEAXI@Z 0000000180067800 f i electron_sdk.pb.obj
 0001:000668f0       ??_ERemoveRawLiveStreamPrivilegeParams@proto@sdk@electron@com@@UEAAPEAXI@Z 00000001800678f0 f i * CIL library *:* CIL module *
 0001:000668f0       ??_GRemoveRawLiveStreamPrivilegeParams@proto@sdk@electron@com@@UEAAPEAXI@Z 00000001800678f0 f i electron_sdk.pb.obj
 0001:00066930       ??_EEnableLiveStreamReminderParams@proto@sdk@electron@com@@UEAAPEAXI@Z 0000000180067930 f i * CIL library *:* CIL module *
 0001:00066930       ??_GEnableLiveStreamReminderParams@proto@sdk@electron@com@@UEAAPEAXI@Z 0000000180067930 f i electron_sdk.pb.obj
 0001:00066970       ??_ESetPipeInitParams@proto@sdk@electron@com@@UEAAPEAXI@Z 0000000180067970 f i * CIL library *:* CIL module *
 0001:00066970       ??_GSetPipeInitParams@proto@sdk@electron@com@@UEAAPEAXI@Z 0000000180067970 f i electron_sdk.pb.obj
 0001:000669b0       ??_ESetParticipantsChatPrivilegeParams@proto@sdk@electron@com@@UEAAPEAXI@Z 00000001800679b0 f i * CIL library *:* CIL module *
 0001:000669b0       ??_GSetParticipantsChatPrivilegeParams@proto@sdk@electron@com@@UEAAPEAXI@Z 00000001800679b0 f i electron_sdk.pb.obj
 0001:000669f0       ??_EChatMessageIDParams@proto@sdk@electron@com@@UEAAPEAXI@Z 00000001800679f0 f i * CIL library *:* CIL module *
 0001:000669f0       ??_GChatMessageIDParams@proto@sdk@electron@com@@UEAAPEAXI@Z 00000001800679f0 f i electron_sdk.pb.obj
 0001:00066a30       ??_ESetChatMessageBuilderParams@proto@sdk@electron@com@@UEAAPEAXI@Z 0000000180067a30 f i * CIL library *:* CIL module *
 0001:00066a30       ??_GSetChatMessageBuilderParams@proto@sdk@electron@com@@UEAAPEAXI@Z 0000000180067a30 f i electron_sdk.pb.obj
 0001:00066a70       ??_ETransferFileParams@proto@sdk@electron@com@@UEAAPEAXI@Z 0000000180067a70 f i * CIL library *:* CIL module *
 0001:00066a70       ??_GTransferFileParams@proto@sdk@electron@com@@UEAAPEAXI@Z 0000000180067a70 f i electron_sdk.pb.obj
 0001:00066ab0       ??_EStartReceiveParams@proto@sdk@electron@com@@UEAAPEAXI@Z 0000000180067ab0 f i * CIL library *:* CIL module *
 0001:00066ab0       ??_GStartReceiveParams@proto@sdk@electron@com@@UEAAPEAXI@Z 0000000180067ab0 f i electron_sdk.pb.obj
 0001:00066af0       ??_EEnableWaitingRoomOnEntryParams@proto@sdk@electron@com@@UEAAPEAXI@Z 0000000180067af0 f i * CIL library *:* CIL module *
 0001:00066af0       ??_GEnableWaitingRoomOnEntryParams@proto@sdk@electron@com@@UEAAPEAXI@Z 0000000180067af0 f i electron_sdk.pb.obj
 0001:00066b30       ??_EGetWaitingRoomUserInfoByIDParams@proto@sdk@electron@com@@UEAAPEAXI@Z 0000000180067b30 f i * CIL library *:* CIL module *
 0001:00066b30       ??_GGetWaitingRoomUserInfoByIDParams@proto@sdk@electron@com@@UEAAPEAXI@Z 0000000180067b30 f i electron_sdk.pb.obj
 0001:00066b70       ??_EAdmitToMeetingParams@proto@sdk@electron@com@@UEAAPEAXI@Z 0000000180067b70 f i * CIL library *:* CIL module *
 0001:00066b70       ??_GAdmitToMeetingParams@proto@sdk@electron@com@@UEAAPEAXI@Z 0000000180067b70 f i electron_sdk.pb.obj
 0001:00066bb0       ??_EPutInWaitingRoomParams@proto@sdk@electron@com@@UEAAPEAXI@Z 0000000180067bb0 f i * CIL library *:* CIL module *
 0001:00066bb0       ??_GPutInWaitingRoomParams@proto@sdk@electron@com@@UEAAPEAXI@Z 0000000180067bb0 f i electron_sdk.pb.obj
 0001:00066bf0       ??_ERenameUserParams@proto@sdk@electron@com@@UEAAPEAXI@Z 0000000180067bf0 f i * CIL library *:* CIL module *
 0001:00066bf0       ??_GRenameUserParams@proto@sdk@electron@com@@UEAAPEAXI@Z 0000000180067bf0 f i electron_sdk.pb.obj
 0001:00066c30       ??_EExpelUserParams@proto@sdk@electron@com@@UEAAPEAXI@Z 0000000180067c30 f i * CIL library *:* CIL module *
 0001:00066c30       ??_GExpelUserParams@proto@sdk@electron@com@@UEAAPEAXI@Z 0000000180067c30 f i electron_sdk.pb.obj
 0001:00066c70       ??_EAllowParticipantsToRequestCloudRecordingParams@proto@sdk@electron@com@@UEAAPEAXI@Z 0000000180067c70 f i * CIL library *:* CIL module *
 0001:00066c70       ??_GAllowParticipantsToRequestCloudRecordingParams@proto@sdk@electron@com@@UEAAPEAXI@Z 0000000180067c70 f i electron_sdk.pb.obj
 0001:00066cb0       ??_EDenyRequestStartCloudRecordingParams@proto@sdk@electron@com@@UEAAPEAXI@Z 0000000180067cb0 f i * CIL library *:* CIL module *
 0001:00066cb0       ??_GDenyRequestStartCloudRecordingParams@proto@sdk@electron@com@@UEAAPEAXI@Z 0000000180067cb0 f i electron_sdk.pb.obj
 0001:00066cf0       ??_ESetEnableOptionParams@proto@sdk@electron@com@@UEAAPEAXI@Z 0000000180067cf0 f i * CIL library *:* CIL module *
 0001:00066cf0       ??_GSetEnableOptionParams@proto@sdk@electron@com@@UEAAPEAXI@Z 0000000180067cf0 f i electron_sdk.pb.obj
 0001:00066d30       ??_EDeclineEnableParams@proto@sdk@electron@com@@UEAAPEAXI@Z 0000000180067d30 f i * CIL library *:* CIL module *
 0001:00066d30       ??_GDeclineEnableParams@proto@sdk@electron@com@@UEAAPEAXI@Z 0000000180067d30 f i electron_sdk.pb.obj
 0001:00066d70       ??_EInputScreenNameParams@proto@sdk@electron@com@@UEAAPEAXI@Z 0000000180067d70 f i * CIL library *:* CIL module *
 0001:00066d70       ??_GInputScreenNameParams@proto@sdk@electron@com@@UEAAPEAXI@Z 0000000180067d70 f i electron_sdk.pb.obj
 0001:00066db0       ??_EAgreeToEnableAndStartSmartRecordingParams@proto@sdk@electron@com@@UEAAPEAXI@Z 0000000180067db0 f i * CIL library *:* CIL module *
 0001:00066db0       ??_GAgreeToEnableAndStartSmartRecordingParams@proto@sdk@electron@com@@UEAAPEAXI@Z 0000000180067db0 f i electron_sdk.pb.obj
 0001:00066df0       ??_EDeclineEnableAndStartSmartRecordingParams@proto@sdk@electron@com@@UEAAPEAXI@Z 0000000180067df0 f i * CIL library *:* CIL module *
 0001:00066df0       ??_GDeclineEnableAndStartSmartRecordingParams@proto@sdk@electron@com@@UEAAPEAXI@Z 0000000180067df0 f i electron_sdk.pb.obj
 0001:00066e30       ??_EActionConfirmEnableSmartRecordingParams@proto@sdk@electron@com@@UEAAPEAXI@Z 0000000180067e30 f i * CIL library *:* CIL module *
 0001:00066e30       ??_GActionConfirmEnableSmartRecordingParams@proto@sdk@electron@com@@UEAAPEAXI@Z 0000000180067e30 f i electron_sdk.pb.obj
 0001:00066e70       ??_EIsValidEmailParams@proto@sdk@electron@com@@UEAAPEAXI@Z 0000000180067e70 f i * CIL library *:* CIL module *
 0001:00066e70       ??_GIsValidEmailParams@proto@sdk@electron@com@@UEAAPEAXI@Z 0000000180067e70 f i electron_sdk.pb.obj
 0001:00066eb0       ??_EInputUserInfoParams@proto@sdk@electron@com@@UEAAPEAXI@Z 0000000180067eb0 f i * CIL library *:* CIL module *
 0001:00066eb0       ??_GInputUserInfoParams@proto@sdk@electron@com@@UEAAPEAXI@Z 0000000180067eb0 f i electron_sdk.pb.obj
 0001:00066ef0       ??_ERedirectMeetingInputUserInfoDialogParams@proto@sdk@electron@com@@UEAAPEAXI@Z 0000000180067ef0 f i * CIL library *:* CIL module *
 0001:00066ef0       ??_GRedirectMeetingInputUserInfoDialogParams@proto@sdk@electron@com@@UEAAPEAXI@Z 0000000180067ef0 f i electron_sdk.pb.obj
 0001:00066f30       ??_EJoinWithArchiveParams@proto@sdk@electron@com@@UEAAPEAXI@Z 0000000180067f30 f i * CIL library *:* CIL module *
 0001:00066f30       ??_GJoinWithArchiveParams@proto@sdk@electron@com@@UEAAPEAXI@Z 0000000180067f30 f i electron_sdk.pb.obj
 0001:00066f70       ??_ERedirectConfirmStartArchiveDialogParams@proto@sdk@electron@com@@UEAAPEAXI@Z 0000000180067f70 f i * CIL library *:* CIL module *
 0001:00066f70       ??_GRedirectConfirmStartArchiveDialogParams@proto@sdk@electron@com@@UEAAPEAXI@Z 0000000180067f70 f i electron_sdk.pb.obj
 0001:00066fb0       ??_EShowIndicatorPanelParams@proto@sdk@electron@com@@UEAAPEAXI@Z 0000000180067fb0 f i * CIL library *:* CIL module *
 0001:00066fb0       ??_GShowIndicatorPanelParams@proto@sdk@electron@com@@UEAAPEAXI@Z 0000000180067fb0 f i electron_sdk.pb.obj
 0001:00066ff0       ??_EWebinarAttendeeParams@proto@sdk@electron@com@@UEAAPEAXI@Z 0000000180067ff0 f i * CIL library *:* CIL module *
 0001:00066ff0       ??_GWebinarAttendeeParams@proto@sdk@electron@com@@UEAAPEAXI@Z 0000000180067ff0 f i electron_sdk.pb.obj
 0001:00067030       ??_ESetPanelistChatPrivilegeParams@proto@sdk@electron@com@@UEAAPEAXI@Z 0000000180068030 f i * CIL library *:* CIL module *
 0001:00067030       ??_GSetPanelistChatPrivilegeParams@proto@sdk@electron@com@@UEAAPEAXI@Z 0000000180068030 f i electron_sdk.pb.obj
 0001:00067070       ??_ESetAttendeeViewModeParams@proto@sdk@electron@com@@UEAAPEAXI@Z 0000000180068070 f i * CIL library *:* CIL module *
 0001:00067070       ??_GSetAttendeeViewModeParams@proto@sdk@electron@com@@UEAAPEAXI@Z 0000000180068070 f i electron_sdk.pb.obj
 0001:000670b0       ??_ESetWallpaperParams@proto@sdk@electron@com@@UEAAPEAXI@Z 00000001800680b0 f i * CIL library *:* CIL module *
 0001:000670b0       ??_GSetWallpaperParams@proto@sdk@electron@com@@UEAAPEAXI@Z 00000001800680b0 f i electron_sdk.pb.obj
 0001:000670f0       ??_EGetWallpaperItemByIDParams@proto@sdk@electron@com@@UEAAPEAXI@Z 00000001800680f0 f i * CIL library *:* CIL module *
 0001:000670f0       ??_GGetWallpaperItemByIDParams@proto@sdk@electron@com@@UEAAPEAXI@Z 00000001800680f0 f i electron_sdk.pb.obj
 0001:00067130       ??_ESetUsingGreenScreenParams@proto@sdk@electron@com@@UEAAPEAXI@Z 0000000180068130 f i * CIL library *:* CIL module *
 0001:00067130       ??_GSetUsingGreenScreenParams@proto@sdk@electron@com@@UEAAPEAXI@Z 0000000180068130 f i electron_sdk.pb.obj
 0001:00067170       ??_EAddBGImageParams@proto@sdk@electron@com@@UEAAPEAXI@Z 0000000180068170 f i * CIL library *:* CIL module *
 0001:00067170       ??_GAddBGImageParams@proto@sdk@electron@com@@UEAAPEAXI@Z 0000000180068170 f i electron_sdk.pb.obj
 0001:000671b0       ??_ERemoveBGImageParams@proto@sdk@electron@com@@UEAAPEAXI@Z 00000001800681b0 f i * CIL library *:* CIL module *
 0001:000671b0       ??_GRemoveBGImageParams@proto@sdk@electron@com@@UEAAPEAXI@Z 00000001800681b0 f i electron_sdk.pb.obj
 0001:000671f0       ??_EUseBGImageParams@proto@sdk@electron@com@@UEAAPEAXI@Z 00000001800681f0 f i * CIL library *:* CIL module *
 0001:000671f0       ??_GUseBGImageParams@proto@sdk@electron@com@@UEAAPEAXI@Z 00000001800681f0 f i electron_sdk.pb.obj
 0001:00067230       ??_EAddBGVideoParams@proto@sdk@electron@com@@UEAAPEAXI@Z 0000000180068230 f i * CIL library *:* CIL module *
 0001:00067230       ??_GAddBGVideoParams@proto@sdk@electron@com@@UEAAPEAXI@Z 0000000180068230 f i electron_sdk.pb.obj
 0001:00067270       ??_ERemoveBGVideoParams@proto@sdk@electron@com@@UEAAPEAXI@Z 0000000180068270 f i * CIL library *:* CIL module *
 0001:00067270       ??_GRemoveBGVideoParams@proto@sdk@electron@com@@UEAAPEAXI@Z 0000000180068270 f i electron_sdk.pb.obj
 0001:000672b0       ??_EUseBGVideoParams@proto@sdk@electron@com@@UEAAPEAXI@Z 00000001800682b0 f i * CIL library *:* CIL module *
 0001:000672b0       ??_GUseBGVideoParams@proto@sdk@electron@com@@UEAAPEAXI@Z 00000001800682b0 f i electron_sdk.pb.obj
 0001:000672f0       ??_EChangeQuerySettingsParams@proto@sdk@electron@com@@UEAAPEAXI@Z 00000001800682f0 f i * CIL library *:* CIL module *
 0001:000672f0       ??_GChangeQuerySettingsParams@proto@sdk@electron@com@@UEAAPEAXI@Z 00000001800682f0 f i electron_sdk.pb.obj
 0001:00067330       ??_ESendQueryQuestionParams@proto@sdk@electron@com@@UEAAPEAXI@Z 0000000180068330 f i * CIL library *:* CIL module *
 0001:00067330       ??_GSendQueryQuestionParams@proto@sdk@electron@com@@UEAAPEAXI@Z 0000000180068330 f i electron_sdk.pb.obj
 0001:00067370       ??_EAICompanionQueryFeedbackParams@proto@sdk@electron@com@@UEAAPEAXI@Z 0000000180068370 f i * CIL library *:* CIL module *
 0001:00067370       ??_GAICompanionQueryFeedbackParams@proto@sdk@electron@com@@UEAAPEAXI@Z 0000000180068370 f i electron_sdk.pb.obj
 0001:000673b0       ??_ESetVideoQualityPreferenceParams@proto@sdk@electron@com@@UEAAPEAXI@Z 00000001800683b0 f i * CIL library *:* CIL module *
 0001:000673b0       ??_GSetVideoQualityPreferenceParams@proto@sdk@electron@com@@UEAAPEAXI@Z 00000001800683b0 f i electron_sdk.pb.obj
 0001:000673f0       ??_ETurnOffAllAICompanionsParams@proto@sdk@electron@com@@UEAAPEAXI@Z 00000001800683f0 f i * CIL library *:* CIL module *
 0001:000673f0       ??_GTurnOffAllAICompanionsParams@proto@sdk@electron@com@@UEAAPEAXI@Z 00000001800683f0 f i electron_sdk.pb.obj
 0001:00067430       ??_EAgreeAICompanionFeatureSwitchParams@proto@sdk@electron@com@@UEAAPEAXI@Z 0000000180068430 f i * CIL library *:* CIL module *
 0001:00067430       ??_GAgreeAICompanionFeatureSwitchParams@proto@sdk@electron@com@@UEAAPEAXI@Z 0000000180068430 f i electron_sdk.pb.obj
 0001:00067470       ??_EDeclineSendQueryParams@proto@sdk@electron@com@@UEAAPEAXI@Z 0000000180068470 f i * CIL library *:* CIL module *
 0001:00067470       ??_GDeclineSendQueryParams@proto@sdk@electron@com@@UEAAPEAXI@Z 0000000180068470 f i electron_sdk.pb.obj
 0001:000674b0       ??_EQuestionIDParams@proto@sdk@electron@com@@UEAAPEAXI@Z 00000001800684b0 f i * CIL library *:* CIL module *
 0001:000674b0       ??_GQuestionIDParams@proto@sdk@electron@com@@UEAAPEAXI@Z 00000001800684b0 f i electron_sdk.pb.obj
 0001:000674f0       ??_EVoteQuestionParams@proto@sdk@electron@com@@UEAAPEAXI@Z 00000001800684f0 f i * CIL library *:* CIL module *
 0001:000674f0       ??_GVoteQuestionParams@proto@sdk@electron@com@@UEAAPEAXI@Z 00000001800684f0 f i electron_sdk.pb.obj
 0001:00067530       ??_EAnswerIDParams@proto@sdk@electron@com@@UEAAPEAXI@Z 0000000180068530 f i * CIL library *:* CIL module *
 0001:00067530       ??_GAnswerIDParams@proto@sdk@electron@com@@UEAAPEAXI@Z 0000000180068530 f i electron_sdk.pb.obj
 0001:00067570       ??_EAnswerQuestionParams@proto@sdk@electron@com@@UEAAPEAXI@Z 0000000180068570 f i * CIL library *:* CIL module *
 0001:00067570       ??_GAnswerQuestionParams@proto@sdk@electron@com@@UEAAPEAXI@Z 0000000180068570 f i electron_sdk.pb.obj
 0001:000675b0       ??_EPollingIDParams@proto@sdk@electron@com@@UEAAPEAXI@Z 00000001800685b0 f i * CIL library *:* CIL module *
 0001:000675b0       ??_GPollingIDParams@proto@sdk@electron@com@@UEAAPEAXI@Z 00000001800685b0 f i electron_sdk.pb.obj
 0001:000675f0       ??_EQuestionCaseSensitiveParams@proto@sdk@electron@com@@UEAAPEAXI@Z 00000001800685f0 f i * CIL library *:* CIL module *
 0001:000675f0       ??_GQuestionCaseSensitiveParams@proto@sdk@electron@com@@UEAAPEAXI@Z 00000001800685f0 f i electron_sdk.pb.obj
 0001:00067630       ??_EQuestionImagePathParams@proto@sdk@electron@com@@UEAAPEAXI@Z 0000000180068630 f i * CIL library *:* CIL module *
 0001:00067630       ??_GQuestionImagePathParams@proto@sdk@electron@com@@UEAAPEAXI@Z 0000000180068630 f i electron_sdk.pb.obj
 0001:00067670       ??_ESetOwnerWindowParams@proto@sdk@electron@com@@UEAAPEAXI@Z 0000000180068670 f i * CIL library *:* CIL module *
 0001:00067670       ??_GSetOwnerWindowParams@proto@sdk@electron@com@@UEAAPEAXI@Z 0000000180068670 f i electron_sdk.pb.obj
 0001:000676b0       ??_EShowDashboardViewParams@proto@sdk@electron@com@@UEAAPEAXI@Z 00000001800686b0 f i * CIL library *:* CIL module *
 0001:000676b0       ??_GShowDashboardViewParams@proto@sdk@electron@com@@UEAAPEAXI@Z 00000001800686b0 f i electron_sdk.pb.obj
 0001:000676f0       ??_ESetDashboardViewSizeParams@proto@sdk@electron@com@@UEAAPEAXI@Z 00000001800686f0 f i * CIL library *:* CIL module *
 0001:000676f0       ??_GSetDashboardViewSizeParams@proto@sdk@electron@com@@UEAAPEAXI@Z 00000001800686f0 f i electron_sdk.pb.obj
 0001:00067730       ??_ESetWhiteboardViewPosParams@proto@sdk@electron@com@@UEAAPEAXI@Z 0000000180068730 f i * CIL library *:* CIL module *
 0001:00067730       ??_GSetWhiteboardViewPosParams@proto@sdk@electron@com@@UEAAPEAXI@Z 0000000180068730 f i electron_sdk.pb.obj
 0001:00067770       ??_ESetWhiteboardViewSizeParams@proto@sdk@electron@com@@UEAAPEAXI@Z 0000000180068770 f i * CIL library *:* CIL module *
 0001:00067770       ??_GSetWhiteboardViewSizeParams@proto@sdk@electron@com@@UEAAPEAXI@Z 0000000180068770 f i electron_sdk.pb.obj
 0001:000677b0       ??_ESetWhiteboardShareOptionParams@proto@sdk@electron@com@@UEAAPEAXI@Z 00000001800687b0 f i * CIL library *:* CIL module *
 0001:000677b0       ??_GSetWhiteboardShareOptionParams@proto@sdk@electron@com@@UEAAPEAXI@Z 00000001800687b0 f i electron_sdk.pb.obj
 0001:000677f0       ??_ESetWhiteboardCreateOptionParams@proto@sdk@electron@com@@UEAAPEAXI@Z 00000001800687f0 f i * CIL library *:* CIL module *
 0001:000677f0       ??_GSetWhiteboardCreateOptionParams@proto@sdk@electron@com@@UEAAPEAXI@Z 00000001800687f0 f i electron_sdk.pb.obj
 0001:00067830       ??_EEnableParticipantsCreateWithoutHostParams@proto@sdk@electron@com@@UEAAPEAXI@Z 0000000180068830 f i * CIL library *:* CIL module *
 0001:00067830       ??_GEnableParticipantsCreateWithoutHostParams@proto@sdk@electron@com@@UEAAPEAXI@Z 0000000180068830 f i electron_sdk.pb.obj
 0001:00067870       ??_ESetDocsShareOptionParams@proto@sdk@electron@com@@UEAAPEAXI@Z 0000000180068870 f i * CIL library *:* CIL module *
 0001:00067870       ??_GSetDocsShareOptionParams@proto@sdk@electron@com@@UEAAPEAXI@Z 0000000180068870 f i electron_sdk.pb.obj
 0001:000678b0       ??_ESetDocsCreateOptionParams@proto@sdk@electron@com@@UEAAPEAXI@Z 00000001800688b0 f i * CIL library *:* CIL module *
 0001:000678b0       ??_GSetDocsCreateOptionParams@proto@sdk@electron@com@@UEAAPEAXI@Z 00000001800688b0 f i electron_sdk.pb.obj
 0001:000678f0       ??_EShowDocsDashboardParams@proto@sdk@electron@com@@UEAAPEAXI@Z 00000001800688f0 f i * CIL library *:* CIL module *
 0001:000678f0       ??_GShowDocsDashboardParams@proto@sdk@electron@com@@UEAAPEAXI@Z 00000001800688f0 f i electron_sdk.pb.obj
 0001:00067930       ??_ESetDocDashboardSizeParams@proto@sdk@electron@com@@UEAAPEAXI@Z 0000000180068930 f i * CIL library *:* CIL module *
 0001:00067930       ??_GSetDocDashboardSizeParams@proto@sdk@electron@com@@UEAAPEAXI@Z 0000000180068930 f i electron_sdk.pb.obj
 0001:00067970       ??_ESetDocsViewPosParams@proto@sdk@electron@com@@UEAAPEAXI@Z 0000000180068970 f i * CIL library *:* CIL module *
 0001:00067970       ??_GSetDocsViewPosParams@proto@sdk@electron@com@@UEAAPEAXI@Z 0000000180068970 f i electron_sdk.pb.obj
 0001:000679b0       ??_ESetDocsViewSizeParams@proto@sdk@electron@com@@UEAAPEAXI@Z 00000001800689b0 f i * CIL library *:* CIL module *
 0001:000679b0       ??_GSetDocsViewSizeParams@proto@sdk@electron@com@@UEAAPEAXI@Z 00000001800689b0 f i electron_sdk.pb.obj
 0001:000679f0       ??_EShowDocsViewWindowParams@proto@sdk@electron@com@@UEAAPEAXI@Z 00000001800689f0 f i * CIL library *:* CIL module *
 0001:000679f0       ??_GShowDocsViewWindowParams@proto@sdk@electron@com@@UEAAPEAXI@Z 00000001800689f0 f i electron_sdk.pb.obj
 0001:00067a30       ??_EGetDocsSharingSourceInfoListParams@proto@sdk@electron@com@@UEAAPEAXI@Z 0000000180068a30 f i * CIL library *:* CIL module *
 0001:00067a30       ??_GGetDocsSharingSourceInfoListParams@proto@sdk@electron@com@@UEAAPEAXI@Z 0000000180068a30 f i electron_sdk.pb.obj
 0001:00067a70       ??1InitSDKParams@proto@sdk@electron@com@@UEAA@XZ 0000000180068a70 f   electron_sdk.pb.obj
 0001:00067b70       ?Clear@InitSDKParams@proto@sdk@electron@com@@UEAAXXZ 0000000180068b70 f   electron_sdk.pb.obj
 0001:00067ca0       ?_InternalParse@InitSDKParams@proto@sdk@electron@com@@UEAAPEBDPEBDPEAVParseContext@internal@protobuf@google@@@Z 0000000180068ca0 f   electron_sdk.pb.obj
 0001:00068370       ?_InternalSerialize@InitSDKParams@proto@sdk@electron@com@@UEBAPEAEPEAEPEAVEpsCopyOutputStream@io@protobuf@google@@@Z 0000000180069370 f   electron_sdk.pb.obj
 0001:00068980       ?ByteSizeLong@InitSDKParams@proto@sdk@electron@com@@UEBA_KXZ 0000000180069980 f   electron_sdk.pb.obj
 0001:00068e90       ?CheckTypeAndMergeFrom@InitSDKParams@proto@sdk@electron@com@@UEAAXAEBVMessageLite@protobuf@google@@@Z 0000000180069e90 f   electron_sdk.pb.obj
 0001:00068ea0       ?MergeFrom@InitSDKParams@proto@sdk@electron@com@@QEAAXAEBV12345@@Z 0000000180069ea0 f   electron_sdk.pb.obj
 0001:00069170       ?GetTypeName@InitSDKParams@proto@sdk@electron@com@@UEBA?AV?$basic_string@DU?$char_traits@D@std@@V?$allocator@D@2@@std@@XZ 000000018006a170 f   electron_sdk.pb.obj
 0001:000691a0       ??1AuthWithJwtTokenParams@proto@sdk@electron@com@@UEAA@XZ 000000018006a1a0 f   electron_sdk.pb.obj
 0001:00069270       ?Clear@AddBGImageParams@proto@sdk@electron@com@@UEAAXXZ 000000018006a270 f   electron_sdk.pb.obj
 0001:00069270       ?Clear@AddBGVideoParams@proto@sdk@electron@com@@UEAAXXZ 000000018006a270 f   electron_sdk.pb.obj
 0001:00069270       ?Clear@AnswerIDParams@proto@sdk@electron@com@@UEAAXXZ 000000018006a270 f   electron_sdk.pb.obj
 0001:00069270       ?Clear@AuthWithJwtTokenParams@proto@sdk@electron@com@@UEAAXXZ 000000018006a270 f   electron_sdk.pb.obj
 0001:00069270       ?Clear@ChatMessageIDParams@proto@sdk@electron@com@@UEAAXXZ 000000018006a270 f   electron_sdk.pb.obj
 0001:00069270       ?Clear@GenerateSSOLoginWebURLParams@proto@sdk@electron@com@@UEAAXXZ 000000018006a270 f   electron_sdk.pb.obj
 0001:00069270       ?Clear@GetWallpaperItemByIDParams@proto@sdk@electron@com@@UEAAXXZ 000000018006a270 f   electron_sdk.pb.obj
 0001:00069270       ?Clear@HandleZoomWebUriProtocolActionParams@proto@sdk@electron@com@@UEAAXXZ 000000018006a270 f   electron_sdk.pb.obj
 0001:00069270       ?Clear@InputMeetingScreenNameParams@proto@sdk@electron@com@@UEAAXXZ 000000018006a270 f   electron_sdk.pb.obj
 0001:00069270       ?Clear@InputScreenNameParams@proto@sdk@electron@com@@UEAAXXZ 000000018006a270 f   electron_sdk.pb.obj
 0001:00069270       ?Clear@IsValidEmailParams@proto@sdk@electron@com@@UEAAXXZ 000000018006a270 f   electron_sdk.pb.obj
 0001:00069270       ?Clear@PollingIDParams@proto@sdk@electron@com@@UEAAXXZ 000000018006a270 f   electron_sdk.pb.obj
 0001:00069270       ?Clear@QuestionIDParams@proto@sdk@electron@com@@UEAAXXZ 000000018006a270 f   electron_sdk.pb.obj
 0001:00069270       ?Clear@RequestRawLiveStreamParams@proto@sdk@electron@com@@UEAAXXZ 000000018006a270 f   electron_sdk.pb.obj
 0001:00069270       ?Clear@SSOLoginWithWebUriProtocolParams@proto@sdk@electron@com@@UEAAXXZ 000000018006a270 f   electron_sdk.pb.obj
 0001:00069270       ?Clear@SelectVideoCameraParams@proto@sdk@electron@com@@UEAAXXZ 000000018006a270 f   electron_sdk.pb.obj
 0001:00069270       ?Clear@SendQueryQuestionParams@proto@sdk@electron@com@@UEAAXXZ 000000018006a270 f   electron_sdk.pb.obj
 0001:00069270       ?Clear@SetCustomizedCloudRecordingMgrUrlParams@proto@sdk@electron@com@@UEAAXXZ 000000018006a270 f   electron_sdk.pb.obj
 0001:00069270       ?Clear@SetCustomizedInvitationDomainParams@proto@sdk@electron@com@@UEAAXXZ 000000018006a270 f   electron_sdk.pb.obj
 0001:00069270       ?Clear@SetDirectShareMonitorIDParams@proto@sdk@electron@com@@UEAAXXZ 000000018006a270 f   electron_sdk.pb.obj
 0001:00069270       ?Clear@SetMeetingTopicParam@proto@sdk@electron@com@@UEAAXXZ 000000018006a270 f   electron_sdk.pb.obj
 0001:00069270       ?Clear@SetMeetingTopicParams@proto@sdk@electron@com@@UEAAXXZ 000000018006a270 f   electron_sdk.pb.obj
 0001:00069270       ?Clear@SetOwnerWindowParams@proto@sdk@electron@com@@UEAAXXZ 000000018006a270 f   electron_sdk.pb.obj
 0001:00069270       ?Clear@SetRecordingPathParams@proto@sdk@electron@com@@UEAAXXZ 000000018006a270 f   electron_sdk.pb.obj
 0001:00069270       ?Clear@StartAppShareParams@proto@sdk@electron@com@@UEAAXXZ 000000018006a270 f   electron_sdk.pb.obj
 0001:00069270       ?Clear@StartMonitorShareParams@proto@sdk@electron@com@@UEAAXXZ 000000018006a270 f   electron_sdk.pb.obj
 0001:00069270       ?Clear@StartRawLiveStreamParams@proto@sdk@electron@com@@UEAAXXZ 000000018006a270 f   electron_sdk.pb.obj
 0001:00069270       ?Clear@StartReceiveParams@proto@sdk@electron@com@@UEAAXXZ 000000018006a270 f   electron_sdk.pb.obj
 0001:00069270       ?Clear@TryWithPairingCodeParams@proto@sdk@electron@com@@UEAAXXZ 000000018006a270 f   electron_sdk.pb.obj
 0001:000692b0       ?_InternalParse@AddBGImageParams@proto@sdk@electron@com@@UEAAPEBDPEBDPEAVParseContext@internal@protobuf@google@@@Z 000000018006a2b0 f   electron_sdk.pb.obj
 0001:000692b0       ?_InternalParse@AddBGVideoParams@proto@sdk@electron@com@@UEAAPEBDPEBDPEAVParseContext@internal@protobuf@google@@@Z 000000018006a2b0 f   electron_sdk.pb.obj
 0001:000692b0       ?_InternalParse@AnswerIDParams@proto@sdk@electron@com@@UEAAPEBDPEBDPEAVParseContext@internal@protobuf@google@@@Z 000000018006a2b0 f   electron_sdk.pb.obj
 0001:000692b0       ?_InternalParse@AuthWithJwtTokenParams@proto@sdk@electron@com@@UEAAPEBDPEBDPEAVParseContext@internal@protobuf@google@@@Z 000000018006a2b0 f   electron_sdk.pb.obj
 0001:000692b0       ?_InternalParse@ChatMessageIDParams@proto@sdk@electron@com@@UEAAPEBDPEBDPEAVParseContext@internal@protobuf@google@@@Z 000000018006a2b0 f   electron_sdk.pb.obj
 0001:000692b0       ?_InternalParse@GenerateSSOLoginWebURLParams@proto@sdk@electron@com@@UEAAPEBDPEBDPEAVParseContext@internal@protobuf@google@@@Z 000000018006a2b0 f   electron_sdk.pb.obj
 0001:000692b0       ?_InternalParse@GetWallpaperItemByIDParams@proto@sdk@electron@com@@UEAAPEBDPEBDPEAVParseContext@internal@protobuf@google@@@Z 000000018006a2b0 f   electron_sdk.pb.obj
 0001:000692b0       ?_InternalParse@HandleZoomWebUriProtocolActionParams@proto@sdk@electron@com@@UEAAPEBDPEBDPEAVParseContext@internal@protobuf@google@@@Z 000000018006a2b0 f   electron_sdk.pb.obj
 0001:000692b0       ?_InternalParse@InputMeetingScreenNameParams@proto@sdk@electron@com@@UEAAPEBDPEBDPEAVParseContext@internal@protobuf@google@@@Z 000000018006a2b0 f   electron_sdk.pb.obj
 0001:000692b0       ?_InternalParse@InputScreenNameParams@proto@sdk@electron@com@@UEAAPEBDPEBDPEAVParseContext@internal@protobuf@google@@@Z 000000018006a2b0 f   electron_sdk.pb.obj
 0001:000692b0       ?_InternalParse@IsValidEmailParams@proto@sdk@electron@com@@UEAAPEBDPEBDPEAVParseContext@internal@protobuf@google@@@Z 000000018006a2b0 f   electron_sdk.pb.obj
 0001:000692b0       ?_InternalParse@PollingIDParams@proto@sdk@electron@com@@UEAAPEBDPEBDPEAVParseContext@internal@protobuf@google@@@Z 000000018006a2b0 f   electron_sdk.pb.obj
 0001:000692b0       ?_InternalParse@QuestionIDParams@proto@sdk@electron@com@@UEAAPEBDPEBDPEAVParseContext@internal@protobuf@google@@@Z 000000018006a2b0 f   electron_sdk.pb.obj
 0001:000692b0       ?_InternalParse@RequestRawLiveStreamParams@proto@sdk@electron@com@@UEAAPEBDPEBDPEAVParseContext@internal@protobuf@google@@@Z 000000018006a2b0 f   electron_sdk.pb.obj
 0001:000692b0       ?_InternalParse@SSOLoginWithWebUriProtocolParams@proto@sdk@electron@com@@UEAAPEBDPEBDPEAVParseContext@internal@protobuf@google@@@Z 000000018006a2b0 f   electron_sdk.pb.obj
 0001:000692b0       ?_InternalParse@SelectVideoCameraParams@proto@sdk@electron@com@@UEAAPEBDPEBDPEAVParseContext@internal@protobuf@google@@@Z 000000018006a2b0 f   electron_sdk.pb.obj
 0001:000692b0       ?_InternalParse@SendQueryQuestionParams@proto@sdk@electron@com@@UEAAPEBDPEBDPEAVParseContext@internal@protobuf@google@@@Z 000000018006a2b0 f   electron_sdk.pb.obj
 0001:000692b0       ?_InternalParse@SetCustomizedCloudRecordingMgrUrlParams@proto@sdk@electron@com@@UEAAPEBDPEBDPEAVParseContext@internal@protobuf@google@@@Z 000000018006a2b0 f   electron_sdk.pb.obj
 0001:000692b0       ?_InternalParse@SetCustomizedInvitationDomainParams@proto@sdk@electron@com@@UEAAPEBDPEBDPEAVParseContext@internal@protobuf@google@@@Z 000000018006a2b0 f   electron_sdk.pb.obj
 0001:000692b0       ?_InternalParse@SetDirectShareMonitorIDParams@proto@sdk@electron@com@@UEAAPEBDPEBDPEAVParseContext@internal@protobuf@google@@@Z 000000018006a2b0 f   electron_sdk.pb.obj
 0001:000692b0       ?_InternalParse@SetMeetingTopicParam@proto@sdk@electron@com@@UEAAPEBDPEBDPEAVParseContext@internal@protobuf@google@@@Z 000000018006a2b0 f   electron_sdk.pb.obj
 0001:000692b0       ?_InternalParse@SetMeetingTopicParams@proto@sdk@electron@com@@UEAAPEBDPEBDPEAVParseContext@internal@protobuf@google@@@Z 000000018006a2b0 f   electron_sdk.pb.obj
 0001:000692b0       ?_InternalParse@SetOwnerWindowParams@proto@sdk@electron@com@@UEAAPEBDPEBDPEAVParseContext@internal@protobuf@google@@@Z 000000018006a2b0 f   electron_sdk.pb.obj
 0001:000692b0       ?_InternalParse@SetRecordingPathParams@proto@sdk@electron@com@@UEAAPEBDPEBDPEAVParseContext@internal@protobuf@google@@@Z 000000018006a2b0 f   electron_sdk.pb.obj
 0001:000692b0       ?_InternalParse@StartAppShareParams@proto@sdk@electron@com@@UEAAPEBDPEBDPEAVParseContext@internal@protobuf@google@@@Z 000000018006a2b0 f   electron_sdk.pb.obj
 0001:000692b0       ?_InternalParse@StartMonitorShareParams@proto@sdk@electron@com@@UEAAPEBDPEBDPEAVParseContext@internal@protobuf@google@@@Z 000000018006a2b0 f   electron_sdk.pb.obj
 0001:000692b0       ?_InternalParse@StartRawLiveStreamParams@proto@sdk@electron@com@@UEAAPEBDPEBDPEAVParseContext@internal@protobuf@google@@@Z 000000018006a2b0 f   electron_sdk.pb.obj
 0001:000692b0       ?_InternalParse@StartReceiveParams@proto@sdk@electron@com@@UEAAPEBDPEBDPEAVParseContext@internal@protobuf@google@@@Z 000000018006a2b0 f   electron_sdk.pb.obj
 0001:000692b0       ?_InternalParse@TryWithPairingCodeParams@proto@sdk@electron@com@@UEAAPEBDPEBDPEAVParseContext@internal@protobuf@google@@@Z 000000018006a2b0 f   electron_sdk.pb.obj
 0001:00069400       ?_InternalSerialize@AddBGImageParams@proto@sdk@electron@com@@UEBAPEAEPEAEPEAVEpsCopyOutputStream@io@protobuf@google@@@Z 000000018006a400 f   electron_sdk.pb.obj
 0001:00069400       ?_InternalSerialize@AddBGVideoParams@proto@sdk@electron@com@@UEBAPEAEPEAEPEAVEpsCopyOutputStream@io@protobuf@google@@@Z 000000018006a400 f   electron_sdk.pb.obj
 0001:00069400       ?_InternalSerialize@AnswerIDParams@proto@sdk@electron@com@@UEBAPEAEPEAEPEAVEpsCopyOutputStream@io@protobuf@google@@@Z 000000018006a400 f   electron_sdk.pb.obj
 0001:00069400       ?_InternalSerialize@AuthWithJwtTokenParams@proto@sdk@electron@com@@UEBAPEAEPEAEPEAVEpsCopyOutputStream@io@protobuf@google@@@Z 000000018006a400 f   electron_sdk.pb.obj
 0001:00069400       ?_InternalSerialize@ChatMessageIDParams@proto@sdk@electron@com@@UEBAPEAEPEAEPEAVEpsCopyOutputStream@io@protobuf@google@@@Z 000000018006a400 f   electron_sdk.pb.obj
 0001:00069400       ?_InternalSerialize@GenerateSSOLoginWebURLParams@proto@sdk@electron@com@@UEBAPEAEPEAEPEAVEpsCopyOutputStream@io@protobuf@google@@@Z 000000018006a400 f   electron_sdk.pb.obj
 0001:00069400       ?_InternalSerialize@GetWallpaperItemByIDParams@proto@sdk@electron@com@@UEBAPEAEPEAEPEAVEpsCopyOutputStream@io@protobuf@google@@@Z 000000018006a400 f   electron_sdk.pb.obj
 0001:00069400       ?_InternalSerialize@HandleZoomWebUriProtocolActionParams@proto@sdk@electron@com@@UEBAPEAEPEAEPEAVEpsCopyOutputStream@io@protobuf@google@@@Z 000000018006a400 f   electron_sdk.pb.obj
 0001:00069400       ?_InternalSerialize@InputMeetingScreenNameParams@proto@sdk@electron@com@@UEBAPEAEPEAEPEAVEpsCopyOutputStream@io@protobuf@google@@@Z 000000018006a400 f   electron_sdk.pb.obj
 0001:00069400       ?_InternalSerialize@InputScreenNameParams@proto@sdk@electron@com@@UEBAPEAEPEAEPEAVEpsCopyOutputStream@io@protobuf@google@@@Z 000000018006a400 f   electron_sdk.pb.obj
 0001:00069400       ?_InternalSerialize@IsValidEmailParams@proto@sdk@electron@com@@UEBAPEAEPEAEPEAVEpsCopyOutputStream@io@protobuf@google@@@Z 000000018006a400 f   electron_sdk.pb.obj
 0001:00069400       ?_InternalSerialize@PollingIDParams@proto@sdk@electron@com@@UEBAPEAEPEAEPEAVEpsCopyOutputStream@io@protobuf@google@@@Z 000000018006a400 f   electron_sdk.pb.obj
 0001:00069400       ?_InternalSerialize@QuestionIDParams@proto@sdk@electron@com@@UEBAPEAEPEAEPEAVEpsCopyOutputStream@io@protobuf@google@@@Z 000000018006a400 f   electron_sdk.pb.obj
 0001:00069400       ?_InternalSerialize@RequestRawLiveStreamParams@proto@sdk@electron@com@@UEBAPEAEPEAEPEAVEpsCopyOutputStream@io@protobuf@google@@@Z 000000018006a400 f   electron_sdk.pb.obj
 0001:00069400       ?_InternalSerialize@SSOLoginWithWebUriProtocolParams@proto@sdk@electron@com@@UEBAPEAEPEAEPEAVEpsCopyOutputStream@io@protobuf@google@@@Z 000000018006a400 f   electron_sdk.pb.obj
 0001:00069400       ?_InternalSerialize@SelectVideoCameraParams@proto@sdk@electron@com@@UEBAPEAEPEAEPEAVEpsCopyOutputStream@io@protobuf@google@@@Z 000000018006a400 f   electron_sdk.pb.obj
 0001:00069400       ?_InternalSerialize@SendQueryQuestionParams@proto@sdk@electron@com@@UEBAPEAEPEAEPEAVEpsCopyOutputStream@io@protobuf@google@@@Z 000000018006a400 f   electron_sdk.pb.obj
 0001:00069400       ?_InternalSerialize@SetCustomizedCloudRecordingMgrUrlParams@proto@sdk@electron@com@@UEBAPEAEPEAEPEAVEpsCopyOutputStream@io@protobuf@google@@@Z 000000018006a400 f   electron_sdk.pb.obj
 0001:00069400       ?_InternalSerialize@SetCustomizedInvitationDomainParams@proto@sdk@electron@com@@UEBAPEAEPEAEPEAVEpsCopyOutputStream@io@protobuf@google@@@Z 000000018006a400 f   electron_sdk.pb.obj
 0001:00069400       ?_InternalSerialize@SetDirectShareMonitorIDParams@proto@sdk@electron@com@@UEBAPEAEPEAEPEAVEpsCopyOutputStream@io@protobuf@google@@@Z 000000018006a400 f   electron_sdk.pb.obj
 0001:00069400       ?_InternalSerialize@SetMeetingTopicParam@proto@sdk@electron@com@@UEBAPEAEPEAEPEAVEpsCopyOutputStream@io@protobuf@google@@@Z 000000018006a400 f   electron_sdk.pb.obj
 0001:00069400       ?_InternalSerialize@SetMeetingTopicParams@proto@sdk@electron@com@@UEBAPEAEPEAEPEAVEpsCopyOutputStream@io@protobuf@google@@@Z 000000018006a400 f   electron_sdk.pb.obj
 0001:00069400       ?_InternalSerialize@SetOwnerWindowParams@proto@sdk@electron@com@@UEBAPEAEPEAEPEAVEpsCopyOutputStream@io@protobuf@google@@@Z 000000018006a400 f   electron_sdk.pb.obj
 0001:00069400       ?_InternalSerialize@SetRecordingPathParams@proto@sdk@electron@com@@UEBAPEAEPEAEPEAVEpsCopyOutputStream@io@protobuf@google@@@Z 000000018006a400 f   electron_sdk.pb.obj
 0001:00069400       ?_InternalSerialize@StartAppShareParams@proto@sdk@electron@com@@UEBAPEAEPEAEPEAVEpsCopyOutputStream@io@protobuf@google@@@Z 000000018006a400 f   electron_sdk.pb.obj
 0001:00069400       ?_InternalSerialize@StartMonitorShareParams@proto@sdk@electron@com@@UEBAPEAEPEAEPEAVEpsCopyOutputStream@io@protobuf@google@@@Z 000000018006a400 f   electron_sdk.pb.obj
 0001:00069400       ?_InternalSerialize@StartRawLiveStreamParams@proto@sdk@electron@com@@UEBAPEAEPEAEPEAVEpsCopyOutputStream@io@protobuf@google@@@Z 000000018006a400 f   electron_sdk.pb.obj
 0001:00069400       ?_InternalSerialize@StartReceiveParams@proto@sdk@electron@com@@UEBAPEAEPEAEPEAVEpsCopyOutputStream@io@protobuf@google@@@Z 000000018006a400 f   electron_sdk.pb.obj
 0001:00069400       ?_InternalSerialize@TryWithPairingCodeParams@proto@sdk@electron@com@@UEBAPEAEPEAEPEAVEpsCopyOutputStream@io@protobuf@google@@@Z 000000018006a400 f   electron_sdk.pb.obj
 0001:000694c0       ?ByteSizeLong@AddBGImageParams@proto@sdk@electron@com@@UEBA_KXZ 000000018006a4c0 f   electron_sdk.pb.obj
 0001:000694c0       ?ByteSizeLong@AddBGVideoParams@proto@sdk@electron@com@@UEBA_KXZ 000000018006a4c0 f   electron_sdk.pb.obj
 0001:000694c0       ?ByteSizeLong@AnswerIDParams@proto@sdk@electron@com@@UEBA_KXZ 000000018006a4c0 f   electron_sdk.pb.obj
 0001:000694c0       ?ByteSizeLong@AuthWithJwtTokenParams@proto@sdk@electron@com@@UEBA_KXZ 000000018006a4c0 f   electron_sdk.pb.obj
 0001:000694c0       ?ByteSizeLong@ChatMessageIDParams@proto@sdk@electron@com@@UEBA_KXZ 000000018006a4c0 f   electron_sdk.pb.obj
 0001:000694c0       ?ByteSizeLong@GenerateSSOLoginWebURLParams@proto@sdk@electron@com@@UEBA_KXZ 000000018006a4c0 f   electron_sdk.pb.obj
 0001:000694c0       ?ByteSizeLong@GetWallpaperItemByIDParams@proto@sdk@electron@com@@UEBA_KXZ 000000018006a4c0 f   electron_sdk.pb.obj
 0001:000694c0       ?ByteSizeLong@HandleZoomWebUriProtocolActionParams@proto@sdk@electron@com@@UEBA_KXZ 000000018006a4c0 f   electron_sdk.pb.obj
 0001:000694c0       ?ByteSizeLong@InputMeetingScreenNameParams@proto@sdk@electron@com@@UEBA_KXZ 000000018006a4c0 f   electron_sdk.pb.obj
 0001:000694c0       ?ByteSizeLong@InputScreenNameParams@proto@sdk@electron@com@@UEBA_KXZ 000000018006a4c0 f   electron_sdk.pb.obj
 0001:000694c0       ?ByteSizeLong@IsValidEmailParams@proto@sdk@electron@com@@UEBA_KXZ 000000018006a4c0 f   electron_sdk.pb.obj
 0001:000694c0       ?ByteSizeLong@PollingIDParams@proto@sdk@electron@com@@UEBA_KXZ 000000018006a4c0 f   electron_sdk.pb.obj
 0001:000694c0       ?ByteSizeLong@QuestionIDParams@proto@sdk@electron@com@@UEBA_KXZ 000000018006a4c0 f   electron_sdk.pb.obj
 0001:000694c0       ?ByteSizeLong@RequestRawLiveStreamParams@proto@sdk@electron@com@@UEBA_KXZ 000000018006a4c0 f   electron_sdk.pb.obj
 0001:000694c0       ?ByteSizeLong@SSOLoginWithWebUriProtocolParams@proto@sdk@electron@com@@UEBA_KXZ 000000018006a4c0 f   electron_sdk.pb.obj
 0001:000694c0       ?ByteSizeLong@SelectVideoCameraParams@proto@sdk@electron@com@@UEBA_KXZ 000000018006a4c0 f   electron_sdk.pb.obj
 0001:000694c0       ?ByteSizeLong@SendQueryQuestionParams@proto@sdk@electron@com@@UEBA_KXZ 000000018006a4c0 f   electron_sdk.pb.obj
 0001:000694c0       ?ByteSizeLong@SetCustomizedCloudRecordingMgrUrlParams@proto@sdk@electron@com@@UEBA_KXZ 000000018006a4c0 f   electron_sdk.pb.obj
 0001:000694c0       ?ByteSizeLong@SetCustomizedInvitationDomainParams@proto@sdk@electron@com@@UEBA_KXZ 000000018006a4c0 f   electron_sdk.pb.obj
 0001:000694c0       ?ByteSizeLong@SetDirectShareMonitorIDParams@proto@sdk@electron@com@@UEBA_KXZ 000000018006a4c0 f   electron_sdk.pb.obj
 0001:000694c0       ?ByteSizeLong@SetMeetingTopicParam@proto@sdk@electron@com@@UEBA_KXZ 000000018006a4c0 f   electron_sdk.pb.obj
 0001:000694c0       ?ByteSizeLong@SetMeetingTopicParams@proto@sdk@electron@com@@UEBA_KXZ 000000018006a4c0 f   electron_sdk.pb.obj
 0001:000694c0       ?ByteSizeLong@SetOwnerWindowParams@proto@sdk@electron@com@@UEBA_KXZ 000000018006a4c0 f   electron_sdk.pb.obj
 0001:000694c0       ?ByteSizeLong@SetRecordingPathParams@proto@sdk@electron@com@@UEBA_KXZ 000000018006a4c0 f   electron_sdk.pb.obj
 0001:000694c0       ?ByteSizeLong@StartAppShareParams@proto@sdk@electron@com@@UEBA_KXZ 000000018006a4c0 f   electron_sdk.pb.obj
 0001:000694c0       ?ByteSizeLong@StartMonitorShareParams@proto@sdk@electron@com@@UEBA_KXZ 000000018006a4c0 f   electron_sdk.pb.obj
 0001:000694c0       ?ByteSizeLong@StartRawLiveStreamParams@proto@sdk@electron@com@@UEBA_KXZ 000000018006a4c0 f   electron_sdk.pb.obj
 0001:000694c0       ?ByteSizeLong@StartReceiveParams@proto@sdk@electron@com@@UEBA_KXZ 000000018006a4c0 f   electron_sdk.pb.obj
 0001:000694c0       ?ByteSizeLong@TryWithPairingCodeParams@proto@sdk@electron@com@@UEBA_KXZ 000000018006a4c0 f   electron_sdk.pb.obj
 0001:00069530       ?CheckTypeAndMergeFrom@AuthWithJwtTokenParams@proto@sdk@electron@com@@UEAAXAEBVMessageLite@protobuf@google@@@Z 000000018006a530 f   electron_sdk.pb.obj
 0001:00069540       ?MergeFrom@AuthWithJwtTokenParams@proto@sdk@electron@com@@QEAAXAEBV12345@@Z 000000018006a540 f   electron_sdk.pb.obj
 0001:00069610       ?GetTypeName@AuthWithJwtTokenParams@proto@sdk@electron@com@@UEBA?AV?$basic_string@DU?$char_traits@D@std@@V?$allocator@D@2@@std@@XZ 000000018006a610 f   electron_sdk.pb.obj
 0001:00069640       ?Clear@LoginWithSSOTokenParams@proto@sdk@electron@com@@UEAAXXZ 000000018006a640 f   electron_sdk.pb.obj
 0001:00069640       ?Clear@SetCustomizedPollingUrlParams@proto@sdk@electron@com@@UEAAXXZ 000000018006a640 f   electron_sdk.pb.obj
 0001:00069640       ?Clear@VoteQuestionParams@proto@sdk@electron@com@@UEAAXXZ 000000018006a640 f   electron_sdk.pb.obj
 0001:00069680       ?_InternalParse@LoginWithSSOTokenParams@proto@sdk@electron@com@@UEAAPEBDPEBDPEAVParseContext@internal@protobuf@google@@@Z 000000018006a680 f   electron_sdk.pb.obj
 0001:00069680       ?_InternalParse@SetCustomizedPollingUrlParams@proto@sdk@electron@com@@UEAAPEBDPEBDPEAVParseContext@internal@protobuf@google@@@Z 000000018006a680 f   electron_sdk.pb.obj
 0001:00069680       ?_InternalParse@VoteQuestionParams@proto@sdk@electron@com@@UEAAPEBDPEBDPEAVParseContext@internal@protobuf@google@@@Z 000000018006a680 f   electron_sdk.pb.obj
 0001:00069820       ?_InternalSerialize@LoginWithSSOTokenParams@proto@sdk@electron@com@@UEBAPEAEPEAEPEAVEpsCopyOutputStream@io@protobuf@google@@@Z 000000018006a820 f   electron_sdk.pb.obj
 0001:00069820       ?_InternalSerialize@SetCustomizedPollingUrlParams@proto@sdk@electron@com@@UEBAPEAEPEAEPEAVEpsCopyOutputStream@io@protobuf@google@@@Z 000000018006a820 f   electron_sdk.pb.obj
 0001:00069820       ?_InternalSerialize@VoteQuestionParams@proto@sdk@electron@com@@UEBAPEAEPEAEPEAVEpsCopyOutputStream@io@protobuf@google@@@Z 000000018006a820 f   electron_sdk.pb.obj
 0001:00069900       ?ByteSizeLong@LoginWithSSOTokenParams@proto@sdk@electron@com@@UEBA_KXZ 000000018006a900 f   electron_sdk.pb.obj
 0001:00069900       ?ByteSizeLong@SetCustomizedPollingUrlParams@proto@sdk@electron@com@@UEBA_KXZ 000000018006a900 f   electron_sdk.pb.obj
 0001:00069900       ?ByteSizeLong@VoteQuestionParams@proto@sdk@electron@com@@UEBA_KXZ 000000018006a900 f   electron_sdk.pb.obj
 0001:00069980       ?CheckTypeAndMergeFrom@LoginWithSSOTokenParams@proto@sdk@electron@com@@UEAAXAEBVMessageLite@protobuf@google@@@Z 000000018006a980 f   electron_sdk.pb.obj
 0001:00069990       ?MergeFrom@LoginWithSSOTokenParams@proto@sdk@electron@com@@QEAAXAEBV12345@@Z 000000018006a990 f   electron_sdk.pb.obj
 0001:00069ab0       ?GetTypeName@LoginWithSSOTokenParams@proto@sdk@electron@com@@UEBA?AV?$basic_string@DU?$char_traits@D@std@@V?$allocator@D@2@@std@@XZ 000000018006aab0 f   electron_sdk.pb.obj
 0001:00069ae0       ??1StartMeetingParams@proto@sdk@electron@com@@UEAA@XZ 000000018006aae0 f   electron_sdk.pb.obj
 0001:00069bb0       ?Clear@StartMeetingParams@proto@sdk@electron@com@@UEAAXXZ 000000018006abb0 f   electron_sdk.pb.obj
 0001:00069c30       ?_InternalParse@StartMeetingParams@proto@sdk@electron@com@@UEAAPEBDPEBDPEAVParseContext@internal@protobuf@google@@@Z 000000018006ac30 f   electron_sdk.pb.obj
 0001:00069ef0       ?_InternalSerialize@StartMeetingParams@proto@sdk@electron@com@@UEBAPEAEPEAEPEAVEpsCopyOutputStream@io@protobuf@google@@@Z 000000018006aef0 f   electron_sdk.pb.obj
 0001:0006a090       ?ByteSizeLong@StartMeetingParams@proto@sdk@electron@com@@UEBA_KXZ 000000018006b090 f   electron_sdk.pb.obj
 0001:0006a1d0       ?CheckTypeAndMergeFrom@StartMeetingParams@proto@sdk@electron@com@@UEAAXAEBVMessageLite@protobuf@google@@@Z 000000018006b1d0 f   electron_sdk.pb.obj
 0001:0006a1e0       ?MergeFrom@StartMeetingParams@proto@sdk@electron@com@@QEAAXAEBV12345@@Z 000000018006b1e0 f   electron_sdk.pb.obj
 0001:0006a350       ?GetTypeName@StartMeetingParams@proto@sdk@electron@com@@UEBA?AV?$basic_string@DU?$char_traits@D@std@@V?$allocator@D@2@@std@@XZ 000000018006b350 f   electron_sdk.pb.obj
 0001:0006a380       ??1StartWithoutLoginParams@proto@sdk@electron@com@@UEAA@XZ 000000018006b380 f   electron_sdk.pb.obj
 0001:0006a470       ?Clear@StartWithoutLoginParams@proto@sdk@electron@com@@UEAAXXZ 000000018006b470 f   electron_sdk.pb.obj
 0001:0006a550       ?_InternalParse@StartWithoutLoginParams@proto@sdk@electron@com@@UEAAPEBDPEBDPEAVParseContext@internal@protobuf@google@@@Z 000000018006b550 f   electron_sdk.pb.obj
 0001:0006a8b0       ?_InternalSerialize@StartWithoutLoginParams@proto@sdk@electron@com@@UEBAPEAEPEAEPEAVEpsCopyOutputStream@io@protobuf@google@@@Z 000000018006b8b0 f   electron_sdk.pb.obj
 0001:0006ab00       ?ByteSizeLong@StartWithoutLoginParams@proto@sdk@electron@com@@UEBA_KXZ 000000018006bb00 f   electron_sdk.pb.obj
 0001:0006ad60       ?CheckTypeAndMergeFrom@StartWithoutLoginParams@proto@sdk@electron@com@@UEAAXAEBVMessageLite@protobuf@google@@@Z 000000018006bd60 f   electron_sdk.pb.obj
 0001:0006ad70       ?MergeFrom@StartWithoutLoginParams@proto@sdk@electron@com@@QEAAXAEBV12345@@Z 000000018006bd70 f   electron_sdk.pb.obj
 0001:0006af60       ?GetTypeName@StartWithoutLoginParams@proto@sdk@electron@com@@UEBA?AV?$basic_string@DU?$char_traits@D@std@@V?$allocator@D@2@@std@@XZ 000000018006bf60 f   electron_sdk.pb.obj
 0001:0006af90       ??1JoinMeetingParams@proto@sdk@electron@com@@UEAA@XZ 000000018006bf90 f   electron_sdk.pb.obj
 0001:0006b0a0       ?Clear@JoinMeetingParams@proto@sdk@electron@com@@UEAAXXZ 000000018006c0a0 f   electron_sdk.pb.obj
 0001:0006b1e0       ?_InternalParse@JoinMeetingParams@proto@sdk@electron@com@@UEAAPEBDPEBDPEAVParseContext@internal@protobuf@google@@@Z 000000018006c1e0 f   electron_sdk.pb.obj
 0001:0006b530       ?_InternalSerialize@JoinMeetingParams@proto@sdk@electron@com@@UEBAPEAEPEAEPEAVEpsCopyOutputStream@io@protobuf@google@@@Z 000000018006c530 f   electron_sdk.pb.obj
 0001:0006b7a0       ?ByteSizeLong@JoinMeetingParams@proto@sdk@electron@com@@UEBA_KXZ 000000018006c7a0 f   electron_sdk.pb.obj
 0001:0006ba90       ?CheckTypeAndMergeFrom@JoinMeetingParams@proto@sdk@electron@com@@UEAAXAEBVMessageLite@protobuf@google@@@Z 000000018006ca90 f   electron_sdk.pb.obj
 0001:0006baa0       ?MergeFrom@JoinMeetingParams@proto@sdk@electron@com@@QEAAXAEBV12345@@Z 000000018006caa0 f   electron_sdk.pb.obj
 0001:0006bd00       ?GetTypeName@JoinMeetingParams@proto@sdk@electron@com@@UEBA?AV?$basic_string@DU?$char_traits@D@std@@V?$allocator@D@2@@std@@XZ 000000018006cd00 f   electron_sdk.pb.obj
 0001:0006bd30       ??1JoinWithoutLoginParams@proto@sdk@electron@com@@UEAA@XZ 000000018006cd30 f   electron_sdk.pb.obj
 0001:0006be50       ?Clear@JoinWithoutLoginParams@proto@sdk@electron@com@@UEAAXXZ 000000018006ce50 f   electron_sdk.pb.obj
 0001:0006bfd0       ?_InternalParse@JoinWithoutLoginParams@proto@sdk@electron@com@@UEAAPEBDPEBDPEAVParseContext@internal@protobuf@google@@@Z 000000018006cfd0 f   electron_sdk.pb.obj
 0001:0006c370       ?_InternalSerialize@JoinWithoutLoginParams@proto@sdk@electron@com@@UEBAPEAEPEAEPEAVEpsCopyOutputStream@io@protobuf@google@@@Z 000000018006d370 f   electron_sdk.pb.obj
 0001:0006c620       ?ByteSizeLong@JoinWithoutLoginParams@proto@sdk@electron@com@@UEBA_KXZ 000000018006d620 f   electron_sdk.pb.obj
 0001:0006c9a0       ?CheckTypeAndMergeFrom@JoinWithoutLoginParams@proto@sdk@electron@com@@UEAAXAEBVMessageLite@protobuf@google@@@Z 000000018006d9a0 f   electron_sdk.pb.obj
 0001:0006c9b0       ?MergeFrom@JoinWithoutLoginParams@proto@sdk@electron@com@@QEAAXAEBV12345@@Z 000000018006d9b0 f   electron_sdk.pb.obj
 0001:0006cc80       ?GetTypeName@JoinWithoutLoginParams@proto@sdk@electron@com@@UEBA?AV?$basic_string@DU?$char_traits@D@std@@V?$allocator@D@2@@std@@XZ 000000018006dc80 f   electron_sdk.pb.obj
 0001:0006ccb0       ??1LeaveMeetingParams@proto@sdk@electron@com@@UEAA@XZ 000000018006dcb0 f   electron_sdk.pb.obj
 0001:0006cd60       ?Clear@ActionConfirmEnableSmartRecordingParams@proto@sdk@electron@com@@UEAAXXZ 000000018006dd60 f   electron_sdk.pb.obj
 0001:0006cd60       ?Clear@AgreeAICompanionFeatureSwitchParams@proto@sdk@electron@com@@UEAAXXZ 000000018006dd60 f   electron_sdk.pb.obj
 0001:0006cd60       ?Clear@AgreeToEnableAndStartSmartRecordingParams@proto@sdk@electron@com@@UEAAXXZ 000000018006dd60 f   electron_sdk.pb.obj
 0001:0006cd60       ?Clear@AllowParticipantsToRequestCloudRecordingParams@proto@sdk@electron@com@@UEAAXXZ 000000018006dd60 f   electron_sdk.pb.obj
 0001:0006cd60       ?Clear@AlwaysShowIconOnTaskBarParams@proto@sdk@electron@com@@UEAAXXZ 000000018006dd60 f   electron_sdk.pb.obj
 0001:0006cd60       ?Clear@DeclineEnableAndStartSmartRecordingParams@proto@sdk@electron@com@@UEAAXXZ 000000018006dd60 f   electron_sdk.pb.obj
 0001:0006cd60       ?Clear@DeclineEnableParams@proto@sdk@electron@com@@UEAAXXZ 000000018006dd60 f   electron_sdk.pb.obj
 0001:0006cd60       ?Clear@DeclineSendQueryParams@proto@sdk@electron@com@@UEAAXXZ 000000018006dd60 f   electron_sdk.pb.obj
 0001:0006cd60       ?Clear@DenyRequestStartCloudRecordingParams@proto@sdk@electron@com@@UEAAXXZ 000000018006dd60 f   electron_sdk.pb.obj
 0001:0006cd60       ?Clear@DisableAccountSettingTabPageParams@proto@sdk@electron@com@@UEAAXXZ 000000018006dd60 f   electron_sdk.pb.obj
 0001:0006cd60       ?Clear@DisableAdvancedFeatures4GeneralSettingParams@proto@sdk@electron@com@@UEAAXXZ 000000018006dd60 f   electron_sdk.pb.obj
 0001:0006cd60       ?Clear@DisableAutoShowSelectJoinAudioDlgWhenJoinMeetingParams@proto@sdk@electron@com@@UEAAXXZ 000000018006dd60 f   electron_sdk.pb.obj
 0001:0006cd60       ?Clear@DisableFreeMeetingRemainTimeNotifyParams@proto@sdk@electron@com@@UEAAXXZ 000000018006dd60 f   electron_sdk.pb.obj
 0001:0006cd60       ?Clear@DisablePopupMeetingWrongPSWDlgParams@proto@sdk@electron@com@@UEAAXXZ 000000018006dd60 f   electron_sdk.pb.obj
 0001:0006cd60       ?Clear@DisableShowJoinMeetingWndParams@proto@sdk@electron@com@@UEAAXXZ 000000018006dd60 f   electron_sdk.pb.obj
 0001:0006cd60       ?Clear@DisableSplitScreenModeUIElementsParams@proto@sdk@electron@com@@UEAAXXZ 000000018006dd60 f   electron_sdk.pb.obj
 0001:0006cd60       ?Clear@DisableToolbarInviteButtonClickOriginActionParams@proto@sdk@electron@com@@UEAAXXZ 000000018006dd60 f   electron_sdk.pb.obj
 0001:0006cd60       ?Clear@DisableTopMostAttr4SettingDialogParams@proto@sdk@electron@com@@UEAAXXZ 000000018006dd60 f   electron_sdk.pb.obj
 0001:0006cd60       ?Clear@DisableWaitingForHostDialogParams@proto@sdk@electron@com@@UEAAXXZ 000000018006dd60 f   electron_sdk.pb.obj
 0001:0006cd60       ?Clear@Enable49VideoesInGallaryViewParams@proto@sdk@electron@com@@UEAAXXZ 000000018006dd60 f   electron_sdk.pb.obj
 0001:0006cd60       ?Clear@EnableAccelerateGPUWhenShareParams@proto@sdk@electron@com@@UEAAXXZ 000000018006dd60 f   electron_sdk.pb.obj
 0001:0006cd60       ?Clear@EnableAddTimestampWatermarkParams@proto@sdk@electron@com@@UEAAXXZ 000000018006dd60 f   electron_sdk.pb.obj
 0001:0006cd60       ?Clear@EnableAirplayInstructionWindowParams@proto@sdk@electron@com@@UEAAXXZ 000000018006dd60 f   electron_sdk.pb.obj
 0001:0006cd60       ?Clear@EnableAlwaysMuteMicWhenJoinVoipParams@proto@sdk@electron@com@@UEAAXXZ 000000018006dd60 f   electron_sdk.pb.obj
 0001:0006cd60       ?Clear@EnableAlwaysShowMeetingControlsParams@proto@sdk@electron@com@@UEAAXXZ 000000018006dd60 f   electron_sdk.pb.obj
 0001:0006cd60       ?Clear@EnableAlwaysShowNameOnVideoParams@proto@sdk@electron@com@@UEAAXXZ 000000018006dd60 f   electron_sdk.pb.obj
 0001:0006cd60       ?Clear@EnableApproveRemoteControlDlgParams@proto@sdk@electron@com@@UEAAXXZ 000000018006dd60 f   electron_sdk.pb.obj
 0001:0006cd60       ?Clear@EnableAudioButtonOnMeetingUIParams@proto@sdk@electron@com@@UEAAXXZ 000000018006dd60 f   electron_sdk.pb.obj
 0001:0006cd60       ?Clear@EnableAutoAdjustMicParams@proto@sdk@electron@com@@UEAAXXZ 000000018006dd60 f   electron_sdk.pb.obj
 0001:0006cd60       ?Clear@EnableAutoAdjustMicVolumeWhenJoinAudioParams@proto@sdk@electron@com@@UEAAXXZ 000000018006dd60 f   electron_sdk.pb.obj
 0001:0006cd60       ?Clear@EnableAutoAdjustSpeakerVolumeWhenJoinAudioParams@proto@sdk@electron@com@@UEAAXXZ 000000018006dd60 f   electron_sdk.pb.obj
 0001:0006cd60       ?Clear@EnableAutoEndOtherMeetingWhenStartMeetingParams@proto@sdk@electron@com@@UEAAXXZ 000000018006dd60 f   electron_sdk.pb.obj
 0001:0006cd60       ?Clear@EnableAutoFitToWindowWhenViewSharingParams@proto@sdk@electron@com@@UEAAXXZ 000000018006dd60 f   electron_sdk.pb.obj
 0001:0006cd60       ?Clear@EnableAutoFullScreenVideoWhenJoinMeetingParams@proto@sdk@electron@com@@UEAAXXZ 000000018006dd60 f   electron_sdk.pb.obj
 0001:0006cd60       ?Clear@EnableAutoFullScreenVideoWhenViewShareParams@proto@sdk@electron@com@@UEAAXXZ 000000018006dd60 f   electron_sdk.pb.obj
 0001:0006cd60       ?Clear@EnableAutoHideJoinAudioDialogParams@proto@sdk@electron@com@@UEAAXXZ 000000018006dd60 f   electron_sdk.pb.obj
 0001:0006cd60       ?Clear@EnableAutoJoinAudioParams@proto@sdk@electron@com@@UEAAXXZ 000000018006dd60 f   electron_sdk.pb.obj
 0001:0006cd60       ?Clear@EnableAutoTurnOffVideoWhenJoinMeetingParams@proto@sdk@electron@com@@UEAAXXZ 000000018006dd60 f   electron_sdk.pb.obj
 0001:0006cd60       ?Clear@EnableClaimHostFeatureParams@proto@sdk@electron@com@@UEAAXXZ 000000018006dd60 f   electron_sdk.pb.obj
 0001:0006cd60       ?Clear@EnableDeclineRemoteControlResponseDlgParams@proto@sdk@electron@com@@UEAAXXZ 000000018006dd60 f   electron_sdk.pb.obj
 0001:0006cd60       ?Clear@EnableDisplayReminderWindowWhenExitParams@proto@sdk@electron@com@@UEAAXXZ 000000018006dd60 f   electron_sdk.pb.obj
 0001:0006cd60       ?Clear@EnableDualScreenModeParams@proto@sdk@electron@com@@UEAAXXZ 000000018006dd60 f   electron_sdk.pb.obj
 0001:0006cd60       ?Clear@EnableEnterAndExitFullScreenButtonOnMeetingUIParams@proto@sdk@electron@com@@UEAAXXZ 000000018006dd60 f   electron_sdk.pb.obj
 0001:0006cd60       ?Clear@EnableFaceBeautyEffectParams@proto@sdk@electron@com@@UEAAXXZ 000000018006dd60 f   electron_sdk.pb.obj
 0001:0006cd60       ?Clear@EnableForceAutoStartMyVideoWhenJoinMeetingParams@proto@sdk@electron@com@@UEAAXXZ 000000018006dd60 f   electron_sdk.pb.obj
 0001:0006cd60       ?Clear@EnableForceAutoStopMyVideoWhenJoinMeetingParams@proto@sdk@electron@com@@UEAAXXZ 000000018006dd60 f   electron_sdk.pb.obj
 0001:0006cd60       ?Clear@EnableGrabShareWithoutReminderParams@proto@sdk@electron@com@@UEAAXXZ 000000018006dd60 f   electron_sdk.pb.obj
 0001:0006cd60       ?Clear@EnableHDVideoParams@proto@sdk@electron@com@@UEAAXXZ 000000018006dd60 f   electron_sdk.pb.obj
 0001:0006cd60       ?Clear@EnableHIdeFullPhoneNumber4PureCallinUserParams@proto@sdk@electron@com@@UEAAXXZ 000000018006dd60 f   electron_sdk.pb.obj
 0001:0006cd60       ?Clear@EnableHideNoVideoUsersOnWallViewParams@proto@sdk@electron@com@@UEAAXXZ 000000018006dd60 f   electron_sdk.pb.obj
 0001:0006cd60       ?Clear@EnableHoldSpaceKeyToSpeakParams@proto@sdk@electron@com@@UEAAXXZ 000000018006dd60 f   electron_sdk.pb.obj
 0001:0006cd60       ?Clear@EnableInputMeetingPasswordDlgParams@proto@sdk@electron@com@@UEAAXXZ 000000018006dd60 f   electron_sdk.pb.obj
 0001:0006cd60       ?Clear@EnableInputMeetingScreenNameDlgParams@proto@sdk@electron@com@@UEAAXXZ 000000018006dd60 f   electron_sdk.pb.obj
 0001:0006cd60       ?Clear@EnableInviteButtonOnMeetingUIParams@proto@sdk@electron@com@@UEAAXXZ 000000018006dd60 f   electron_sdk.pb.obj
 0001:0006cd60       ?Clear@EnableInviteLinkOnMeetingUIParams@proto@sdk@electron@com@@UEAAXXZ 000000018006dd60 f   electron_sdk.pb.obj
 0001:0006cd60       ?Clear@EnableLButtonDBClick4SwitchFullScreenModeParams@proto@sdk@electron@com@@UEAAXXZ 000000018006dd60 f   electron_sdk.pb.obj
 0001:0006cd60       ?Clear@EnableLeaveMeetingOptionForHostParams@proto@sdk@electron@com@@UEAAXXZ 000000018006dd60 f   electron_sdk.pb.obj
 0001:0006cd60       ?Clear@EnableLengthLimitationOfMeetingNumberParams@proto@sdk@electron@com@@UEAAXXZ 000000018006dd60 f   electron_sdk.pb.obj
 0001:0006cd60       ?Clear@EnableLiveStreamReminderParams@proto@sdk@electron@com@@UEAAXXZ 000000018006dd60 f   electron_sdk.pb.obj
 0001:0006cd60       ?Clear@EnableLocalRecordingConverProgressBarDialogParams@proto@sdk@electron@com@@UEAAXXZ 000000018006dd60 f   electron_sdk.pb.obj
 0001:0006cd60       ?Clear@EnableMicOriginalInputParams@proto@sdk@electron@com@@UEAAXXZ 000000018006dd60 f   electron_sdk.pb.obj
 0001:0006cd60       ?Clear@EnableMultiAudioStreamRecordParams@proto@sdk@electron@com@@UEAAXXZ 000000018006dd60 f   electron_sdk.pb.obj
 0001:0006cd60       ?Clear@EnableOptimizeFor3rdPartyVideoEditorParams@proto@sdk@electron@com@@UEAAXXZ 000000018006dd60 f   electron_sdk.pb.obj
 0001:0006cd60       ?Clear@EnableParticipantsCreateWithoutHostParams@proto@sdk@electron@com@@UEAAXXZ 000000018006dd60 f   electron_sdk.pb.obj
 0001:0006cd60       ?Clear@EnablePlaceVideoNextToShareInRecordParams@proto@sdk@electron@com@@UEAAXXZ 000000018006dd60 f   electron_sdk.pb.obj
 0001:0006cd60       ?Clear@EnablePlayChimeWhenEnterOrExitParams@proto@sdk@electron@com@@UEAAXXZ 000000018006dd60 f   electron_sdk.pb.obj
 0001:0006cd60       ?Clear@EnablePlayMeetingAudioParams@proto@sdk@electron@com@@UEAAXXZ 000000018006dd60 f   electron_sdk.pb.obj
 0001:0006cd60       ?Clear@EnableRemoteControlAllApplicationsParams@proto@sdk@electron@com@@UEAAXXZ 000000018006dd60 f   electron_sdk.pb.obj
 0001:0006cd60       ?Clear@EnableSelectRecordFileLocationAfterMeetingParams@proto@sdk@electron@com@@UEAAXXZ 000000018006dd60 f   electron_sdk.pb.obj
 0001:0006cd60       ?Clear@EnableShareIOSDeviceParams@proto@sdk@electron@com@@UEAAXXZ 000000018006dd60 f   electron_sdk.pb.obj
 0001:0006cd60       ?Clear@EnableShareWhiteBoardParams@proto@sdk@electron@com@@UEAAXXZ 000000018006dd60 f   electron_sdk.pb.obj
 0001:0006cd60       ?Clear@EnableShowMyMeetingElapseTimeParams@proto@sdk@electron@com@@UEAAXXZ 000000018006dd60 f   electron_sdk.pb.obj
 0001:0006cd60       ?Clear@EnableShowShareSwitchMultiToSingleConfirmDlgParams@proto@sdk@electron@com@@UEAAXXZ 000000018006dd60 f   electron_sdk.pb.obj
 0001:0006cd60       ?Clear@EnableShowVideoThumbnailWhenShareParams@proto@sdk@electron@com@@UEAAXXZ 000000018006dd60 f   electron_sdk.pb.obj
 0001:0006cd60       ?Clear@EnableSplitScreenModeParams@proto@sdk@electron@com@@UEAAXXZ 000000018006dd60 f   electron_sdk.pb.obj
 0001:0006cd60       ?Clear@EnableSpotlightSelfParams@proto@sdk@electron@com@@UEAAXXZ 000000018006dd60 f   electron_sdk.pb.obj
 0001:0006cd60       ?Clear@EnableStereoAudioParams@proto@sdk@electron@com@@UEAAXXZ 000000018006dd60 f   electron_sdk.pb.obj
 0001:0006cd60       ?Clear@EnableSuppressAudioNotifyParams@proto@sdk@electron@com@@UEAAXXZ 000000018006dd60 f   electron_sdk.pb.obj
 0001:0006cd60       ?Clear@EnableToolTipsShowParams@proto@sdk@electron@com@@UEAAXXZ 000000018006dd60 f   electron_sdk.pb.obj
 0001:0006cd60       ?Clear@EnableVideoButtonOnMeetingUIParams@proto@sdk@electron@com@@UEAAXXZ 000000018006dd60 f   electron_sdk.pb.obj
 0001:0006cd60       ?Clear@EnableVideoMirrorEffectParams@proto@sdk@electron@com@@UEAAXXZ 000000018006dd60 f   electron_sdk.pb.obj
 0001:0006cd60       ?Clear@EnableVideoPreviewDialogParams@proto@sdk@electron@com@@UEAAXXZ 000000018006dd60 f   electron_sdk.pb.obj
 0001:0006cd60       ?Clear@EnableWaitingRoomOnEntryParams@proto@sdk@electron@com@@UEAAXXZ 000000018006dd60 f   electron_sdk.pb.obj
 0001:0006cd60       ?Clear@EnableZoomAuthRealNameMeetingUIShownParams@proto@sdk@electron@com@@UEAAXXZ 000000018006dd60 f   electron_sdk.pb.obj
 0001:0006cd60       ?Clear@EnableZoomDocsParams@proto@sdk@electron@com@@UEAAXXZ 000000018006dd60 f   electron_sdk.pb.obj
 0001:0006cd60       ?Clear@ForceDisableMultiShareParams@proto@sdk@electron@com@@UEAAXXZ 000000018006dd60 f   electron_sdk.pb.obj
 0001:0006cd60       ?Clear@HideAutoCopyInviteLinkCheckBoxParams@proto@sdk@electron@com@@UEAAXXZ 000000018006dd60 f   electron_sdk.pb.obj
 0001:0006cd60       ?Clear@HideChatItemOnMeetingUIParams@proto@sdk@electron@com@@UEAAXXZ 000000018006dd60 f   electron_sdk.pb.obj
 0001:0006cd60       ?Clear@HideCopyInvitationOnInviteWindowParams@proto@sdk@electron@com@@UEAAXXZ 000000018006dd60 f   electron_sdk.pb.obj
 0001:0006cd60       ?Clear@HideCopyUrlOnInviteWindowParams@proto@sdk@electron@com@@UEAAXXZ 000000018006dd60 f   electron_sdk.pb.obj
 0001:0006cd60       ?Clear@HideKeypadButtonOnMeetingWindowParams@proto@sdk@electron@com@@UEAAXXZ 000000018006dd60 f   electron_sdk.pb.obj
 0001:0006cd60       ?Clear@HideOrShowNoVideoUserOnVideoWallParams@proto@sdk@electron@com@@UEAAXXZ 000000018006dd60 f   electron_sdk.pb.obj
 0001:0006cd60       ?Clear@HidePollOnMeetingUIParams@proto@sdk@electron@com@@UEAAXXZ 000000018006dd60 f   electron_sdk.pb.obj
 0001:0006cd60       ?Clear@HideQAOnMeetingUIParams@proto@sdk@electron@com@@UEAAXXZ 000000018006dd60 f   electron_sdk.pb.obj
 0001:0006cd60       ?Clear@HideRecordItemOnMeetingUIParams@proto@sdk@electron@com@@UEAAXXZ 000000018006dd60 f   electron_sdk.pb.obj
 0001:0006cd60       ?Clear@HideRemoteControlOnMeetingUIParams@proto@sdk@electron@com@@UEAAXXZ 000000018006dd60 f   electron_sdk.pb.obj
 0001:0006cd60       ?Clear@HideSwitchCameraButtonParams@proto@sdk@electron@com@@UEAAXXZ 000000018006dd60 f   electron_sdk.pb.obj
 0001:0006cd60       ?Clear@HideUpgradeFreeMeetingButtonParams@proto@sdk@electron@com@@UEAAXXZ 000000018006dd60 f   electron_sdk.pb.obj
 0001:0006cd60       ?Clear@JoinWithArchiveParams@proto@sdk@electron@com@@UEAAXXZ 000000018006dd60 f   electron_sdk.pb.obj
 0001:0006cd60       ?Clear@LeaveMeetingParams@proto@sdk@electron@com@@UEAAXXZ 000000018006dd60 f   electron_sdk.pb.obj
 0001:0006cd60       ?Clear@RedirectClickAudioBTNEventParams@proto@sdk@electron@com@@UEAAXXZ 000000018006dd60 f   electron_sdk.pb.obj
 0001:0006cd60       ?Clear@RedirectClickAudioMenuBTNEventParams@proto@sdk@electron@com@@UEAAXXZ 000000018006dd60 f   electron_sdk.pb.obj
 0001:0006cd60       ?Clear@RedirectClickCCBTNEventParams@proto@sdk@electron@com@@UEAAXXZ 000000018006dd60 f   electron_sdk.pb.obj
 0001:0006cd60       ?Clear@RedirectClickCustomLiveStreamMenuEventParams@proto@sdk@electron@com@@UEAAXXZ 000000018006dd60 f   electron_sdk.pb.obj
 0001:0006cd60       ?Clear@RedirectClickEndMeetingBTNEventParams@proto@sdk@electron@com@@UEAAXXZ 000000018006dd60 f   electron_sdk.pb.obj
 0001:0006cd60       ?Clear@RedirectClickParticipantListBTNEventParams@proto@sdk@electron@com@@UEAAXXZ 000000018006dd60 f   electron_sdk.pb.obj
 0001:0006cd60       ?Clear@RedirectClickShareBTNEventParams@proto@sdk@electron@com@@UEAAXXZ 000000018006dd60 f   electron_sdk.pb.obj
 0001:0006cd60       ?Clear@RedirectConfirmStartArchiveDialogParams@proto@sdk@electron@com@@UEAAXXZ 000000018006dd60 f   electron_sdk.pb.obj
 0001:0006cd60       ?Clear@RedirectEndOtherMeetingParams@proto@sdk@electron@com@@UEAAXXZ 000000018006dd60 f   electron_sdk.pb.obj
 0001:0006cd60       ?Clear@RedirectFreeMeetingEndingReminderDlgParams@proto@sdk@electron@com@@UEAAXXZ 000000018006dd60 f   electron_sdk.pb.obj
